
StepperMotorDriver.elf:     file format elf32-littlearm

Sections:
Idx Name          Size      VMA       LMA       File off  Algn
  0 .isr_vector   0000010c  08000000  08000000  00001000  2**0
                  CONTENTS, ALLOC, LOAD, READONLY, DATA
  1 .text         000088a8  08000110  08000110  00001110  2**3
                  CONTENTS, ALLOC, LOAD, READONLY, CODE
  2 .rodata       000005e0  080089b8  080089b8  000099b8  2**3
                  CONTENTS, ALLOC, LOAD, READONLY, DATA
  3 .ARM.extab    00000000  08008f98  08008f98  0000a208  2**0
                  CONTENTS
  4 .ARM          00000008  08008f98  08008f98  00009f98  2**2
                  CONTENTS, ALLOC, LOAD, READONLY, DATA
  5 .preinit_array 00000000  08008fa0  08008fa0  0000a208  2**0
                  CONTENTS, ALLOC, LOAD, DATA
  6 .init_array   00000004  08008fa0  08008fa0  00009fa0  2**2
                  CONTENTS, ALLOC, LOAD, READONLY, DATA
  7 .fini_array   00000004  08008fa4  08008fa4  00009fa4  2**2
                  CONTENTS, ALLOC, LOAD, READONLY, DATA
  8 .data         00000208  20000000  08008fa8  0000a000  2**2
                  CONTENTS, ALLOC, LOAD, DATA
  9 .bss          000002d4  20000208  080091b0  0000a208  2**2
                  ALLOC
 10 ._user_heap_stack 00000604  200004dc  080091b0  0000a4dc  2**0
                  ALLOC
 11 .ARM.attributes 00000029  00000000  00000000  0000a208  2**0
                  CONTENTS, READONLY
 12 .debug_info   0001208d  00000000  00000000  0000a231  2**0
                  CONTENTS, READONLY, DEBUGGING, OCTETS
 13 .debug_abbrev 00002b6e  00000000  00000000  0001c2be  2**0
                  CONTENTS, READONLY, DEBUGGING, OCTETS
 14 .debug_aranges 000010b0  00000000  00000000  0001ee30  2**3
                  CONTENTS, READONLY, DEBUGGING, OCTETS
 15 .debug_rnglists 00000cf2  00000000  00000000  0001fee0  2**0
                  CONTENTS, READONLY, DEBUGGING, OCTETS
 16 .debug_macro  0001ad48  00000000  00000000  00020bd2  2**0
                  CONTENTS, READONLY, DEBUGGING, OCTETS
 17 .debug_line   0001046c  00000000  00000000  0003b91a  2**0
                  CONTENTS, READONLY, DEBUGGING, OCTETS
 18 .debug_str    00091a5d  00000000  00000000  0004bd86  2**0
                  CONTENTS, READONLY, DEBUGGING, OCTETS
 19 .comment      00000043  00000000  00000000  000dd7e3  2**0
                  CONTENTS, READONLY
 20 .debug_frame  00005814  00000000  00000000  000dd828  2**2
                  CONTENTS, READONLY, DEBUGGING, OCTETS
 21 .debug_line_str 00000060  00000000  00000000  000e303c  2**0
                  CONTENTS, READONLY, DEBUGGING, OCTETS

Disassembly of section .text:

08000110 <__do_global_dtors_aux>:
 8000110:	b510      	push	{r4, lr}
 8000112:	4c05      	ldr	r4, [pc, #20]	@ (8000128 <__do_global_dtors_aux+0x18>)
 8000114:	7823      	ldrb	r3, [r4, #0]
 8000116:	b933      	cbnz	r3, 8000126 <__do_global_dtors_aux+0x16>
 8000118:	4b04      	ldr	r3, [pc, #16]	@ (800012c <__do_global_dtors_aux+0x1c>)
 800011a:	b113      	cbz	r3, 8000122 <__do_global_dtors_aux+0x12>
 800011c:	4804      	ldr	r0, [pc, #16]	@ (8000130 <__do_global_dtors_aux+0x20>)
 800011e:	f3af 8000 	nop.w
 8000122:	2301      	movs	r3, #1
 8000124:	7023      	strb	r3, [r4, #0]
 8000126:	bd10      	pop	{r4, pc}
 8000128:	20000208 	.word	0x20000208
 800012c:	00000000 	.word	0x00000000
 8000130:	080089a0 	.word	0x080089a0

08000134 <frame_dummy>:
 8000134:	b508      	push	{r3, lr}
 8000136:	4b03      	ldr	r3, [pc, #12]	@ (8000144 <frame_dummy+0x10>)
 8000138:	b11b      	cbz	r3, 8000142 <frame_dummy+0xe>
 800013a:	4903      	ldr	r1, [pc, #12]	@ (8000148 <frame_dummy+0x14>)
 800013c:	4803      	ldr	r0, [pc, #12]	@ (800014c <frame_dummy+0x18>)
 800013e:	f3af 8000 	nop.w
 8000142:	bd08      	pop	{r3, pc}
 8000144:	00000000 	.word	0x00000000
 8000148:	2000020c 	.word	0x2000020c
 800014c:	080089a0 	.word	0x080089a0

08000150 <strlen>:
 8000150:	4603      	mov	r3, r0
 8000152:	f813 2b01 	ldrb.w	r2, [r3], #1
 8000156:	2a00      	cmp	r2, #0
 8000158:	d1fb      	bne.n	8000152 <strlen+0x2>
 800015a:	1a18      	subs	r0, r3, r0
 800015c:	3801      	subs	r0, #1
 800015e:	4770      	bx	lr

08000160 <__aeabi_drsub>:
 8000160:	f081 4100 	eor.w	r1, r1, #2147483648	@ 0x80000000
 8000164:	e002      	b.n	800016c <__adddf3>
 8000166:	bf00      	nop

08000168 <__aeabi_dsub>:
 8000168:	f083 4300 	eor.w	r3, r3, #2147483648	@ 0x80000000

0800016c <__adddf3>:
 800016c:	b530      	push	{r4, r5, lr}
 800016e:	ea4f 0441 	mov.w	r4, r1, lsl #1
 8000172:	ea4f 0543 	mov.w	r5, r3, lsl #1
 8000176:	ea94 0f05 	teq	r4, r5
 800017a:	bf08      	it	eq
 800017c:	ea90 0f02 	teqeq	r0, r2
 8000180:	bf1f      	itttt	ne
 8000182:	ea54 0c00 	orrsne.w	ip, r4, r0
 8000186:	ea55 0c02 	orrsne.w	ip, r5, r2
 800018a:	ea7f 5c64 	mvnsne.w	ip, r4, asr #21
 800018e:	ea7f 5c65 	mvnsne.w	ip, r5, asr #21
 8000192:	f000 80e2 	beq.w	800035a <__adddf3+0x1ee>
 8000196:	ea4f 5454 	mov.w	r4, r4, lsr #21
 800019a:	ebd4 5555 	rsbs	r5, r4, r5, lsr #21
 800019e:	bfb8      	it	lt
 80001a0:	426d      	neglt	r5, r5
 80001a2:	dd0c      	ble.n	80001be <__adddf3+0x52>
 80001a4:	442c      	add	r4, r5
 80001a6:	ea80 0202 	eor.w	r2, r0, r2
 80001aa:	ea81 0303 	eor.w	r3, r1, r3
 80001ae:	ea82 0000 	eor.w	r0, r2, r0
 80001b2:	ea83 0101 	eor.w	r1, r3, r1
 80001b6:	ea80 0202 	eor.w	r2, r0, r2
 80001ba:	ea81 0303 	eor.w	r3, r1, r3
 80001be:	2d36      	cmp	r5, #54	@ 0x36
 80001c0:	bf88      	it	hi
 80001c2:	bd30      	pophi	{r4, r5, pc}
 80001c4:	f011 4f00 	tst.w	r1, #2147483648	@ 0x80000000
 80001c8:	ea4f 3101 	mov.w	r1, r1, lsl #12
 80001cc:	f44f 1c80 	mov.w	ip, #1048576	@ 0x100000
 80001d0:	ea4c 3111 	orr.w	r1, ip, r1, lsr #12
 80001d4:	d002      	beq.n	80001dc <__adddf3+0x70>
 80001d6:	4240      	negs	r0, r0
 80001d8:	eb61 0141 	sbc.w	r1, r1, r1, lsl #1
 80001dc:	f013 4f00 	tst.w	r3, #2147483648	@ 0x80000000
 80001e0:	ea4f 3303 	mov.w	r3, r3, lsl #12
 80001e4:	ea4c 3313 	orr.w	r3, ip, r3, lsr #12
 80001e8:	d002      	beq.n	80001f0 <__adddf3+0x84>
 80001ea:	4252      	negs	r2, r2
 80001ec:	eb63 0343 	sbc.w	r3, r3, r3, lsl #1
 80001f0:	ea94 0f05 	teq	r4, r5
 80001f4:	f000 80a7 	beq.w	8000346 <__adddf3+0x1da>
 80001f8:	f1a4 0401 	sub.w	r4, r4, #1
 80001fc:	f1d5 0e20 	rsbs	lr, r5, #32
 8000200:	db0d      	blt.n	800021e <__adddf3+0xb2>
 8000202:	fa02 fc0e 	lsl.w	ip, r2, lr
 8000206:	fa22 f205 	lsr.w	r2, r2, r5
 800020a:	1880      	adds	r0, r0, r2
 800020c:	f141 0100 	adc.w	r1, r1, #0
 8000210:	fa03 f20e 	lsl.w	r2, r3, lr
 8000214:	1880      	adds	r0, r0, r2
 8000216:	fa43 f305 	asr.w	r3, r3, r5
 800021a:	4159      	adcs	r1, r3
 800021c:	e00e      	b.n	800023c <__adddf3+0xd0>
 800021e:	f1a5 0520 	sub.w	r5, r5, #32
 8000222:	f10e 0e20 	add.w	lr, lr, #32
 8000226:	2a01      	cmp	r2, #1
 8000228:	fa03 fc0e 	lsl.w	ip, r3, lr
 800022c:	bf28      	it	cs
 800022e:	f04c 0c02 	orrcs.w	ip, ip, #2
 8000232:	fa43 f305 	asr.w	r3, r3, r5
 8000236:	18c0      	adds	r0, r0, r3
 8000238:	eb51 71e3 	adcs.w	r1, r1, r3, asr #31
 800023c:	f001 4500 	and.w	r5, r1, #2147483648	@ 0x80000000
 8000240:	d507      	bpl.n	8000252 <__adddf3+0xe6>
 8000242:	f04f 0e00 	mov.w	lr, #0
 8000246:	f1dc 0c00 	rsbs	ip, ip, #0
 800024a:	eb7e 0000 	sbcs.w	r0, lr, r0
 800024e:	eb6e 0101 	sbc.w	r1, lr, r1
 8000252:	f5b1 1f80 	cmp.w	r1, #1048576	@ 0x100000
 8000256:	d31b      	bcc.n	8000290 <__adddf3+0x124>
 8000258:	f5b1 1f00 	cmp.w	r1, #2097152	@ 0x200000
 800025c:	d30c      	bcc.n	8000278 <__adddf3+0x10c>
 800025e:	0849      	lsrs	r1, r1, #1
 8000260:	ea5f 0030 	movs.w	r0, r0, rrx
 8000264:	ea4f 0c3c 	mov.w	ip, ip, rrx
 8000268:	f104 0401 	add.w	r4, r4, #1
 800026c:	ea4f 5244 	mov.w	r2, r4, lsl #21
 8000270:	f512 0f80 	cmn.w	r2, #4194304	@ 0x400000
 8000274:	f080 809a 	bcs.w	80003ac <__adddf3+0x240>
 8000278:	f1bc 4f00 	cmp.w	ip, #2147483648	@ 0x80000000
 800027c:	bf08      	it	eq
 800027e:	ea5f 0c50 	movseq.w	ip, r0, lsr #1
 8000282:	f150 0000 	adcs.w	r0, r0, #0
 8000286:	eb41 5104 	adc.w	r1, r1, r4, lsl #20
 800028a:	ea41 0105 	orr.w	r1, r1, r5
 800028e:	bd30      	pop	{r4, r5, pc}
 8000290:	ea5f 0c4c 	movs.w	ip, ip, lsl #1
 8000294:	4140      	adcs	r0, r0
 8000296:	eb41 0101 	adc.w	r1, r1, r1
 800029a:	3c01      	subs	r4, #1
 800029c:	bf28      	it	cs
 800029e:	f5b1 1f80 	cmpcs.w	r1, #1048576	@ 0x100000
 80002a2:	d2e9      	bcs.n	8000278 <__adddf3+0x10c>
 80002a4:	f091 0f00 	teq	r1, #0
 80002a8:	bf04      	itt	eq
 80002aa:	4601      	moveq	r1, r0
 80002ac:	2000      	moveq	r0, #0
 80002ae:	fab1 f381 	clz	r3, r1
 80002b2:	bf08      	it	eq
 80002b4:	3320      	addeq	r3, #32
 80002b6:	f1a3 030b 	sub.w	r3, r3, #11
 80002ba:	f1b3 0220 	subs.w	r2, r3, #32
 80002be:	da0c      	bge.n	80002da <__adddf3+0x16e>
 80002c0:	320c      	adds	r2, #12
 80002c2:	dd08      	ble.n	80002d6 <__adddf3+0x16a>
 80002c4:	f102 0c14 	add.w	ip, r2, #20
 80002c8:	f1c2 020c 	rsb	r2, r2, #12
 80002cc:	fa01 f00c 	lsl.w	r0, r1, ip
 80002d0:	fa21 f102 	lsr.w	r1, r1, r2
 80002d4:	e00c      	b.n	80002f0 <__adddf3+0x184>
 80002d6:	f102 0214 	add.w	r2, r2, #20
 80002da:	bfd8      	it	le
 80002dc:	f1c2 0c20 	rsble	ip, r2, #32
 80002e0:	fa01 f102 	lsl.w	r1, r1, r2
 80002e4:	fa20 fc0c 	lsr.w	ip, r0, ip
 80002e8:	bfdc      	itt	le
 80002ea:	ea41 010c 	orrle.w	r1, r1, ip
 80002ee:	4090      	lslle	r0, r2
 80002f0:	1ae4      	subs	r4, r4, r3
 80002f2:	bfa2      	ittt	ge
 80002f4:	eb01 5104 	addge.w	r1, r1, r4, lsl #20
 80002f8:	4329      	orrge	r1, r5
 80002fa:	bd30      	popge	{r4, r5, pc}
 80002fc:	ea6f 0404 	mvn.w	r4, r4
 8000300:	3c1f      	subs	r4, #31
 8000302:	da1c      	bge.n	800033e <__adddf3+0x1d2>
 8000304:	340c      	adds	r4, #12
 8000306:	dc0e      	bgt.n	8000326 <__adddf3+0x1ba>
 8000308:	f104 0414 	add.w	r4, r4, #20
 800030c:	f1c4 0220 	rsb	r2, r4, #32
 8000310:	fa20 f004 	lsr.w	r0, r0, r4
 8000314:	fa01 f302 	lsl.w	r3, r1, r2
 8000318:	ea40 0003 	orr.w	r0, r0, r3
 800031c:	fa21 f304 	lsr.w	r3, r1, r4
 8000320:	ea45 0103 	orr.w	r1, r5, r3
 8000324:	bd30      	pop	{r4, r5, pc}
 8000326:	f1c4 040c 	rsb	r4, r4, #12
 800032a:	f1c4 0220 	rsb	r2, r4, #32
 800032e:	fa20 f002 	lsr.w	r0, r0, r2
 8000332:	fa01 f304 	lsl.w	r3, r1, r4
 8000336:	ea40 0003 	orr.w	r0, r0, r3
 800033a:	4629      	mov	r1, r5
 800033c:	bd30      	pop	{r4, r5, pc}
 800033e:	fa21 f004 	lsr.w	r0, r1, r4
 8000342:	4629      	mov	r1, r5
 8000344:	bd30      	pop	{r4, r5, pc}
 8000346:	f094 0f00 	teq	r4, #0
 800034a:	f483 1380 	eor.w	r3, r3, #1048576	@ 0x100000
 800034e:	bf06      	itte	eq
 8000350:	f481 1180 	eoreq.w	r1, r1, #1048576	@ 0x100000
 8000354:	3401      	addeq	r4, #1
 8000356:	3d01      	subne	r5, #1
 8000358:	e74e      	b.n	80001f8 <__adddf3+0x8c>
 800035a:	ea7f 5c64 	mvns.w	ip, r4, asr #21
 800035e:	bf18      	it	ne
 8000360:	ea7f 5c65 	mvnsne.w	ip, r5, asr #21
 8000364:	d029      	beq.n	80003ba <__adddf3+0x24e>
 8000366:	ea94 0f05 	teq	r4, r5
 800036a:	bf08      	it	eq
 800036c:	ea90 0f02 	teqeq	r0, r2
 8000370:	d005      	beq.n	800037e <__adddf3+0x212>
 8000372:	ea54 0c00 	orrs.w	ip, r4, r0
 8000376:	bf04      	itt	eq
 8000378:	4619      	moveq	r1, r3
 800037a:	4610      	moveq	r0, r2
 800037c:	bd30      	pop	{r4, r5, pc}
 800037e:	ea91 0f03 	teq	r1, r3
 8000382:	bf1e      	ittt	ne
 8000384:	2100      	movne	r1, #0
 8000386:	2000      	movne	r0, #0
 8000388:	bd30      	popne	{r4, r5, pc}
 800038a:	ea5f 5c54 	movs.w	ip, r4, lsr #21
 800038e:	d105      	bne.n	800039c <__adddf3+0x230>
 8000390:	0040      	lsls	r0, r0, #1
 8000392:	4149      	adcs	r1, r1
 8000394:	bf28      	it	cs
 8000396:	f041 4100 	orrcs.w	r1, r1, #2147483648	@ 0x80000000
 800039a:	bd30      	pop	{r4, r5, pc}
 800039c:	f514 0480 	adds.w	r4, r4, #4194304	@ 0x400000
 80003a0:	bf3c      	itt	cc
 80003a2:	f501 1180 	addcc.w	r1, r1, #1048576	@ 0x100000
 80003a6:	bd30      	popcc	{r4, r5, pc}
 80003a8:	f001 4500 	and.w	r5, r1, #2147483648	@ 0x80000000
 80003ac:	f045 41fe 	orr.w	r1, r5, #2130706432	@ 0x7f000000
 80003b0:	f441 0170 	orr.w	r1, r1, #15728640	@ 0xf00000
 80003b4:	f04f 0000 	mov.w	r0, #0
 80003b8:	bd30      	pop	{r4, r5, pc}
 80003ba:	ea7f 5c64 	mvns.w	ip, r4, asr #21
 80003be:	bf1a      	itte	ne
 80003c0:	4619      	movne	r1, r3
 80003c2:	4610      	movne	r0, r2
 80003c4:	ea7f 5c65 	mvnseq.w	ip, r5, asr #21
 80003c8:	bf1c      	itt	ne
 80003ca:	460b      	movne	r3, r1
 80003cc:	4602      	movne	r2, r0
 80003ce:	ea50 3401 	orrs.w	r4, r0, r1, lsl #12
 80003d2:	bf06      	itte	eq
 80003d4:	ea52 3503 	orrseq.w	r5, r2, r3, lsl #12
 80003d8:	ea91 0f03 	teqeq	r1, r3
 80003dc:	f441 2100 	orrne.w	r1, r1, #524288	@ 0x80000
 80003e0:	bd30      	pop	{r4, r5, pc}
 80003e2:	bf00      	nop

080003e4 <__aeabi_ui2d>:
 80003e4:	f090 0f00 	teq	r0, #0
 80003e8:	bf04      	itt	eq
 80003ea:	2100      	moveq	r1, #0
 80003ec:	4770      	bxeq	lr
 80003ee:	b530      	push	{r4, r5, lr}
 80003f0:	f44f 6480 	mov.w	r4, #1024	@ 0x400
 80003f4:	f104 0432 	add.w	r4, r4, #50	@ 0x32
 80003f8:	f04f 0500 	mov.w	r5, #0
 80003fc:	f04f 0100 	mov.w	r1, #0
 8000400:	e750      	b.n	80002a4 <__adddf3+0x138>
 8000402:	bf00      	nop

08000404 <__aeabi_i2d>:
 8000404:	f090 0f00 	teq	r0, #0
 8000408:	bf04      	itt	eq
 800040a:	2100      	moveq	r1, #0
 800040c:	4770      	bxeq	lr
 800040e:	b530      	push	{r4, r5, lr}
 8000410:	f44f 6480 	mov.w	r4, #1024	@ 0x400
 8000414:	f104 0432 	add.w	r4, r4, #50	@ 0x32
 8000418:	f010 4500 	ands.w	r5, r0, #2147483648	@ 0x80000000
 800041c:	bf48      	it	mi
 800041e:	4240      	negmi	r0, r0
 8000420:	f04f 0100 	mov.w	r1, #0
 8000424:	e73e      	b.n	80002a4 <__adddf3+0x138>
 8000426:	bf00      	nop

08000428 <__aeabi_f2d>:
 8000428:	0042      	lsls	r2, r0, #1
 800042a:	ea4f 01e2 	mov.w	r1, r2, asr #3
 800042e:	ea4f 0131 	mov.w	r1, r1, rrx
 8000432:	ea4f 7002 	mov.w	r0, r2, lsl #28
 8000436:	bf1f      	itttt	ne
 8000438:	f012 437f 	andsne.w	r3, r2, #4278190080	@ 0xff000000
 800043c:	f093 4f7f 	teqne	r3, #4278190080	@ 0xff000000
 8000440:	f081 5160 	eorne.w	r1, r1, #939524096	@ 0x38000000
 8000444:	4770      	bxne	lr
 8000446:	f032 427f 	bics.w	r2, r2, #4278190080	@ 0xff000000
 800044a:	bf08      	it	eq
 800044c:	4770      	bxeq	lr
 800044e:	f093 4f7f 	teq	r3, #4278190080	@ 0xff000000
 8000452:	bf04      	itt	eq
 8000454:	f441 2100 	orreq.w	r1, r1, #524288	@ 0x80000
 8000458:	4770      	bxeq	lr
 800045a:	b530      	push	{r4, r5, lr}
 800045c:	f44f 7460 	mov.w	r4, #896	@ 0x380
 8000460:	f001 4500 	and.w	r5, r1, #2147483648	@ 0x80000000
 8000464:	f021 4100 	bic.w	r1, r1, #2147483648	@ 0x80000000
 8000468:	e71c      	b.n	80002a4 <__adddf3+0x138>
 800046a:	bf00      	nop

0800046c <__aeabi_ul2d>:
 800046c:	ea50 0201 	orrs.w	r2, r0, r1
 8000470:	bf08      	it	eq
 8000472:	4770      	bxeq	lr
 8000474:	b530      	push	{r4, r5, lr}
 8000476:	f04f 0500 	mov.w	r5, #0
 800047a:	e00a      	b.n	8000492 <__aeabi_l2d+0x16>

0800047c <__aeabi_l2d>:
 800047c:	ea50 0201 	orrs.w	r2, r0, r1
 8000480:	bf08      	it	eq
 8000482:	4770      	bxeq	lr
 8000484:	b530      	push	{r4, r5, lr}
 8000486:	f011 4500 	ands.w	r5, r1, #2147483648	@ 0x80000000
 800048a:	d502      	bpl.n	8000492 <__aeabi_l2d+0x16>
 800048c:	4240      	negs	r0, r0
 800048e:	eb61 0141 	sbc.w	r1, r1, r1, lsl #1
 8000492:	f44f 6480 	mov.w	r4, #1024	@ 0x400
 8000496:	f104 0432 	add.w	r4, r4, #50	@ 0x32
 800049a:	ea5f 5c91 	movs.w	ip, r1, lsr #22
 800049e:	f43f aed8 	beq.w	8000252 <__adddf3+0xe6>
 80004a2:	f04f 0203 	mov.w	r2, #3
 80004a6:	ea5f 0cdc 	movs.w	ip, ip, lsr #3
 80004aa:	bf18      	it	ne
 80004ac:	3203      	addne	r2, #3
 80004ae:	ea5f 0cdc 	movs.w	ip, ip, lsr #3
 80004b2:	bf18      	it	ne
 80004b4:	3203      	addne	r2, #3
 80004b6:	eb02 02dc 	add.w	r2, r2, ip, lsr #3
 80004ba:	f1c2 0320 	rsb	r3, r2, #32
 80004be:	fa00 fc03 	lsl.w	ip, r0, r3
 80004c2:	fa20 f002 	lsr.w	r0, r0, r2
 80004c6:	fa01 fe03 	lsl.w	lr, r1, r3
 80004ca:	ea40 000e 	orr.w	r0, r0, lr
 80004ce:	fa21 f102 	lsr.w	r1, r1, r2
 80004d2:	4414      	add	r4, r2
 80004d4:	e6bd      	b.n	8000252 <__adddf3+0xe6>
 80004d6:	bf00      	nop

080004d8 <__aeabi_dmul>:
 80004d8:	b570      	push	{r4, r5, r6, lr}
 80004da:	f04f 0cff 	mov.w	ip, #255	@ 0xff
 80004de:	f44c 6ce0 	orr.w	ip, ip, #1792	@ 0x700
 80004e2:	ea1c 5411 	ands.w	r4, ip, r1, lsr #20
 80004e6:	bf1d      	ittte	ne
 80004e8:	ea1c 5513 	andsne.w	r5, ip, r3, lsr #20
 80004ec:	ea94 0f0c 	teqne	r4, ip
 80004f0:	ea95 0f0c 	teqne	r5, ip
 80004f4:	f000 f8de 	bleq	80006b4 <__aeabi_dmul+0x1dc>
 80004f8:	442c      	add	r4, r5
 80004fa:	ea81 0603 	eor.w	r6, r1, r3
 80004fe:	ea21 514c 	bic.w	r1, r1, ip, lsl #21
 8000502:	ea23 534c 	bic.w	r3, r3, ip, lsl #21
 8000506:	ea50 3501 	orrs.w	r5, r0, r1, lsl #12
 800050a:	bf18      	it	ne
 800050c:	ea52 3503 	orrsne.w	r5, r2, r3, lsl #12
 8000510:	f441 1180 	orr.w	r1, r1, #1048576	@ 0x100000
 8000514:	f443 1380 	orr.w	r3, r3, #1048576	@ 0x100000
 8000518:	d038      	beq.n	800058c <__aeabi_dmul+0xb4>
 800051a:	fba0 ce02 	umull	ip, lr, r0, r2
 800051e:	f04f 0500 	mov.w	r5, #0
 8000522:	fbe1 e502 	umlal	lr, r5, r1, r2
 8000526:	f006 4200 	and.w	r2, r6, #2147483648	@ 0x80000000
 800052a:	fbe0 e503 	umlal	lr, r5, r0, r3
 800052e:	f04f 0600 	mov.w	r6, #0
 8000532:	fbe1 5603 	umlal	r5, r6, r1, r3
 8000536:	f09c 0f00 	teq	ip, #0
 800053a:	bf18      	it	ne
 800053c:	f04e 0e01 	orrne.w	lr, lr, #1
 8000540:	f1a4 04ff 	sub.w	r4, r4, #255	@ 0xff
 8000544:	f5b6 7f00 	cmp.w	r6, #512	@ 0x200
 8000548:	f564 7440 	sbc.w	r4, r4, #768	@ 0x300
 800054c:	d204      	bcs.n	8000558 <__aeabi_dmul+0x80>
 800054e:	ea5f 0e4e 	movs.w	lr, lr, lsl #1
 8000552:	416d      	adcs	r5, r5
 8000554:	eb46 0606 	adc.w	r6, r6, r6
 8000558:	ea42 21c6 	orr.w	r1, r2, r6, lsl #11
 800055c:	ea41 5155 	orr.w	r1, r1, r5, lsr #21
 8000560:	ea4f 20c5 	mov.w	r0, r5, lsl #11
 8000564:	ea40 505e 	orr.w	r0, r0, lr, lsr #21
 8000568:	ea4f 2ece 	mov.w	lr, lr, lsl #11
 800056c:	f1b4 0cfd 	subs.w	ip, r4, #253	@ 0xfd
 8000570:	bf88      	it	hi
 8000572:	f5bc 6fe0 	cmphi.w	ip, #1792	@ 0x700
 8000576:	d81e      	bhi.n	80005b6 <__aeabi_dmul+0xde>
 8000578:	f1be 4f00 	cmp.w	lr, #2147483648	@ 0x80000000
 800057c:	bf08      	it	eq
 800057e:	ea5f 0e50 	movseq.w	lr, r0, lsr #1
 8000582:	f150 0000 	adcs.w	r0, r0, #0
 8000586:	eb41 5104 	adc.w	r1, r1, r4, lsl #20
 800058a:	bd70      	pop	{r4, r5, r6, pc}
 800058c:	f006 4600 	and.w	r6, r6, #2147483648	@ 0x80000000
 8000590:	ea46 0101 	orr.w	r1, r6, r1
 8000594:	ea40 0002 	orr.w	r0, r0, r2
 8000598:	ea81 0103 	eor.w	r1, r1, r3
 800059c:	ebb4 045c 	subs.w	r4, r4, ip, lsr #1
 80005a0:	bfc2      	ittt	gt
 80005a2:	ebd4 050c 	rsbsgt	r5, r4, ip
 80005a6:	ea41 5104 	orrgt.w	r1, r1, r4, lsl #20
 80005aa:	bd70      	popgt	{r4, r5, r6, pc}
 80005ac:	f441 1180 	orr.w	r1, r1, #1048576	@ 0x100000
 80005b0:	f04f 0e00 	mov.w	lr, #0
 80005b4:	3c01      	subs	r4, #1
 80005b6:	f300 80ab 	bgt.w	8000710 <__aeabi_dmul+0x238>
 80005ba:	f114 0f36 	cmn.w	r4, #54	@ 0x36
 80005be:	bfde      	ittt	le
 80005c0:	2000      	movle	r0, #0
 80005c2:	f001 4100 	andle.w	r1, r1, #2147483648	@ 0x80000000
 80005c6:	bd70      	pople	{r4, r5, r6, pc}
 80005c8:	f1c4 0400 	rsb	r4, r4, #0
 80005cc:	3c20      	subs	r4, #32
 80005ce:	da35      	bge.n	800063c <__aeabi_dmul+0x164>
 80005d0:	340c      	adds	r4, #12
 80005d2:	dc1b      	bgt.n	800060c <__aeabi_dmul+0x134>
 80005d4:	f104 0414 	add.w	r4, r4, #20
 80005d8:	f1c4 0520 	rsb	r5, r4, #32
 80005dc:	fa00 f305 	lsl.w	r3, r0, r5
 80005e0:	fa20 f004 	lsr.w	r0, r0, r4
 80005e4:	fa01 f205 	lsl.w	r2, r1, r5
 80005e8:	ea40 0002 	orr.w	r0, r0, r2
 80005ec:	f001 4200 	and.w	r2, r1, #2147483648	@ 0x80000000
 80005f0:	f021 4100 	bic.w	r1, r1, #2147483648	@ 0x80000000
 80005f4:	eb10 70d3 	adds.w	r0, r0, r3, lsr #31
 80005f8:	fa21 f604 	lsr.w	r6, r1, r4
 80005fc:	eb42 0106 	adc.w	r1, r2, r6
 8000600:	ea5e 0e43 	orrs.w	lr, lr, r3, lsl #1
 8000604:	bf08      	it	eq
 8000606:	ea20 70d3 	biceq.w	r0, r0, r3, lsr #31
 800060a:	bd70      	pop	{r4, r5, r6, pc}
 800060c:	f1c4 040c 	rsb	r4, r4, #12
 8000610:	f1c4 0520 	rsb	r5, r4, #32
 8000614:	fa00 f304 	lsl.w	r3, r0, r4
 8000618:	fa20 f005 	lsr.w	r0, r0, r5
 800061c:	fa01 f204 	lsl.w	r2, r1, r4
 8000620:	ea40 0002 	orr.w	r0, r0, r2
 8000624:	f001 4100 	and.w	r1, r1, #2147483648	@ 0x80000000
 8000628:	eb10 70d3 	adds.w	r0, r0, r3, lsr #31
 800062c:	f141 0100 	adc.w	r1, r1, #0
 8000630:	ea5e 0e43 	orrs.w	lr, lr, r3, lsl #1
 8000634:	bf08      	it	eq
 8000636:	ea20 70d3 	biceq.w	r0, r0, r3, lsr #31
 800063a:	bd70      	pop	{r4, r5, r6, pc}
 800063c:	f1c4 0520 	rsb	r5, r4, #32
 8000640:	fa00 f205 	lsl.w	r2, r0, r5
 8000644:	ea4e 0e02 	orr.w	lr, lr, r2
 8000648:	fa20 f304 	lsr.w	r3, r0, r4
 800064c:	fa01 f205 	lsl.w	r2, r1, r5
 8000650:	ea43 0302 	orr.w	r3, r3, r2
 8000654:	fa21 f004 	lsr.w	r0, r1, r4
 8000658:	f001 4100 	and.w	r1, r1, #2147483648	@ 0x80000000
 800065c:	fa21 f204 	lsr.w	r2, r1, r4
 8000660:	ea20 0002 	bic.w	r0, r0, r2
 8000664:	eb00 70d3 	add.w	r0, r0, r3, lsr #31
 8000668:	ea5e 0e43 	orrs.w	lr, lr, r3, lsl #1
 800066c:	bf08      	it	eq
 800066e:	ea20 70d3 	biceq.w	r0, r0, r3, lsr #31
 8000672:	bd70      	pop	{r4, r5, r6, pc}
 8000674:	f094 0f00 	teq	r4, #0
 8000678:	d10f      	bne.n	800069a <__aeabi_dmul+0x1c2>
 800067a:	f001 4600 	and.w	r6, r1, #2147483648	@ 0x80000000
 800067e:	0040      	lsls	r0, r0, #1
 8000680:	eb41 0101 	adc.w	r1, r1, r1
 8000684:	f411 1f80 	tst.w	r1, #1048576	@ 0x100000
 8000688:	bf08      	it	eq
 800068a:	3c01      	subeq	r4, #1
 800068c:	d0f7      	beq.n	800067e <__aeabi_dmul+0x1a6>
 800068e:	ea41 0106 	orr.w	r1, r1, r6
 8000692:	f095 0f00 	teq	r5, #0
 8000696:	bf18      	it	ne
 8000698:	4770      	bxne	lr
 800069a:	f003 4600 	and.w	r6, r3, #2147483648	@ 0x80000000
 800069e:	0052      	lsls	r2, r2, #1
 80006a0:	eb43 0303 	adc.w	r3, r3, r3
 80006a4:	f413 1f80 	tst.w	r3, #1048576	@ 0x100000
 80006a8:	bf08      	it	eq
 80006aa:	3d01      	subeq	r5, #1
 80006ac:	d0f7      	beq.n	800069e <__aeabi_dmul+0x1c6>
 80006ae:	ea43 0306 	orr.w	r3, r3, r6
 80006b2:	4770      	bx	lr
 80006b4:	ea94 0f0c 	teq	r4, ip
 80006b8:	ea0c 5513 	and.w	r5, ip, r3, lsr #20
 80006bc:	bf18      	it	ne
 80006be:	ea95 0f0c 	teqne	r5, ip
 80006c2:	d00c      	beq.n	80006de <__aeabi_dmul+0x206>
 80006c4:	ea50 0641 	orrs.w	r6, r0, r1, lsl #1
 80006c8:	bf18      	it	ne
 80006ca:	ea52 0643 	orrsne.w	r6, r2, r3, lsl #1
 80006ce:	d1d1      	bne.n	8000674 <__aeabi_dmul+0x19c>
 80006d0:	ea81 0103 	eor.w	r1, r1, r3
 80006d4:	f001 4100 	and.w	r1, r1, #2147483648	@ 0x80000000
 80006d8:	f04f 0000 	mov.w	r0, #0
 80006dc:	bd70      	pop	{r4, r5, r6, pc}
 80006de:	ea50 0641 	orrs.w	r6, r0, r1, lsl #1
 80006e2:	bf06      	itte	eq
 80006e4:	4610      	moveq	r0, r2
 80006e6:	4619      	moveq	r1, r3
 80006e8:	ea52 0643 	orrsne.w	r6, r2, r3, lsl #1
 80006ec:	d019      	beq.n	8000722 <__aeabi_dmul+0x24a>
 80006ee:	ea94 0f0c 	teq	r4, ip
 80006f2:	d102      	bne.n	80006fa <__aeabi_dmul+0x222>
 80006f4:	ea50 3601 	orrs.w	r6, r0, r1, lsl #12
 80006f8:	d113      	bne.n	8000722 <__aeabi_dmul+0x24a>
 80006fa:	ea95 0f0c 	teq	r5, ip
 80006fe:	d105      	bne.n	800070c <__aeabi_dmul+0x234>
 8000700:	ea52 3603 	orrs.w	r6, r2, r3, lsl #12
 8000704:	bf1c      	itt	ne
 8000706:	4610      	movne	r0, r2
 8000708:	4619      	movne	r1, r3
 800070a:	d10a      	bne.n	8000722 <__aeabi_dmul+0x24a>
 800070c:	ea81 0103 	eor.w	r1, r1, r3
 8000710:	f001 4100 	and.w	r1, r1, #2147483648	@ 0x80000000
 8000714:	f041 41fe 	orr.w	r1, r1, #2130706432	@ 0x7f000000
 8000718:	f441 0170 	orr.w	r1, r1, #15728640	@ 0xf00000
 800071c:	f04f 0000 	mov.w	r0, #0
 8000720:	bd70      	pop	{r4, r5, r6, pc}
 8000722:	f041 41fe 	orr.w	r1, r1, #2130706432	@ 0x7f000000
 8000726:	f441 0178 	orr.w	r1, r1, #16252928	@ 0xf80000
 800072a:	bd70      	pop	{r4, r5, r6, pc}

0800072c <__aeabi_ddiv>:
 800072c:	b570      	push	{r4, r5, r6, lr}
 800072e:	f04f 0cff 	mov.w	ip, #255	@ 0xff
 8000732:	f44c 6ce0 	orr.w	ip, ip, #1792	@ 0x700
 8000736:	ea1c 5411 	ands.w	r4, ip, r1, lsr #20
 800073a:	bf1d      	ittte	ne
 800073c:	ea1c 5513 	andsne.w	r5, ip, r3, lsr #20
 8000740:	ea94 0f0c 	teqne	r4, ip
 8000744:	ea95 0f0c 	teqne	r5, ip
 8000748:	f000 f8a7 	bleq	800089a <__aeabi_ddiv+0x16e>
 800074c:	eba4 0405 	sub.w	r4, r4, r5
 8000750:	ea81 0e03 	eor.w	lr, r1, r3
 8000754:	ea52 3503 	orrs.w	r5, r2, r3, lsl #12
 8000758:	ea4f 3101 	mov.w	r1, r1, lsl #12
 800075c:	f000 8088 	beq.w	8000870 <__aeabi_ddiv+0x144>
 8000760:	ea4f 3303 	mov.w	r3, r3, lsl #12
 8000764:	f04f 5580 	mov.w	r5, #268435456	@ 0x10000000
 8000768:	ea45 1313 	orr.w	r3, r5, r3, lsr #4
 800076c:	ea43 6312 	orr.w	r3, r3, r2, lsr #24
 8000770:	ea4f 2202 	mov.w	r2, r2, lsl #8
 8000774:	ea45 1511 	orr.w	r5, r5, r1, lsr #4
 8000778:	ea45 6510 	orr.w	r5, r5, r0, lsr #24
 800077c:	ea4f 2600 	mov.w	r6, r0, lsl #8
 8000780:	f00e 4100 	and.w	r1, lr, #2147483648	@ 0x80000000
 8000784:	429d      	cmp	r5, r3
 8000786:	bf08      	it	eq
 8000788:	4296      	cmpeq	r6, r2
 800078a:	f144 04fd 	adc.w	r4, r4, #253	@ 0xfd
 800078e:	f504 7440 	add.w	r4, r4, #768	@ 0x300
 8000792:	d202      	bcs.n	800079a <__aeabi_ddiv+0x6e>
 8000794:	085b      	lsrs	r3, r3, #1
 8000796:	ea4f 0232 	mov.w	r2, r2, rrx
 800079a:	1ab6      	subs	r6, r6, r2
 800079c:	eb65 0503 	sbc.w	r5, r5, r3
 80007a0:	085b      	lsrs	r3, r3, #1
 80007a2:	ea4f 0232 	mov.w	r2, r2, rrx
 80007a6:	f44f 1080 	mov.w	r0, #1048576	@ 0x100000
 80007aa:	f44f 2c00 	mov.w	ip, #524288	@ 0x80000
 80007ae:	ebb6 0e02 	subs.w	lr, r6, r2
 80007b2:	eb75 0e03 	sbcs.w	lr, r5, r3
 80007b6:	bf22      	ittt	cs
 80007b8:	1ab6      	subcs	r6, r6, r2
 80007ba:	4675      	movcs	r5, lr
 80007bc:	ea40 000c 	orrcs.w	r0, r0, ip
 80007c0:	085b      	lsrs	r3, r3, #1
 80007c2:	ea4f 0232 	mov.w	r2, r2, rrx
 80007c6:	ebb6 0e02 	subs.w	lr, r6, r2
 80007ca:	eb75 0e03 	sbcs.w	lr, r5, r3
 80007ce:	bf22      	ittt	cs
 80007d0:	1ab6      	subcs	r6, r6, r2
 80007d2:	4675      	movcs	r5, lr
 80007d4:	ea40 005c 	orrcs.w	r0, r0, ip, lsr #1
 80007d8:	085b      	lsrs	r3, r3, #1
 80007da:	ea4f 0232 	mov.w	r2, r2, rrx
 80007de:	ebb6 0e02 	subs.w	lr, r6, r2
 80007e2:	eb75 0e03 	sbcs.w	lr, r5, r3
 80007e6:	bf22      	ittt	cs
 80007e8:	1ab6      	subcs	r6, r6, r2
 80007ea:	4675      	movcs	r5, lr
 80007ec:	ea40 009c 	orrcs.w	r0, r0, ip, lsr #2
 80007f0:	085b      	lsrs	r3, r3, #1
 80007f2:	ea4f 0232 	mov.w	r2, r2, rrx
 80007f6:	ebb6 0e02 	subs.w	lr, r6, r2
 80007fa:	eb75 0e03 	sbcs.w	lr, r5, r3
 80007fe:	bf22      	ittt	cs
 8000800:	1ab6      	subcs	r6, r6, r2
 8000802:	4675      	movcs	r5, lr
 8000804:	ea40 00dc 	orrcs.w	r0, r0, ip, lsr #3
 8000808:	ea55 0e06 	orrs.w	lr, r5, r6
 800080c:	d018      	beq.n	8000840 <__aeabi_ddiv+0x114>
 800080e:	ea4f 1505 	mov.w	r5, r5, lsl #4
 8000812:	ea45 7516 	orr.w	r5, r5, r6, lsr #28
 8000816:	ea4f 1606 	mov.w	r6, r6, lsl #4
 800081a:	ea4f 03c3 	mov.w	r3, r3, lsl #3
 800081e:	ea43 7352 	orr.w	r3, r3, r2, lsr #29
 8000822:	ea4f 02c2 	mov.w	r2, r2, lsl #3
 8000826:	ea5f 1c1c 	movs.w	ip, ip, lsr #4
 800082a:	d1c0      	bne.n	80007ae <__aeabi_ddiv+0x82>
 800082c:	f411 1f80 	tst.w	r1, #1048576	@ 0x100000
 8000830:	d10b      	bne.n	800084a <__aeabi_ddiv+0x11e>
 8000832:	ea41 0100 	orr.w	r1, r1, r0
 8000836:	f04f 0000 	mov.w	r0, #0
 800083a:	f04f 4c00 	mov.w	ip, #2147483648	@ 0x80000000
 800083e:	e7b6      	b.n	80007ae <__aeabi_ddiv+0x82>
 8000840:	f411 1f80 	tst.w	r1, #1048576	@ 0x100000
 8000844:	bf04      	itt	eq
 8000846:	4301      	orreq	r1, r0
 8000848:	2000      	moveq	r0, #0
 800084a:	f1b4 0cfd 	subs.w	ip, r4, #253	@ 0xfd
 800084e:	bf88      	it	hi
 8000850:	f5bc 6fe0 	cmphi.w	ip, #1792	@ 0x700
 8000854:	f63f aeaf 	bhi.w	80005b6 <__aeabi_dmul+0xde>
 8000858:	ebb5 0c03 	subs.w	ip, r5, r3
 800085c:	bf04      	itt	eq
 800085e:	ebb6 0c02 	subseq.w	ip, r6, r2
 8000862:	ea5f 0c50 	movseq.w	ip, r0, lsr #1
 8000866:	f150 0000 	adcs.w	r0, r0, #0
 800086a:	eb41 5104 	adc.w	r1, r1, r4, lsl #20
 800086e:	bd70      	pop	{r4, r5, r6, pc}
 8000870:	f00e 4e00 	and.w	lr, lr, #2147483648	@ 0x80000000
 8000874:	ea4e 3111 	orr.w	r1, lr, r1, lsr #12
 8000878:	eb14 045c 	adds.w	r4, r4, ip, lsr #1
 800087c:	bfc2      	ittt	gt
 800087e:	ebd4 050c 	rsbsgt	r5, r4, ip
 8000882:	ea41 5104 	orrgt.w	r1, r1, r4, lsl #20
 8000886:	bd70      	popgt	{r4, r5, r6, pc}
 8000888:	f441 1180 	orr.w	r1, r1, #1048576	@ 0x100000
 800088c:	f04f 0e00 	mov.w	lr, #0
 8000890:	3c01      	subs	r4, #1
 8000892:	e690      	b.n	80005b6 <__aeabi_dmul+0xde>
 8000894:	ea45 0e06 	orr.w	lr, r5, r6
 8000898:	e68d      	b.n	80005b6 <__aeabi_dmul+0xde>
 800089a:	ea0c 5513 	and.w	r5, ip, r3, lsr #20
 800089e:	ea94 0f0c 	teq	r4, ip
 80008a2:	bf08      	it	eq
 80008a4:	ea95 0f0c 	teqeq	r5, ip
 80008a8:	f43f af3b 	beq.w	8000722 <__aeabi_dmul+0x24a>
 80008ac:	ea94 0f0c 	teq	r4, ip
 80008b0:	d10a      	bne.n	80008c8 <__aeabi_ddiv+0x19c>
 80008b2:	ea50 3401 	orrs.w	r4, r0, r1, lsl #12
 80008b6:	f47f af34 	bne.w	8000722 <__aeabi_dmul+0x24a>
 80008ba:	ea95 0f0c 	teq	r5, ip
 80008be:	f47f af25 	bne.w	800070c <__aeabi_dmul+0x234>
 80008c2:	4610      	mov	r0, r2
 80008c4:	4619      	mov	r1, r3
 80008c6:	e72c      	b.n	8000722 <__aeabi_dmul+0x24a>
 80008c8:	ea95 0f0c 	teq	r5, ip
 80008cc:	d106      	bne.n	80008dc <__aeabi_ddiv+0x1b0>
 80008ce:	ea52 3503 	orrs.w	r5, r2, r3, lsl #12
 80008d2:	f43f aefd 	beq.w	80006d0 <__aeabi_dmul+0x1f8>
 80008d6:	4610      	mov	r0, r2
 80008d8:	4619      	mov	r1, r3
 80008da:	e722      	b.n	8000722 <__aeabi_dmul+0x24a>
 80008dc:	ea50 0641 	orrs.w	r6, r0, r1, lsl #1
 80008e0:	bf18      	it	ne
 80008e2:	ea52 0643 	orrsne.w	r6, r2, r3, lsl #1
 80008e6:	f47f aec5 	bne.w	8000674 <__aeabi_dmul+0x19c>
 80008ea:	ea50 0441 	orrs.w	r4, r0, r1, lsl #1
 80008ee:	f47f af0d 	bne.w	800070c <__aeabi_dmul+0x234>
 80008f2:	ea52 0543 	orrs.w	r5, r2, r3, lsl #1
 80008f6:	f47f aeeb 	bne.w	80006d0 <__aeabi_dmul+0x1f8>
 80008fa:	e712      	b.n	8000722 <__aeabi_dmul+0x24a>

080008fc <__gedf2>:
 80008fc:	f04f 3cff 	mov.w	ip, #4294967295	@ 0xffffffff
 8000900:	e006      	b.n	8000910 <__cmpdf2+0x4>
 8000902:	bf00      	nop

08000904 <__ledf2>:
 8000904:	f04f 0c01 	mov.w	ip, #1
 8000908:	e002      	b.n	8000910 <__cmpdf2+0x4>
 800090a:	bf00      	nop

0800090c <__cmpdf2>:
 800090c:	f04f 0c01 	mov.w	ip, #1
 8000910:	f84d cd04 	str.w	ip, [sp, #-4]!
 8000914:	ea4f 0c41 	mov.w	ip, r1, lsl #1
 8000918:	ea7f 5c6c 	mvns.w	ip, ip, asr #21
 800091c:	ea4f 0c43 	mov.w	ip, r3, lsl #1
 8000920:	bf18      	it	ne
 8000922:	ea7f 5c6c 	mvnsne.w	ip, ip, asr #21
 8000926:	d01b      	beq.n	8000960 <__cmpdf2+0x54>
 8000928:	b001      	add	sp, #4
 800092a:	ea50 0c41 	orrs.w	ip, r0, r1, lsl #1
 800092e:	bf0c      	ite	eq
 8000930:	ea52 0c43 	orrseq.w	ip, r2, r3, lsl #1
 8000934:	ea91 0f03 	teqne	r1, r3
 8000938:	bf02      	ittt	eq
 800093a:	ea90 0f02 	teqeq	r0, r2
 800093e:	2000      	moveq	r0, #0
 8000940:	4770      	bxeq	lr
 8000942:	f110 0f00 	cmn.w	r0, #0
 8000946:	ea91 0f03 	teq	r1, r3
 800094a:	bf58      	it	pl
 800094c:	4299      	cmppl	r1, r3
 800094e:	bf08      	it	eq
 8000950:	4290      	cmpeq	r0, r2
 8000952:	bf2c      	ite	cs
 8000954:	17d8      	asrcs	r0, r3, #31
 8000956:	ea6f 70e3 	mvncc.w	r0, r3, asr #31
 800095a:	f040 0001 	orr.w	r0, r0, #1
 800095e:	4770      	bx	lr
 8000960:	ea4f 0c41 	mov.w	ip, r1, lsl #1
 8000964:	ea7f 5c6c 	mvns.w	ip, ip, asr #21
 8000968:	d102      	bne.n	8000970 <__cmpdf2+0x64>
 800096a:	ea50 3c01 	orrs.w	ip, r0, r1, lsl #12
 800096e:	d107      	bne.n	8000980 <__cmpdf2+0x74>
 8000970:	ea4f 0c43 	mov.w	ip, r3, lsl #1
 8000974:	ea7f 5c6c 	mvns.w	ip, ip, asr #21
 8000978:	d1d6      	bne.n	8000928 <__cmpdf2+0x1c>
 800097a:	ea52 3c03 	orrs.w	ip, r2, r3, lsl #12
 800097e:	d0d3      	beq.n	8000928 <__cmpdf2+0x1c>
 8000980:	f85d 0b04 	ldr.w	r0, [sp], #4
 8000984:	4770      	bx	lr
 8000986:	bf00      	nop

08000988 <__aeabi_cdrcmple>:
 8000988:	4684      	mov	ip, r0
 800098a:	4610      	mov	r0, r2
 800098c:	4662      	mov	r2, ip
 800098e:	468c      	mov	ip, r1
 8000990:	4619      	mov	r1, r3
 8000992:	4663      	mov	r3, ip
 8000994:	e000      	b.n	8000998 <__aeabi_cdcmpeq>
 8000996:	bf00      	nop

08000998 <__aeabi_cdcmpeq>:
 8000998:	b501      	push	{r0, lr}
 800099a:	f7ff ffb7 	bl	800090c <__cmpdf2>
 800099e:	2800      	cmp	r0, #0
 80009a0:	bf48      	it	mi
 80009a2:	f110 0f00 	cmnmi.w	r0, #0
 80009a6:	bd01      	pop	{r0, pc}

080009a8 <__aeabi_dcmpeq>:
 80009a8:	f84d ed08 	str.w	lr, [sp, #-8]!
 80009ac:	f7ff fff4 	bl	8000998 <__aeabi_cdcmpeq>
 80009b0:	bf0c      	ite	eq
 80009b2:	2001      	moveq	r0, #1
 80009b4:	2000      	movne	r0, #0
 80009b6:	f85d fb08 	ldr.w	pc, [sp], #8
 80009ba:	bf00      	nop

080009bc <__aeabi_dcmplt>:
 80009bc:	f84d ed08 	str.w	lr, [sp, #-8]!
 80009c0:	f7ff ffea 	bl	8000998 <__aeabi_cdcmpeq>
 80009c4:	bf34      	ite	cc
 80009c6:	2001      	movcc	r0, #1
 80009c8:	2000      	movcs	r0, #0
 80009ca:	f85d fb08 	ldr.w	pc, [sp], #8
 80009ce:	bf00      	nop

080009d0 <__aeabi_dcmple>:
 80009d0:	f84d ed08 	str.w	lr, [sp, #-8]!
 80009d4:	f7ff ffe0 	bl	8000998 <__aeabi_cdcmpeq>
 80009d8:	bf94      	ite	ls
 80009da:	2001      	movls	r0, #1
 80009dc:	2000      	movhi	r0, #0
 80009de:	f85d fb08 	ldr.w	pc, [sp], #8
 80009e2:	bf00      	nop

080009e4 <__aeabi_dcmpge>:
 80009e4:	f84d ed08 	str.w	lr, [sp, #-8]!
 80009e8:	f7ff ffce 	bl	8000988 <__aeabi_cdrcmple>
 80009ec:	bf94      	ite	ls
 80009ee:	2001      	movls	r0, #1
 80009f0:	2000      	movhi	r0, #0
 80009f2:	f85d fb08 	ldr.w	pc, [sp], #8
 80009f6:	bf00      	nop

080009f8 <__aeabi_dcmpgt>:
 80009f8:	f84d ed08 	str.w	lr, [sp, #-8]!
 80009fc:	f7ff ffc4 	bl	8000988 <__aeabi_cdrcmple>
 8000a00:	bf34      	ite	cc
 8000a02:	2001      	movcc	r0, #1
 8000a04:	2000      	movcs	r0, #0
 8000a06:	f85d fb08 	ldr.w	pc, [sp], #8
 8000a0a:	bf00      	nop

08000a0c <__aeabi_dcmpun>:
 8000a0c:	ea4f 0c41 	mov.w	ip, r1, lsl #1
 8000a10:	ea7f 5c6c 	mvns.w	ip, ip, asr #21
 8000a14:	d102      	bne.n	8000a1c <__aeabi_dcmpun+0x10>
 8000a16:	ea50 3c01 	orrs.w	ip, r0, r1, lsl #12
 8000a1a:	d10a      	bne.n	8000a32 <__aeabi_dcmpun+0x26>
 8000a1c:	ea4f 0c43 	mov.w	ip, r3, lsl #1
 8000a20:	ea7f 5c6c 	mvns.w	ip, ip, asr #21
 8000a24:	d102      	bne.n	8000a2c <__aeabi_dcmpun+0x20>
 8000a26:	ea52 3c03 	orrs.w	ip, r2, r3, lsl #12
 8000a2a:	d102      	bne.n	8000a32 <__aeabi_dcmpun+0x26>
 8000a2c:	f04f 0000 	mov.w	r0, #0
 8000a30:	4770      	bx	lr
 8000a32:	f04f 0001 	mov.w	r0, #1
 8000a36:	4770      	bx	lr

08000a38 <__aeabi_d2iz>:
 8000a38:	ea4f 0241 	mov.w	r2, r1, lsl #1
 8000a3c:	f512 1200 	adds.w	r2, r2, #2097152	@ 0x200000
 8000a40:	d215      	bcs.n	8000a6e <__aeabi_d2iz+0x36>
 8000a42:	d511      	bpl.n	8000a68 <__aeabi_d2iz+0x30>
 8000a44:	f46f 7378 	mvn.w	r3, #992	@ 0x3e0
 8000a48:	ebb3 5262 	subs.w	r2, r3, r2, asr #21
 8000a4c:	d912      	bls.n	8000a74 <__aeabi_d2iz+0x3c>
 8000a4e:	ea4f 23c1 	mov.w	r3, r1, lsl #11
 8000a52:	f043 4300 	orr.w	r3, r3, #2147483648	@ 0x80000000
 8000a56:	ea43 5350 	orr.w	r3, r3, r0, lsr #21
 8000a5a:	f011 4f00 	tst.w	r1, #2147483648	@ 0x80000000
 8000a5e:	fa23 f002 	lsr.w	r0, r3, r2
 8000a62:	bf18      	it	ne
 8000a64:	4240      	negne	r0, r0
 8000a66:	4770      	bx	lr
 8000a68:	f04f 0000 	mov.w	r0, #0
 8000a6c:	4770      	bx	lr
 8000a6e:	ea50 3001 	orrs.w	r0, r0, r1, lsl #12
 8000a72:	d105      	bne.n	8000a80 <__aeabi_d2iz+0x48>
 8000a74:	f011 4000 	ands.w	r0, r1, #2147483648	@ 0x80000000
 8000a78:	bf08      	it	eq
 8000a7a:	f06f 4000 	mvneq.w	r0, #2147483648	@ 0x80000000
 8000a7e:	4770      	bx	lr
 8000a80:	f04f 0000 	mov.w	r0, #0
 8000a84:	4770      	bx	lr
 8000a86:	bf00      	nop

08000a88 <__aeabi_d2f>:
 8000a88:	ea4f 0241 	mov.w	r2, r1, lsl #1
 8000a8c:	f1b2 43e0 	subs.w	r3, r2, #1879048192	@ 0x70000000
 8000a90:	bf24      	itt	cs
 8000a92:	f5b3 1c00 	subscs.w	ip, r3, #2097152	@ 0x200000
 8000a96:	f1dc 5cfe 	rsbscs	ip, ip, #532676608	@ 0x1fc00000
 8000a9a:	d90d      	bls.n	8000ab8 <__aeabi_d2f+0x30>
 8000a9c:	f001 4c00 	and.w	ip, r1, #2147483648	@ 0x80000000
 8000aa0:	ea4f 02c0 	mov.w	r2, r0, lsl #3
 8000aa4:	ea4c 7050 	orr.w	r0, ip, r0, lsr #29
 8000aa8:	f1b2 4f00 	cmp.w	r2, #2147483648	@ 0x80000000
 8000aac:	eb40 0083 	adc.w	r0, r0, r3, lsl #2
 8000ab0:	bf08      	it	eq
 8000ab2:	f020 0001 	biceq.w	r0, r0, #1
 8000ab6:	4770      	bx	lr
 8000ab8:	f011 4f80 	tst.w	r1, #1073741824	@ 0x40000000
 8000abc:	d121      	bne.n	8000b02 <__aeabi_d2f+0x7a>
 8000abe:	f113 7238 	adds.w	r2, r3, #48234496	@ 0x2e00000
 8000ac2:	bfbc      	itt	lt
 8000ac4:	f001 4000 	andlt.w	r0, r1, #2147483648	@ 0x80000000
 8000ac8:	4770      	bxlt	lr
 8000aca:	f441 1180 	orr.w	r1, r1, #1048576	@ 0x100000
 8000ace:	ea4f 5252 	mov.w	r2, r2, lsr #21
 8000ad2:	f1c2 0218 	rsb	r2, r2, #24
 8000ad6:	f1c2 0c20 	rsb	ip, r2, #32
 8000ada:	fa10 f30c 	lsls.w	r3, r0, ip
 8000ade:	fa20 f002 	lsr.w	r0, r0, r2
 8000ae2:	bf18      	it	ne
 8000ae4:	f040 0001 	orrne.w	r0, r0, #1
 8000ae8:	ea4f 23c1 	mov.w	r3, r1, lsl #11
 8000aec:	ea4f 23d3 	mov.w	r3, r3, lsr #11
 8000af0:	fa03 fc0c 	lsl.w	ip, r3, ip
 8000af4:	ea40 000c 	orr.w	r0, r0, ip
 8000af8:	fa23 f302 	lsr.w	r3, r3, r2
 8000afc:	ea4f 0343 	mov.w	r3, r3, lsl #1
 8000b00:	e7cc      	b.n	8000a9c <__aeabi_d2f+0x14>
 8000b02:	ea7f 5362 	mvns.w	r3, r2, asr #21
 8000b06:	d107      	bne.n	8000b18 <__aeabi_d2f+0x90>
 8000b08:	ea50 3301 	orrs.w	r3, r0, r1, lsl #12
 8000b0c:	bf1e      	ittt	ne
 8000b0e:	f04f 40fe 	movne.w	r0, #2130706432	@ 0x7f000000
 8000b12:	f440 0040 	orrne.w	r0, r0, #12582912	@ 0xc00000
 8000b16:	4770      	bxne	lr
 8000b18:	f001 4000 	and.w	r0, r1, #2147483648	@ 0x80000000
 8000b1c:	f040 40fe 	orr.w	r0, r0, #2130706432	@ 0x7f000000
 8000b20:	f440 0000 	orr.w	r0, r0, #8388608	@ 0x800000
 8000b24:	4770      	bx	lr
 8000b26:	bf00      	nop

08000b28 <__aeabi_frsub>:
 8000b28:	f080 4000 	eor.w	r0, r0, #2147483648	@ 0x80000000
 8000b2c:	e002      	b.n	8000b34 <__addsf3>
 8000b2e:	bf00      	nop

08000b30 <__aeabi_fsub>:
 8000b30:	f081 4100 	eor.w	r1, r1, #2147483648	@ 0x80000000

08000b34 <__addsf3>:
 8000b34:	0042      	lsls	r2, r0, #1
 8000b36:	bf1f      	itttt	ne
 8000b38:	ea5f 0341 	movsne.w	r3, r1, lsl #1
 8000b3c:	ea92 0f03 	teqne	r2, r3
 8000b40:	ea7f 6c22 	mvnsne.w	ip, r2, asr #24
 8000b44:	ea7f 6c23 	mvnsne.w	ip, r3, asr #24
 8000b48:	d06a      	beq.n	8000c20 <__addsf3+0xec>
 8000b4a:	ea4f 6212 	mov.w	r2, r2, lsr #24
 8000b4e:	ebd2 6313 	rsbs	r3, r2, r3, lsr #24
 8000b52:	bfc1      	itttt	gt
 8000b54:	18d2      	addgt	r2, r2, r3
 8000b56:	4041      	eorgt	r1, r0
 8000b58:	4048      	eorgt	r0, r1
 8000b5a:	4041      	eorgt	r1, r0
 8000b5c:	bfb8      	it	lt
 8000b5e:	425b      	neglt	r3, r3
 8000b60:	2b19      	cmp	r3, #25
 8000b62:	bf88      	it	hi
 8000b64:	4770      	bxhi	lr
 8000b66:	f010 4f00 	tst.w	r0, #2147483648	@ 0x80000000
 8000b6a:	f440 0000 	orr.w	r0, r0, #8388608	@ 0x800000
 8000b6e:	f020 407f 	bic.w	r0, r0, #4278190080	@ 0xff000000
 8000b72:	bf18      	it	ne
 8000b74:	4240      	negne	r0, r0
 8000b76:	f011 4f00 	tst.w	r1, #2147483648	@ 0x80000000
 8000b7a:	f441 0100 	orr.w	r1, r1, #8388608	@ 0x800000
 8000b7e:	f021 417f 	bic.w	r1, r1, #4278190080	@ 0xff000000
 8000b82:	bf18      	it	ne
 8000b84:	4249      	negne	r1, r1
 8000b86:	ea92 0f03 	teq	r2, r3
 8000b8a:	d03f      	beq.n	8000c0c <__addsf3+0xd8>
 8000b8c:	f1a2 0201 	sub.w	r2, r2, #1
 8000b90:	fa41 fc03 	asr.w	ip, r1, r3
 8000b94:	eb10 000c 	adds.w	r0, r0, ip
 8000b98:	f1c3 0320 	rsb	r3, r3, #32
 8000b9c:	fa01 f103 	lsl.w	r1, r1, r3
 8000ba0:	f000 4300 	and.w	r3, r0, #2147483648	@ 0x80000000
 8000ba4:	d502      	bpl.n	8000bac <__addsf3+0x78>
 8000ba6:	4249      	negs	r1, r1
 8000ba8:	eb60 0040 	sbc.w	r0, r0, r0, lsl #1
 8000bac:	f5b0 0f00 	cmp.w	r0, #8388608	@ 0x800000
 8000bb0:	d313      	bcc.n	8000bda <__addsf3+0xa6>
 8000bb2:	f1b0 7f80 	cmp.w	r0, #16777216	@ 0x1000000
 8000bb6:	d306      	bcc.n	8000bc6 <__addsf3+0x92>
 8000bb8:	0840      	lsrs	r0, r0, #1
 8000bba:	ea4f 0131 	mov.w	r1, r1, rrx
 8000bbe:	f102 0201 	add.w	r2, r2, #1
 8000bc2:	2afe      	cmp	r2, #254	@ 0xfe
 8000bc4:	d251      	bcs.n	8000c6a <__addsf3+0x136>
 8000bc6:	f1b1 4f00 	cmp.w	r1, #2147483648	@ 0x80000000
 8000bca:	eb40 50c2 	adc.w	r0, r0, r2, lsl #23
 8000bce:	bf08      	it	eq
 8000bd0:	f020 0001 	biceq.w	r0, r0, #1
 8000bd4:	ea40 0003 	orr.w	r0, r0, r3
 8000bd8:	4770      	bx	lr
 8000bda:	0049      	lsls	r1, r1, #1
 8000bdc:	eb40 0000 	adc.w	r0, r0, r0
 8000be0:	3a01      	subs	r2, #1
 8000be2:	bf28      	it	cs
 8000be4:	f5b0 0f00 	cmpcs.w	r0, #8388608	@ 0x800000
 8000be8:	d2ed      	bcs.n	8000bc6 <__addsf3+0x92>
 8000bea:	fab0 fc80 	clz	ip, r0
 8000bee:	f1ac 0c08 	sub.w	ip, ip, #8
 8000bf2:	ebb2 020c 	subs.w	r2, r2, ip
 8000bf6:	fa00 f00c 	lsl.w	r0, r0, ip
 8000bfa:	bfaa      	itet	ge
 8000bfc:	eb00 50c2 	addge.w	r0, r0, r2, lsl #23
 8000c00:	4252      	neglt	r2, r2
 8000c02:	4318      	orrge	r0, r3
 8000c04:	bfbc      	itt	lt
 8000c06:	40d0      	lsrlt	r0, r2
 8000c08:	4318      	orrlt	r0, r3
 8000c0a:	4770      	bx	lr
 8000c0c:	f092 0f00 	teq	r2, #0
 8000c10:	f481 0100 	eor.w	r1, r1, #8388608	@ 0x800000
 8000c14:	bf06      	itte	eq
 8000c16:	f480 0000 	eoreq.w	r0, r0, #8388608	@ 0x800000
 8000c1a:	3201      	addeq	r2, #1
 8000c1c:	3b01      	subne	r3, #1
 8000c1e:	e7b5      	b.n	8000b8c <__addsf3+0x58>
 8000c20:	ea4f 0341 	mov.w	r3, r1, lsl #1
 8000c24:	ea7f 6c22 	mvns.w	ip, r2, asr #24
 8000c28:	bf18      	it	ne
 8000c2a:	ea7f 6c23 	mvnsne.w	ip, r3, asr #24
 8000c2e:	d021      	beq.n	8000c74 <__addsf3+0x140>
 8000c30:	ea92 0f03 	teq	r2, r3
 8000c34:	d004      	beq.n	8000c40 <__addsf3+0x10c>
 8000c36:	f092 0f00 	teq	r2, #0
 8000c3a:	bf08      	it	eq
 8000c3c:	4608      	moveq	r0, r1
 8000c3e:	4770      	bx	lr
 8000c40:	ea90 0f01 	teq	r0, r1
 8000c44:	bf1c      	itt	ne
 8000c46:	2000      	movne	r0, #0
 8000c48:	4770      	bxne	lr
 8000c4a:	f012 4f7f 	tst.w	r2, #4278190080	@ 0xff000000
 8000c4e:	d104      	bne.n	8000c5a <__addsf3+0x126>
 8000c50:	0040      	lsls	r0, r0, #1
 8000c52:	bf28      	it	cs
 8000c54:	f040 4000 	orrcs.w	r0, r0, #2147483648	@ 0x80000000
 8000c58:	4770      	bx	lr
 8000c5a:	f112 7200 	adds.w	r2, r2, #33554432	@ 0x2000000
 8000c5e:	bf3c      	itt	cc
 8000c60:	f500 0000 	addcc.w	r0, r0, #8388608	@ 0x800000
 8000c64:	4770      	bxcc	lr
 8000c66:	f000 4300 	and.w	r3, r0, #2147483648	@ 0x80000000
 8000c6a:	f043 40fe 	orr.w	r0, r3, #2130706432	@ 0x7f000000
 8000c6e:	f440 0000 	orr.w	r0, r0, #8388608	@ 0x800000
 8000c72:	4770      	bx	lr
 8000c74:	ea7f 6222 	mvns.w	r2, r2, asr #24
 8000c78:	bf16      	itet	ne
 8000c7a:	4608      	movne	r0, r1
 8000c7c:	ea7f 6323 	mvnseq.w	r3, r3, asr #24
 8000c80:	4601      	movne	r1, r0
 8000c82:	0242      	lsls	r2, r0, #9
 8000c84:	bf06      	itte	eq
 8000c86:	ea5f 2341 	movseq.w	r3, r1, lsl #9
 8000c8a:	ea90 0f01 	teqeq	r0, r1
 8000c8e:	f440 0080 	orrne.w	r0, r0, #4194304	@ 0x400000
 8000c92:	4770      	bx	lr

08000c94 <__aeabi_ui2f>:
 8000c94:	f04f 0300 	mov.w	r3, #0
 8000c98:	e004      	b.n	8000ca4 <__aeabi_i2f+0x8>
 8000c9a:	bf00      	nop

08000c9c <__aeabi_i2f>:
 8000c9c:	f010 4300 	ands.w	r3, r0, #2147483648	@ 0x80000000
 8000ca0:	bf48      	it	mi
 8000ca2:	4240      	negmi	r0, r0
 8000ca4:	ea5f 0c00 	movs.w	ip, r0
 8000ca8:	bf08      	it	eq
 8000caa:	4770      	bxeq	lr
 8000cac:	f043 4396 	orr.w	r3, r3, #1258291200	@ 0x4b000000
 8000cb0:	4601      	mov	r1, r0
 8000cb2:	f04f 0000 	mov.w	r0, #0
 8000cb6:	e01c      	b.n	8000cf2 <__aeabi_l2f+0x2a>

08000cb8 <__aeabi_ul2f>:
 8000cb8:	ea50 0201 	orrs.w	r2, r0, r1
 8000cbc:	bf08      	it	eq
 8000cbe:	4770      	bxeq	lr
 8000cc0:	f04f 0300 	mov.w	r3, #0
 8000cc4:	e00a      	b.n	8000cdc <__aeabi_l2f+0x14>
 8000cc6:	bf00      	nop

08000cc8 <__aeabi_l2f>:
 8000cc8:	ea50 0201 	orrs.w	r2, r0, r1
 8000ccc:	bf08      	it	eq
 8000cce:	4770      	bxeq	lr
 8000cd0:	f011 4300 	ands.w	r3, r1, #2147483648	@ 0x80000000
 8000cd4:	d502      	bpl.n	8000cdc <__aeabi_l2f+0x14>
 8000cd6:	4240      	negs	r0, r0
 8000cd8:	eb61 0141 	sbc.w	r1, r1, r1, lsl #1
 8000cdc:	ea5f 0c01 	movs.w	ip, r1
 8000ce0:	bf02      	ittt	eq
 8000ce2:	4684      	moveq	ip, r0
 8000ce4:	4601      	moveq	r1, r0
 8000ce6:	2000      	moveq	r0, #0
 8000ce8:	f043 43b6 	orr.w	r3, r3, #1526726656	@ 0x5b000000
 8000cec:	bf08      	it	eq
 8000cee:	f1a3 5380 	subeq.w	r3, r3, #268435456	@ 0x10000000
 8000cf2:	f5a3 0300 	sub.w	r3, r3, #8388608	@ 0x800000
 8000cf6:	fabc f28c 	clz	r2, ip
 8000cfa:	3a08      	subs	r2, #8
 8000cfc:	eba3 53c2 	sub.w	r3, r3, r2, lsl #23
 8000d00:	db10      	blt.n	8000d24 <__aeabi_l2f+0x5c>
 8000d02:	fa01 fc02 	lsl.w	ip, r1, r2
 8000d06:	4463      	add	r3, ip
 8000d08:	fa00 fc02 	lsl.w	ip, r0, r2
 8000d0c:	f1c2 0220 	rsb	r2, r2, #32
 8000d10:	f1bc 4f00 	cmp.w	ip, #2147483648	@ 0x80000000
 8000d14:	fa20 f202 	lsr.w	r2, r0, r2
 8000d18:	eb43 0002 	adc.w	r0, r3, r2
 8000d1c:	bf08      	it	eq
 8000d1e:	f020 0001 	biceq.w	r0, r0, #1
 8000d22:	4770      	bx	lr
 8000d24:	f102 0220 	add.w	r2, r2, #32
 8000d28:	fa01 fc02 	lsl.w	ip, r1, r2
 8000d2c:	f1c2 0220 	rsb	r2, r2, #32
 8000d30:	ea50 004c 	orrs.w	r0, r0, ip, lsl #1
 8000d34:	fa21 f202 	lsr.w	r2, r1, r2
 8000d38:	eb43 0002 	adc.w	r0, r3, r2
 8000d3c:	bf08      	it	eq
 8000d3e:	ea20 70dc 	biceq.w	r0, r0, ip, lsr #31
 8000d42:	4770      	bx	lr

08000d44 <__aeabi_fmul>:
 8000d44:	f04f 0cff 	mov.w	ip, #255	@ 0xff
 8000d48:	ea1c 52d0 	ands.w	r2, ip, r0, lsr #23
 8000d4c:	bf1e      	ittt	ne
 8000d4e:	ea1c 53d1 	andsne.w	r3, ip, r1, lsr #23
 8000d52:	ea92 0f0c 	teqne	r2, ip
 8000d56:	ea93 0f0c 	teqne	r3, ip
 8000d5a:	d06f      	beq.n	8000e3c <__aeabi_fmul+0xf8>
 8000d5c:	441a      	add	r2, r3
 8000d5e:	ea80 0c01 	eor.w	ip, r0, r1
 8000d62:	0240      	lsls	r0, r0, #9
 8000d64:	bf18      	it	ne
 8000d66:	ea5f 2141 	movsne.w	r1, r1, lsl #9
 8000d6a:	d01e      	beq.n	8000daa <__aeabi_fmul+0x66>
 8000d6c:	f04f 6300 	mov.w	r3, #134217728	@ 0x8000000
 8000d70:	ea43 1050 	orr.w	r0, r3, r0, lsr #5
 8000d74:	ea43 1151 	orr.w	r1, r3, r1, lsr #5
 8000d78:	fba0 3101 	umull	r3, r1, r0, r1
 8000d7c:	f00c 4000 	and.w	r0, ip, #2147483648	@ 0x80000000
 8000d80:	f5b1 0f00 	cmp.w	r1, #8388608	@ 0x800000
 8000d84:	bf3e      	ittt	cc
 8000d86:	0049      	lslcc	r1, r1, #1
 8000d88:	ea41 71d3 	orrcc.w	r1, r1, r3, lsr #31
 8000d8c:	005b      	lslcc	r3, r3, #1
 8000d8e:	ea40 0001 	orr.w	r0, r0, r1
 8000d92:	f162 027f 	sbc.w	r2, r2, #127	@ 0x7f
 8000d96:	2afd      	cmp	r2, #253	@ 0xfd
 8000d98:	d81d      	bhi.n	8000dd6 <__aeabi_fmul+0x92>
 8000d9a:	f1b3 4f00 	cmp.w	r3, #2147483648	@ 0x80000000
 8000d9e:	eb40 50c2 	adc.w	r0, r0, r2, lsl #23
 8000da2:	bf08      	it	eq
 8000da4:	f020 0001 	biceq.w	r0, r0, #1
 8000da8:	4770      	bx	lr
 8000daa:	f090 0f00 	teq	r0, #0
 8000dae:	f00c 4c00 	and.w	ip, ip, #2147483648	@ 0x80000000
 8000db2:	bf08      	it	eq
 8000db4:	0249      	lsleq	r1, r1, #9
 8000db6:	ea4c 2050 	orr.w	r0, ip, r0, lsr #9
 8000dba:	ea40 2051 	orr.w	r0, r0, r1, lsr #9
 8000dbe:	3a7f      	subs	r2, #127	@ 0x7f
 8000dc0:	bfc2      	ittt	gt
 8000dc2:	f1d2 03ff 	rsbsgt	r3, r2, #255	@ 0xff
 8000dc6:	ea40 50c2 	orrgt.w	r0, r0, r2, lsl #23
 8000dca:	4770      	bxgt	lr
 8000dcc:	f440 0000 	orr.w	r0, r0, #8388608	@ 0x800000
 8000dd0:	f04f 0300 	mov.w	r3, #0
 8000dd4:	3a01      	subs	r2, #1
 8000dd6:	dc5d      	bgt.n	8000e94 <__aeabi_fmul+0x150>
 8000dd8:	f112 0f19 	cmn.w	r2, #25
 8000ddc:	bfdc      	itt	le
 8000dde:	f000 4000 	andle.w	r0, r0, #2147483648	@ 0x80000000
 8000de2:	4770      	bxle	lr
 8000de4:	f1c2 0200 	rsb	r2, r2, #0
 8000de8:	0041      	lsls	r1, r0, #1
 8000dea:	fa21 f102 	lsr.w	r1, r1, r2
 8000dee:	f1c2 0220 	rsb	r2, r2, #32
 8000df2:	fa00 fc02 	lsl.w	ip, r0, r2
 8000df6:	ea5f 0031 	movs.w	r0, r1, rrx
 8000dfa:	f140 0000 	adc.w	r0, r0, #0
 8000dfe:	ea53 034c 	orrs.w	r3, r3, ip, lsl #1
 8000e02:	bf08      	it	eq
 8000e04:	ea20 70dc 	biceq.w	r0, r0, ip, lsr #31
 8000e08:	4770      	bx	lr
 8000e0a:	f092 0f00 	teq	r2, #0
 8000e0e:	f000 4c00 	and.w	ip, r0, #2147483648	@ 0x80000000
 8000e12:	bf02      	ittt	eq
 8000e14:	0040      	lsleq	r0, r0, #1
 8000e16:	f410 0f00 	tsteq.w	r0, #8388608	@ 0x800000
 8000e1a:	3a01      	subeq	r2, #1
 8000e1c:	d0f9      	beq.n	8000e12 <__aeabi_fmul+0xce>
 8000e1e:	ea40 000c 	orr.w	r0, r0, ip
 8000e22:	f093 0f00 	teq	r3, #0
 8000e26:	f001 4c00 	and.w	ip, r1, #2147483648	@ 0x80000000
 8000e2a:	bf02      	ittt	eq
 8000e2c:	0049      	lsleq	r1, r1, #1
 8000e2e:	f411 0f00 	tsteq.w	r1, #8388608	@ 0x800000
 8000e32:	3b01      	subeq	r3, #1
 8000e34:	d0f9      	beq.n	8000e2a <__aeabi_fmul+0xe6>
 8000e36:	ea41 010c 	orr.w	r1, r1, ip
 8000e3a:	e78f      	b.n	8000d5c <__aeabi_fmul+0x18>
 8000e3c:	ea0c 53d1 	and.w	r3, ip, r1, lsr #23
 8000e40:	ea92 0f0c 	teq	r2, ip
 8000e44:	bf18      	it	ne
 8000e46:	ea93 0f0c 	teqne	r3, ip
 8000e4a:	d00a      	beq.n	8000e62 <__aeabi_fmul+0x11e>
 8000e4c:	f030 4c00 	bics.w	ip, r0, #2147483648	@ 0x80000000
 8000e50:	bf18      	it	ne
 8000e52:	f031 4c00 	bicsne.w	ip, r1, #2147483648	@ 0x80000000
 8000e56:	d1d8      	bne.n	8000e0a <__aeabi_fmul+0xc6>
 8000e58:	ea80 0001 	eor.w	r0, r0, r1
 8000e5c:	f000 4000 	and.w	r0, r0, #2147483648	@ 0x80000000
 8000e60:	4770      	bx	lr
 8000e62:	f090 0f00 	teq	r0, #0
 8000e66:	bf17      	itett	ne
 8000e68:	f090 4f00 	teqne	r0, #2147483648	@ 0x80000000
 8000e6c:	4608      	moveq	r0, r1
 8000e6e:	f091 0f00 	teqne	r1, #0
 8000e72:	f091 4f00 	teqne	r1, #2147483648	@ 0x80000000
 8000e76:	d014      	beq.n	8000ea2 <__aeabi_fmul+0x15e>
 8000e78:	ea92 0f0c 	teq	r2, ip
 8000e7c:	d101      	bne.n	8000e82 <__aeabi_fmul+0x13e>
 8000e7e:	0242      	lsls	r2, r0, #9
 8000e80:	d10f      	bne.n	8000ea2 <__aeabi_fmul+0x15e>
 8000e82:	ea93 0f0c 	teq	r3, ip
 8000e86:	d103      	bne.n	8000e90 <__aeabi_fmul+0x14c>
 8000e88:	024b      	lsls	r3, r1, #9
 8000e8a:	bf18      	it	ne
 8000e8c:	4608      	movne	r0, r1
 8000e8e:	d108      	bne.n	8000ea2 <__aeabi_fmul+0x15e>
 8000e90:	ea80 0001 	eor.w	r0, r0, r1
 8000e94:	f000 4000 	and.w	r0, r0, #2147483648	@ 0x80000000
 8000e98:	f040 40fe 	orr.w	r0, r0, #2130706432	@ 0x7f000000
 8000e9c:	f440 0000 	orr.w	r0, r0, #8388608	@ 0x800000
 8000ea0:	4770      	bx	lr
 8000ea2:	f040 40fe 	orr.w	r0, r0, #2130706432	@ 0x7f000000
 8000ea6:	f440 0040 	orr.w	r0, r0, #12582912	@ 0xc00000
 8000eaa:	4770      	bx	lr

08000eac <__aeabi_fdiv>:
 8000eac:	f04f 0cff 	mov.w	ip, #255	@ 0xff
 8000eb0:	ea1c 52d0 	ands.w	r2, ip, r0, lsr #23
 8000eb4:	bf1e      	ittt	ne
 8000eb6:	ea1c 53d1 	andsne.w	r3, ip, r1, lsr #23
 8000eba:	ea92 0f0c 	teqne	r2, ip
 8000ebe:	ea93 0f0c 	teqne	r3, ip
 8000ec2:	d069      	beq.n	8000f98 <__aeabi_fdiv+0xec>
 8000ec4:	eba2 0203 	sub.w	r2, r2, r3
 8000ec8:	ea80 0c01 	eor.w	ip, r0, r1
 8000ecc:	0249      	lsls	r1, r1, #9
 8000ece:	ea4f 2040 	mov.w	r0, r0, lsl #9
 8000ed2:	d037      	beq.n	8000f44 <__aeabi_fdiv+0x98>
 8000ed4:	f04f 5380 	mov.w	r3, #268435456	@ 0x10000000
 8000ed8:	ea43 1111 	orr.w	r1, r3, r1, lsr #4
 8000edc:	ea43 1310 	orr.w	r3, r3, r0, lsr #4
 8000ee0:	f00c 4000 	and.w	r0, ip, #2147483648	@ 0x80000000
 8000ee4:	428b      	cmp	r3, r1
 8000ee6:	bf38      	it	cc
 8000ee8:	005b      	lslcc	r3, r3, #1
 8000eea:	f142 027d 	adc.w	r2, r2, #125	@ 0x7d
 8000eee:	f44f 0c00 	mov.w	ip, #8388608	@ 0x800000
 8000ef2:	428b      	cmp	r3, r1
 8000ef4:	bf24      	itt	cs
 8000ef6:	1a5b      	subcs	r3, r3, r1
 8000ef8:	ea40 000c 	orrcs.w	r0, r0, ip
 8000efc:	ebb3 0f51 	cmp.w	r3, r1, lsr #1
 8000f00:	bf24      	itt	cs
 8000f02:	eba3 0351 	subcs.w	r3, r3, r1, lsr #1
 8000f06:	ea40 005c 	orrcs.w	r0, r0, ip, lsr #1
 8000f0a:	ebb3 0f91 	cmp.w	r3, r1, lsr #2
 8000f0e:	bf24      	itt	cs
 8000f10:	eba3 0391 	subcs.w	r3, r3, r1, lsr #2
 8000f14:	ea40 009c 	orrcs.w	r0, r0, ip, lsr #2
 8000f18:	ebb3 0fd1 	cmp.w	r3, r1, lsr #3
 8000f1c:	bf24      	itt	cs
 8000f1e:	eba3 03d1 	subcs.w	r3, r3, r1, lsr #3
 8000f22:	ea40 00dc 	orrcs.w	r0, r0, ip, lsr #3
 8000f26:	011b      	lsls	r3, r3, #4
 8000f28:	bf18      	it	ne
 8000f2a:	ea5f 1c1c 	movsne.w	ip, ip, lsr #4
 8000f2e:	d1e0      	bne.n	8000ef2 <__aeabi_fdiv+0x46>
 8000f30:	2afd      	cmp	r2, #253	@ 0xfd
 8000f32:	f63f af50 	bhi.w	8000dd6 <__aeabi_fmul+0x92>
 8000f36:	428b      	cmp	r3, r1
 8000f38:	eb40 50c2 	adc.w	r0, r0, r2, lsl #23
 8000f3c:	bf08      	it	eq
 8000f3e:	f020 0001 	biceq.w	r0, r0, #1
 8000f42:	4770      	bx	lr
 8000f44:	f00c 4c00 	and.w	ip, ip, #2147483648	@ 0x80000000
 8000f48:	ea4c 2050 	orr.w	r0, ip, r0, lsr #9
 8000f4c:	327f      	adds	r2, #127	@ 0x7f
 8000f4e:	bfc2      	ittt	gt
 8000f50:	f1d2 03ff 	rsbsgt	r3, r2, #255	@ 0xff
 8000f54:	ea40 50c2 	orrgt.w	r0, r0, r2, lsl #23
 8000f58:	4770      	bxgt	lr
 8000f5a:	f440 0000 	orr.w	r0, r0, #8388608	@ 0x800000
 8000f5e:	f04f 0300 	mov.w	r3, #0
 8000f62:	3a01      	subs	r2, #1
 8000f64:	e737      	b.n	8000dd6 <__aeabi_fmul+0x92>
 8000f66:	f092 0f00 	teq	r2, #0
 8000f6a:	f000 4c00 	and.w	ip, r0, #2147483648	@ 0x80000000
 8000f6e:	bf02      	ittt	eq
 8000f70:	0040      	lsleq	r0, r0, #1
 8000f72:	f410 0f00 	tsteq.w	r0, #8388608	@ 0x800000
 8000f76:	3a01      	subeq	r2, #1
 8000f78:	d0f9      	beq.n	8000f6e <__aeabi_fdiv+0xc2>
 8000f7a:	ea40 000c 	orr.w	r0, r0, ip
 8000f7e:	f093 0f00 	teq	r3, #0
 8000f82:	f001 4c00 	and.w	ip, r1, #2147483648	@ 0x80000000
 8000f86:	bf02      	ittt	eq
 8000f88:	0049      	lsleq	r1, r1, #1
 8000f8a:	f411 0f00 	tsteq.w	r1, #8388608	@ 0x800000
 8000f8e:	3b01      	subeq	r3, #1
 8000f90:	d0f9      	beq.n	8000f86 <__aeabi_fdiv+0xda>
 8000f92:	ea41 010c 	orr.w	r1, r1, ip
 8000f96:	e795      	b.n	8000ec4 <__aeabi_fdiv+0x18>
 8000f98:	ea0c 53d1 	and.w	r3, ip, r1, lsr #23
 8000f9c:	ea92 0f0c 	teq	r2, ip
 8000fa0:	d108      	bne.n	8000fb4 <__aeabi_fdiv+0x108>
 8000fa2:	0242      	lsls	r2, r0, #9
 8000fa4:	f47f af7d 	bne.w	8000ea2 <__aeabi_fmul+0x15e>
 8000fa8:	ea93 0f0c 	teq	r3, ip
 8000fac:	f47f af70 	bne.w	8000e90 <__aeabi_fmul+0x14c>
 8000fb0:	4608      	mov	r0, r1
 8000fb2:	e776      	b.n	8000ea2 <__aeabi_fmul+0x15e>
 8000fb4:	ea93 0f0c 	teq	r3, ip
 8000fb8:	d104      	bne.n	8000fc4 <__aeabi_fdiv+0x118>
 8000fba:	024b      	lsls	r3, r1, #9
 8000fbc:	f43f af4c 	beq.w	8000e58 <__aeabi_fmul+0x114>
 8000fc0:	4608      	mov	r0, r1
 8000fc2:	e76e      	b.n	8000ea2 <__aeabi_fmul+0x15e>
 8000fc4:	f030 4c00 	bics.w	ip, r0, #2147483648	@ 0x80000000
 8000fc8:	bf18      	it	ne
 8000fca:	f031 4c00 	bicsne.w	ip, r1, #2147483648	@ 0x80000000
 8000fce:	d1ca      	bne.n	8000f66 <__aeabi_fdiv+0xba>
 8000fd0:	f030 4200 	bics.w	r2, r0, #2147483648	@ 0x80000000
 8000fd4:	f47f af5c 	bne.w	8000e90 <__aeabi_fmul+0x14c>
 8000fd8:	f031 4300 	bics.w	r3, r1, #2147483648	@ 0x80000000
 8000fdc:	f47f af3c 	bne.w	8000e58 <__aeabi_fmul+0x114>
 8000fe0:	e75f      	b.n	8000ea2 <__aeabi_fmul+0x15e>
 8000fe2:	bf00      	nop

08000fe4 <__aeabi_f2uiz>:
 8000fe4:	0042      	lsls	r2, r0, #1
 8000fe6:	d20e      	bcs.n	8001006 <__aeabi_f2uiz+0x22>
 8000fe8:	f1b2 4ffe 	cmp.w	r2, #2130706432	@ 0x7f000000
 8000fec:	d30b      	bcc.n	8001006 <__aeabi_f2uiz+0x22>
 8000fee:	f04f 039e 	mov.w	r3, #158	@ 0x9e
 8000ff2:	ebb3 6212 	subs.w	r2, r3, r2, lsr #24
 8000ff6:	d409      	bmi.n	800100c <__aeabi_f2uiz+0x28>
 8000ff8:	ea4f 2300 	mov.w	r3, r0, lsl #8
 8000ffc:	f043 4300 	orr.w	r3, r3, #2147483648	@ 0x80000000
 8001000:	fa23 f002 	lsr.w	r0, r3, r2
 8001004:	4770      	bx	lr
 8001006:	f04f 0000 	mov.w	r0, #0
 800100a:	4770      	bx	lr
 800100c:	f112 0f61 	cmn.w	r2, #97	@ 0x61
 8001010:	d101      	bne.n	8001016 <__aeabi_f2uiz+0x32>
 8001012:	0242      	lsls	r2, r0, #9
 8001014:	d102      	bne.n	800101c <__aeabi_f2uiz+0x38>
 8001016:	f04f 30ff 	mov.w	r0, #4294967295	@ 0xffffffff
 800101a:	4770      	bx	lr
 800101c:	f04f 0000 	mov.w	r0, #0
 8001020:	4770      	bx	lr
 8001022:	bf00      	nop

08001024 <_ZN9ComponentD1Ev>:
    virtual int read_id(uint8_t *id) = 0;

    /**
     * @brief Destructor.
     */
    virtual ~Component() {};
 8001024:	b480      	push	{r7}
 8001026:	b083      	sub	sp, #12
 8001028:	af00      	add	r7, sp, #0
 800102a:	6078      	str	r0, [r7, #4]
 800102c:	4a04      	ldr	r2, [pc, #16]	@ (8001040 <_ZN9ComponentD1Ev+0x1c>)
 800102e:	687b      	ldr	r3, [r7, #4]
 8001030:	601a      	str	r2, [r3, #0]
 8001032:	687b      	ldr	r3, [r7, #4]
 8001034:	4618      	mov	r0, r3
 8001036:	370c      	adds	r7, #12
 8001038:	46bd      	mov	sp, r7
 800103a:	bc80      	pop	{r7}
 800103c:	4770      	bx	lr
 800103e:	bf00      	nop
 8001040:	08008bf0 	.word	0x08008bf0

08001044 <_ZN9ComponentD0Ev>:
 8001044:	b580      	push	{r7, lr}
 8001046:	b082      	sub	sp, #8
 8001048:	af00      	add	r7, sp, #0
 800104a:	6078      	str	r0, [r7, #4]
 800104c:	6878      	ldr	r0, [r7, #4]
 800104e:	f7ff ffe9 	bl	8001024 <_ZN9ComponentD1Ev>
 8001052:	2104      	movs	r1, #4
 8001054:	6878      	ldr	r0, [r7, #4]
 8001056:	f004 ff6f 	bl	8005f38 <_ZdlPvj>
 800105a:	687b      	ldr	r3, [r7, #4]
 800105c:	4618      	mov	r0, r3
 800105e:	3708      	adds	r7, #8
 8001060:	46bd      	mov	sp, r7
 8001062:	bd80      	pop	{r7, pc}

08001064 <_ZN12StepperMotorD1Ev>:
    virtual void wait_while_active(void) = 0;

    /**
     * @brief Destructor.
     */
    virtual ~StepperMotor() {};
 8001064:	b580      	push	{r7, lr}
 8001066:	b082      	sub	sp, #8
 8001068:	af00      	add	r7, sp, #0
 800106a:	6078      	str	r0, [r7, #4]
 800106c:	4a05      	ldr	r2, [pc, #20]	@ (8001084 <_ZN12StepperMotorD1Ev+0x20>)
 800106e:	687b      	ldr	r3, [r7, #4]
 8001070:	601a      	str	r2, [r3, #0]
 8001072:	687b      	ldr	r3, [r7, #4]
 8001074:	4618      	mov	r0, r3
 8001076:	f7ff ffd5 	bl	8001024 <_ZN9ComponentD1Ev>
 800107a:	687b      	ldr	r3, [r7, #4]
 800107c:	4618      	mov	r0, r3
 800107e:	3708      	adds	r7, #8
 8001080:	46bd      	mov	sp, r7
 8001082:	bd80      	pop	{r7, pc}
 8001084:	08008b70 	.word	0x08008b70

08001088 <_ZN12StepperMotorD0Ev>:
 8001088:	b580      	push	{r7, lr}
 800108a:	b082      	sub	sp, #8
 800108c:	af00      	add	r7, sp, #0
 800108e:	6078      	str	r0, [r7, #4]
 8001090:	6878      	ldr	r0, [r7, #4]
 8001092:	f7ff ffe7 	bl	8001064 <_ZN12StepperMotorD1Ev>
 8001096:	2104      	movs	r1, #4
 8001098:	6878      	ldr	r0, [r7, #4]
 800109a:	f004 ff4d 	bl	8005f38 <_ZdlPvj>
 800109e:	687b      	ldr	r3, [r7, #4]
 80010a0:	4618      	mov	r0, r3
 80010a2:	3708      	adds	r7, #8
 80010a4:	46bd      	mov	sp, r7
 80010a6:	bd80      	pop	{r7, pc}

080010a8 <_ZN5L6474D1Ev>:

class L6474 : public StepperMotor
{
public:
	L6474();
	virtual ~L6474(void) {}
 80010a8:	b580      	push	{r7, lr}
 80010aa:	b082      	sub	sp, #8
 80010ac:	af00      	add	r7, sp, #0
 80010ae:	6078      	str	r0, [r7, #4]
 80010b0:	4a05      	ldr	r2, [pc, #20]	@ (80010c8 <_ZN5L6474D1Ev+0x20>)
 80010b2:	687b      	ldr	r3, [r7, #4]
 80010b4:	601a      	str	r2, [r3, #0]
 80010b6:	687b      	ldr	r3, [r7, #4]
 80010b8:	4618      	mov	r0, r3
 80010ba:	f7ff ffd3 	bl	8001064 <_ZN12StepperMotorD1Ev>
 80010be:	687b      	ldr	r3, [r7, #4]
 80010c0:	4618      	mov	r0, r3
 80010c2:	3708      	adds	r7, #8
 80010c4:	46bd      	mov	sp, r7
 80010c6:	bd80      	pop	{r7, pc}
 80010c8:	08008ad0 	.word	0x08008ad0

080010cc <_ZN5L6474D0Ev>:
 80010cc:	b580      	push	{r7, lr}
 80010ce:	b082      	sub	sp, #8
 80010d0:	af00      	add	r7, sp, #0
 80010d2:	6078      	str	r0, [r7, #4]
 80010d4:	6878      	ldr	r0, [r7, #4]
 80010d6:	f7ff ffe7 	bl	80010a8 <_ZN5L6474D1Ev>
 80010da:	2154      	movs	r1, #84	@ 0x54
 80010dc:	6878      	ldr	r0, [r7, #4]
 80010de:	f004 ff2b 	bl	8005f38 <_ZdlPvj>
 80010e2:	687b      	ldr	r3, [r7, #4]
 80010e4:	4618      	mov	r0, r3
 80010e6:	3708      	adds	r7, #8
 80010e8:	46bd      	mov	sp, r7
 80010ea:	bd80      	pop	{r7, pc}

080010ec <_ZN5L64744initEPv>:
	virtual int init(void *init = NULL)
 80010ec:	b580      	push	{r7, lr}
 80010ee:	b082      	sub	sp, #8
 80010f0:	af00      	add	r7, sp, #0
 80010f2:	6078      	str	r0, [r7, #4]
 80010f4:	6039      	str	r1, [r7, #0]
	{
		return (int) L6474_Init((void *) init);
 80010f6:	6839      	ldr	r1, [r7, #0]
 80010f8:	6878      	ldr	r0, [r7, #4]
 80010fa:	f000 fb20 	bl	800173e <_ZN5L647410L6474_InitEPv>
 80010fe:	4603      	mov	r3, r0
	}
 8001100:	4618      	mov	r0, r3
 8001102:	3708      	adds	r7, #8
 8001104:	46bd      	mov	sp, r7
 8001106:	bd80      	pop	{r7, pc}

08001108 <_ZN5L64747read_idEPh>:


	virtual int read_id(uint8_t *id = NULL)
 8001108:	b580      	push	{r7, lr}
 800110a:	b082      	sub	sp, #8
 800110c:	af00      	add	r7, sp, #0
 800110e:	6078      	str	r0, [r7, #4]
 8001110:	6039      	str	r1, [r7, #0]
	{
		return (int) L6474_ReadID((uint8_t *) id);
 8001112:	6839      	ldr	r1, [r7, #0]
 8001114:	6878      	ldr	r0, [r7, #4]
 8001116:	f000 fb37 	bl	8001788 <_ZN5L647412L6474_ReadIDEPh>
 800111a:	4603      	mov	r3, r0
	}
 800111c:	4618      	mov	r0, r3
 800111e:	3708      	adds	r7, #8
 8001120:	46bd      	mov	sp, r7
 8001122:	bd80      	pop	{r7, pc}

08001124 <_ZN5L647410get_statusEv>:

	virtual unsigned int get_status(void)
 8001124:	b580      	push	{r7, lr}
 8001126:	b082      	sub	sp, #8
 8001128:	af00      	add	r7, sp, #0
 800112a:	6078      	str	r0, [r7, #4]
	{
		return (unsigned int) L6474_CmdGetStatus();
 800112c:	6878      	ldr	r0, [r7, #4]
 800112e:	f000 feb3 	bl	8001e98 <_ZN5L647418L6474_CmdGetStatusEv>
 8001132:	4603      	mov	r3, r0
	}
 8001134:	4618      	mov	r0, r3
 8001136:	3708      	adds	r7, #8
 8001138:	46bd      	mov	sp, r7
 800113a:	bd80      	pop	{r7, pc}

0800113c <_ZN5L647413get_parameterEj>:

	virtual float get_parameter(unsigned int parameter)
 800113c:	b580      	push	{r7, lr}
 800113e:	b084      	sub	sp, #16
 8001140:	af00      	add	r7, sp, #0
 8001142:	6078      	str	r0, [r7, #4]
 8001144:	6039      	str	r1, [r7, #0]
	{
        unsigned int register_value = (unsigned int) L6474_CmdGetParam((L6474_Registers_t) parameter);
 8001146:	683b      	ldr	r3, [r7, #0]
 8001148:	b2db      	uxtb	r3, r3
 800114a:	4619      	mov	r1, r3
 800114c:	6878      	ldr	r0, [r7, #4]
 800114e:	f000 fdaf 	bl	8001cb0 <_ZN5L647417L6474_CmdGetParamE17L6474_Registers_t>
 8001152:	60b8      	str	r0, [r7, #8]
        float value;

        switch ((L6474_Registers_t) parameter) {
 8001154:	683b      	ldr	r3, [r7, #0]
 8001156:	b2db      	uxtb	r3, r3
 8001158:	2b09      	cmp	r3, #9
 800115a:	d005      	beq.n	8001168 <_ZN5L647413get_parameterEj+0x2c>
 800115c:	2b09      	cmp	r3, #9
 800115e:	db17      	blt.n	8001190 <_ZN5L647413get_parameterEj+0x54>
 8001160:	3b0f      	subs	r3, #15
 8001162:	2b01      	cmp	r3, #1
 8001164:	d814      	bhi.n	8001190 <_ZN5L647413get_parameterEj+0x54>
 8001166:	e009      	b.n	800117c <_ZN5L647413get_parameterEj+0x40>
            case L6474_TVAL:
                value = L6474_Par_to_Tval_Current((float) register_value);
 8001168:	68b8      	ldr	r0, [r7, #8]
 800116a:	f7ff fd93 	bl	8000c94 <__aeabi_ui2f>
 800116e:	4603      	mov	r3, r0
 8001170:	4619      	mov	r1, r3
 8001172:	6878      	ldr	r0, [r7, #4]
 8001174:	f001 fd54 	bl	8002c20 <_ZN5L647425L6474_Par_to_Tval_CurrentEf>
 8001178:	60f8      	str	r0, [r7, #12]
                break;
 800117a:	e00f      	b.n	800119c <_ZN5L647413get_parameterEj+0x60>
            case L6474_TON_MIN:
            case L6474_TOFF_MIN:
                value = L6474_Par_to_Tmin_Time((float) register_value);
 800117c:	68b8      	ldr	r0, [r7, #8]
 800117e:	f7ff fd89 	bl	8000c94 <__aeabi_ui2f>
 8001182:	4603      	mov	r3, r0
 8001184:	4619      	mov	r1, r3
 8001186:	6878      	ldr	r0, [r7, #4]
 8001188:	f001 fd80 	bl	8002c8c <_ZN5L647422L6474_Par_to_Tmin_TimeEf>
 800118c:	60f8      	str	r0, [r7, #12]
                break;
 800118e:	e005      	b.n	800119c <_ZN5L647413get_parameterEj+0x60>
            default:
                value = (float) register_value;
 8001190:	68b8      	ldr	r0, [r7, #8]
 8001192:	f7ff fd7f 	bl	8000c94 <__aeabi_ui2f>
 8001196:	4603      	mov	r3, r0
 8001198:	60fb      	str	r3, [r7, #12]
                break;
 800119a:	bf00      	nop
        }

        return value;
 800119c:	68fb      	ldr	r3, [r7, #12]
	}
 800119e:	4618      	mov	r0, r3
 80011a0:	3710      	adds	r7, #16
 80011a2:	46bd      	mov	sp, r7
 80011a4:	bd80      	pop	{r7, pc}

080011a6 <_ZN5L647412get_positionEv>:
	virtual signed int get_position(void)
 80011a6:	b580      	push	{r7, lr}
 80011a8:	b082      	sub	sp, #8
 80011aa:	af00      	add	r7, sp, #0
 80011ac:	6078      	str	r0, [r7, #4]
	{
		return (signed int) L6474_GetPosition();
 80011ae:	6878      	ldr	r0, [r7, #4]
 80011b0:	f000 fb64 	bl	800187c <_ZN5L647417L6474_GetPositionEv>
 80011b4:	4603      	mov	r3, r0
	}
 80011b6:	4618      	mov	r0, r3
 80011b8:	3708      	adds	r7, #8
 80011ba:	46bd      	mov	sp, r7
 80011bc:	bd80      	pop	{r7, pc}

080011be <_ZN5L64748get_markEv>:

	virtual signed int get_mark(void)
 80011be:	b580      	push	{r7, lr}
 80011c0:	b082      	sub	sp, #8
 80011c2:	af00      	add	r7, sp, #0
 80011c4:	6078      	str	r0, [r7, #4]
	{
		return (signed int) L6474_GetMark();
 80011c6:	6878      	ldr	r0, [r7, #4]
 80011c8:	f000 fb2c 	bl	8001824 <_ZN5L647413L6474_GetMarkEv>
 80011cc:	4603      	mov	r3, r0
	}
 80011ce:	4618      	mov	r0, r3
 80011d0:	3708      	adds	r7, #8
 80011d2:	46bd      	mov	sp, r7
 80011d4:	bd80      	pop	{r7, pc}

080011d6 <_ZN5L64749get_speedEv>:

	virtual unsigned int get_speed(void)
 80011d6:	b580      	push	{r7, lr}
 80011d8:	b082      	sub	sp, #8
 80011da:	af00      	add	r7, sp, #0
 80011dc:	6078      	str	r0, [r7, #4]
	{
		return (unsigned int) L6474_GetCurrentSpeed();
 80011de:	6878      	ldr	r0, [r7, #4]
 80011e0:	f000 faef 	bl	80017c2 <_ZN5L647421L6474_GetCurrentSpeedEv>
 80011e4:	4603      	mov	r3, r0
	}
 80011e6:	4618      	mov	r0, r3
 80011e8:	3708      	adds	r7, #8
 80011ea:	46bd      	mov	sp, r7
 80011ec:	bd80      	pop	{r7, pc}

080011ee <_ZN5L647413get_max_speedEv>:

	virtual unsigned int get_max_speed(void)
 80011ee:	b580      	push	{r7, lr}
 80011f0:	b082      	sub	sp, #8
 80011f2:	af00      	add	r7, sp, #0
 80011f4:	6078      	str	r0, [r7, #4]
	{
		return (unsigned int) L6474_GetMaxSpeed();
 80011f6:	6878      	ldr	r0, [r7, #4]
 80011f8:	f000 fb26 	bl	8001848 <_ZN5L647417L6474_GetMaxSpeedEv>
 80011fc:	4603      	mov	r3, r0
	}
 80011fe:	4618      	mov	r0, r3
 8001200:	3708      	adds	r7, #8
 8001202:	46bd      	mov	sp, r7
 8001204:	bd80      	pop	{r7, pc}

08001206 <_ZN5L647413get_min_speedEv>:

	virtual unsigned int get_min_speed(void)
 8001206:	b580      	push	{r7, lr}
 8001208:	b082      	sub	sp, #8
 800120a:	af00      	add	r7, sp, #0
 800120c:	6078      	str	r0, [r7, #4]
	{
		return (unsigned int) L6474_GetMinSpeed();
 800120e:	6878      	ldr	r0, [r7, #4]
 8001210:	f000 fb27 	bl	8001862 <_ZN5L647417L6474_GetMinSpeedEv>
 8001214:	4603      	mov	r3, r0
	}
 8001216:	4618      	mov	r0, r3
 8001218:	3708      	adds	r7, #8
 800121a:	46bd      	mov	sp, r7
 800121c:	bd80      	pop	{r7, pc}

0800121e <_ZN5L647416get_accelerationEv>:

	virtual unsigned int get_acceleration(void)
 800121e:	b580      	push	{r7, lr}
 8001220:	b082      	sub	sp, #8
 8001222:	af00      	add	r7, sp, #0
 8001224:	6078      	str	r0, [r7, #4]
	{
		return (unsigned int) L6474_GetAcceleration();
 8001226:	6878      	ldr	r0, [r7, #4]
 8001228:	f000 fabe 	bl	80017a8 <_ZN5L647421L6474_GetAccelerationEv>
 800122c:	4603      	mov	r3, r0
	}
 800122e:	4618      	mov	r0, r3
 8001230:	3708      	adds	r7, #8
 8001232:	46bd      	mov	sp, r7
 8001234:	bd80      	pop	{r7, pc}

08001236 <_ZN5L647416get_decelerationEv>:

	virtual unsigned int get_deceleration(void)
 8001236:	b580      	push	{r7, lr}
 8001238:	b082      	sub	sp, #8
 800123a:	af00      	add	r7, sp, #0
 800123c:	6078      	str	r0, [r7, #4]
	{
		return (unsigned int) L6474_GetDeceleration();
 800123e:	6878      	ldr	r0, [r7, #4]
 8001240:	f000 facc 	bl	80017dc <_ZN5L647421L6474_GetDecelerationEv>
 8001244:	4603      	mov	r3, r0
	}
 8001246:	4618      	mov	r0, r3
 8001248:	3708      	adds	r7, #8
 800124a:	46bd      	mov	sp, r7
 800124c:	bd80      	pop	{r7, pc}

0800124e <_ZN5L647413get_directionEv>:

	virtual direction_t get_direction(void)
 800124e:	b580      	push	{r7, lr}
 8001250:	b082      	sub	sp, #8
 8001252:	af00      	add	r7, sp, #0
 8001254:	6078      	str	r0, [r7, #4]
	{
		return (direction_t) (L6474_GetDirection() == FORWARD ? StepperMotor::FWD : StepperMotor::BWD);
 8001256:	6878      	ldr	r0, [r7, #4]
 8001258:	f000 ffe2 	bl	8002220 <_ZN5L647418L6474_GetDirectionEv>
 800125c:	4603      	mov	r3, r0
 800125e:	2b01      	cmp	r3, #1
 8001260:	d101      	bne.n	8001266 <_ZN5L647413get_directionEv+0x18>
 8001262:	2301      	movs	r3, #1
 8001264:	e000      	b.n	8001268 <_ZN5L647413get_directionEv+0x1a>
 8001266:	2300      	movs	r3, #0
	}
 8001268:	4618      	mov	r0, r3
 800126a:	3708      	adds	r7, #8
 800126c:	46bd      	mov	sp, r7
 800126e:	bd80      	pop	{r7, pc}

08001270 <_ZN5L647413set_parameterEjf>:

	virtual void set_parameter(unsigned int parameter, float value)
 8001270:	b590      	push	{r4, r7, lr}
 8001272:	b087      	sub	sp, #28
 8001274:	af00      	add	r7, sp, #0
 8001276:	60f8      	str	r0, [r7, #12]
 8001278:	60b9      	str	r1, [r7, #8]
 800127a:	607a      	str	r2, [r7, #4]
	{
        float register_value;

        switch ((L6474_Registers_t) parameter) {
 800127c:	68bb      	ldr	r3, [r7, #8]
 800127e:	b2db      	uxtb	r3, r3
 8001280:	2b09      	cmp	r3, #9
 8001282:	d005      	beq.n	8001290 <_ZN5L647413set_parameterEjf+0x20>
 8001284:	2b09      	cmp	r3, #9
 8001286:	db0f      	blt.n	80012a8 <_ZN5L647413set_parameterEjf+0x38>
 8001288:	3b0f      	subs	r3, #15
 800128a:	2b01      	cmp	r3, #1
 800128c:	d80c      	bhi.n	80012a8 <_ZN5L647413set_parameterEjf+0x38>
 800128e:	e005      	b.n	800129c <_ZN5L647413set_parameterEjf+0x2c>
            case L6474_TVAL:
                register_value = L6474_Tval_Current_to_Par(value);
 8001290:	6879      	ldr	r1, [r7, #4]
 8001292:	68f8      	ldr	r0, [r7, #12]
 8001294:	f001 fca8 	bl	8002be8 <_ZN5L647425L6474_Tval_Current_to_ParEf>
 8001298:	6178      	str	r0, [r7, #20]
                break;
 800129a:	e008      	b.n	80012ae <_ZN5L647413set_parameterEjf+0x3e>
            case L6474_TON_MIN:
            case L6474_TOFF_MIN:
                register_value = L6474_Tmin_Time_to_Par(value);
 800129c:	6879      	ldr	r1, [r7, #4]
 800129e:	68f8      	ldr	r0, [r7, #12]
 80012a0:	f001 fcda 	bl	8002c58 <_ZN5L647422L6474_Tmin_Time_to_ParEf>
 80012a4:	6178      	str	r0, [r7, #20]
                break;
 80012a6:	e002      	b.n	80012ae <_ZN5L647413set_parameterEjf+0x3e>
            default:
                register_value = value;
 80012a8:	687b      	ldr	r3, [r7, #4]
 80012aa:	617b      	str	r3, [r7, #20]
                break;
 80012ac:	bf00      	nop
        }

        L6474_CmdSetParam((L6474_Registers_t) parameter, (unsigned int) register_value);
 80012ae:	68bb      	ldr	r3, [r7, #8]
 80012b0:	b2dc      	uxtb	r4, r3
 80012b2:	6978      	ldr	r0, [r7, #20]
 80012b4:	f7ff fe96 	bl	8000fe4 <__aeabi_f2uiz>
 80012b8:	4603      	mov	r3, r0
 80012ba:	461a      	mov	r2, r3
 80012bc:	4621      	mov	r1, r4
 80012be:	68f8      	ldr	r0, [r7, #12]
 80012c0:	f000 fe72 	bl	8001fa8 <_ZN5L647417L6474_CmdSetParamE17L6474_Registers_tm>
	}
 80012c4:	bf00      	nop
 80012c6:	371c      	adds	r7, #28
 80012c8:	46bd      	mov	sp, r7
 80012ca:	bd90      	pop	{r4, r7, pc}

080012cc <_ZN5L64748set_homeEv>:

	virtual void set_home(void)
 80012cc:	b580      	push	{r7, lr}
 80012ce:	b082      	sub	sp, #8
 80012d0:	af00      	add	r7, sp, #0
 80012d2:	6078      	str	r0, [r7, #4]
	{
		L6474_SetHome();
 80012d4:	6878      	ldr	r0, [r7, #4]
 80012d6:	f000 fc1a 	bl	8001b0e <_ZN5L647413L6474_SetHomeEv>
	}
 80012da:	bf00      	nop
 80012dc:	3708      	adds	r7, #8
 80012de:	46bd      	mov	sp, r7
 80012e0:	bd80      	pop	{r7, pc}

080012e2 <_ZN5L64748set_markEv>:

	virtual void set_mark(void)
 80012e2:	b580      	push	{r7, lr}
 80012e4:	b082      	sub	sp, #8
 80012e6:	af00      	add	r7, sp, #0
 80012e8:	6078      	str	r0, [r7, #4]
	{
		L6474_SetMark();
 80012ea:	6878      	ldr	r0, [r7, #4]
 80012ec:	f000 fc1c 	bl	8001b28 <_ZN5L647413L6474_SetMarkEv>
	}
 80012f0:	bf00      	nop
 80012f2:	3708      	adds	r7, #8
 80012f4:	46bd      	mov	sp, r7
 80012f6:	bd80      	pop	{r7, pc}

080012f8 <_ZN5L647413set_max_speedEj>:

	virtual bool set_max_speed(unsigned int speed)
 80012f8:	b580      	push	{r7, lr}
 80012fa:	b082      	sub	sp, #8
 80012fc:	af00      	add	r7, sp, #0
 80012fe:	6078      	str	r0, [r7, #4]
 8001300:	6039      	str	r1, [r7, #0]
	{
		L6474_SetMaxSpeed((unsigned int) speed);
 8001302:	683b      	ldr	r3, [r7, #0]
 8001304:	b29b      	uxth	r3, r3
 8001306:	4619      	mov	r1, r3
 8001308:	6878      	ldr	r0, [r7, #4]
 800130a:	f000 fc1f 	bl	8001b4c <_ZN5L647417L6474_SetMaxSpeedEt>
		return true;
 800130e:	2301      	movs	r3, #1
	}
 8001310:	4618      	mov	r0, r3
 8001312:	3708      	adds	r7, #8
 8001314:	46bd      	mov	sp, r7
 8001316:	bd80      	pop	{r7, pc}

08001318 <_ZN5L647413set_min_speedEj>:

	virtual bool set_min_speed(unsigned int speed)
 8001318:	b580      	push	{r7, lr}
 800131a:	b082      	sub	sp, #8
 800131c:	af00      	add	r7, sp, #0
 800131e:	6078      	str	r0, [r7, #4]
 8001320:	6039      	str	r1, [r7, #0]
	{
		L6474_SetMinSpeed((unsigned int) speed);
 8001322:	683b      	ldr	r3, [r7, #0]
 8001324:	b29b      	uxth	r3, r3
 8001326:	4619      	mov	r1, r3
 8001328:	6878      	ldr	r0, [r7, #4]
 800132a:	f000 fc43 	bl	8001bb4 <_ZN5L647417L6474_SetMinSpeedEt>
		return true;
 800132e:	2301      	movs	r3, #1
	}
 8001330:	4618      	mov	r0, r3
 8001332:	3708      	adds	r7, #8
 8001334:	46bd      	mov	sp, r7
 8001336:	bd80      	pop	{r7, pc}

08001338 <_ZN5L647416set_accelerationEj>:

	virtual bool set_acceleration(unsigned int acceleration)
 8001338:	b580      	push	{r7, lr}
 800133a:	b082      	sub	sp, #8
 800133c:	af00      	add	r7, sp, #0
 800133e:	6078      	str	r0, [r7, #4]
 8001340:	6039      	str	r1, [r7, #0]
	{
		L6474_SetAcceleration((unsigned int) acceleration);
 8001342:	683b      	ldr	r3, [r7, #0]
 8001344:	b29b      	uxth	r3, r3
 8001346:	4619      	mov	r1, r3
 8001348:	6878      	ldr	r0, [r7, #4]
 800134a:	f000 fb90 	bl	8001a6e <_ZN5L647421L6474_SetAccelerationEt>
		return true;
 800134e:	2301      	movs	r3, #1
	}
 8001350:	4618      	mov	r0, r3
 8001352:	3708      	adds	r7, #8
 8001354:	46bd      	mov	sp, r7
 8001356:	bd80      	pop	{r7, pc}

08001358 <_ZN5L647416set_decelerationEj>:

	virtual bool set_deceleration(unsigned int deceleration)
 8001358:	b580      	push	{r7, lr}
 800135a:	b082      	sub	sp, #8
 800135c:	af00      	add	r7, sp, #0
 800135e:	6078      	str	r0, [r7, #4]
 8001360:	6039      	str	r1, [r7, #0]
	{
		L6474_SetDeceleration((unsigned int) deceleration);
 8001362:	683b      	ldr	r3, [r7, #0]
 8001364:	b29b      	uxth	r3, r3
 8001366:	4619      	mov	r1, r3
 8001368:	6878      	ldr	r0, [r7, #4]
 800136a:	f000 fba8 	bl	8001abe <_ZN5L647421L6474_SetDecelerationEt>
		return true;
 800136e:	2301      	movs	r3, #1
	}
 8001370:	4618      	mov	r0, r3
 8001372:	3708      	adds	r7, #8
 8001374:	46bd      	mov	sp, r7
 8001376:	bd80      	pop	{r7, pc}

08001378 <_ZN5L64745go_toEi>:

	virtual void go_to(signed int position)
 8001378:	b580      	push	{r7, lr}
 800137a:	b082      	sub	sp, #8
 800137c:	af00      	add	r7, sp, #0
 800137e:	6078      	str	r0, [r7, #4]
 8001380:	6039      	str	r1, [r7, #0]
	{
		L6474_GoTo((signed int) position);
 8001382:	6839      	ldr	r1, [r7, #0]
 8001384:	6878      	ldr	r0, [r7, #4]
 8001386:	f000 faaf 	bl	80018e8 <_ZN5L647410L6474_GoToEl>
	}
 800138a:	bf00      	nop
 800138c:	3708      	adds	r7, #8
 800138e:	46bd      	mov	sp, r7
 8001390:	bd80      	pop	{r7, pc}

08001392 <_ZN5L64747go_homeEv>:

	virtual void go_home(void)
 8001392:	b580      	push	{r7, lr}
 8001394:	b082      	sub	sp, #8
 8001396:	af00      	add	r7, sp, #0
 8001398:	6078      	str	r0, [r7, #4]
	{
		L6474_GoHome();
 800139a:	6878      	ldr	r0, [r7, #4]
 800139c:	f000 fa80 	bl	80018a0 <_ZN5L647412L6474_GoHomeEv>
	}
 80013a0:	bf00      	nop
 80013a2:	3708      	adds	r7, #8
 80013a4:	46bd      	mov	sp, r7
 80013a6:	bd80      	pop	{r7, pc}

080013a8 <_ZN5L64747go_markEv>:

	virtual void go_mark(void)
 80013a8:	b580      	push	{r7, lr}
 80013aa:	b082      	sub	sp, #8
 80013ac:	af00      	add	r7, sp, #0
 80013ae:	6078      	str	r0, [r7, #4]
	{
		L6474_GoMark();
 80013b0:	6878      	ldr	r0, [r7, #4]
 80013b2:	f000 fa81 	bl	80018b8 <_ZN5L647412L6474_GoMarkEv>
	}
 80013b6:	bf00      	nop
 80013b8:	3708      	adds	r7, #8
 80013ba:	46bd      	mov	sp, r7
 80013bc:	bd80      	pop	{r7, pc}

080013be <_ZN5L64743runEN12StepperMotor11direction_tE>:
	virtual void run(direction_t direction)
 80013be:	b580      	push	{r7, lr}
 80013c0:	b082      	sub	sp, #8
 80013c2:	af00      	add	r7, sp, #0
 80013c4:	6078      	str	r0, [r7, #4]
 80013c6:	460b      	mov	r3, r1
 80013c8:	70fb      	strb	r3, [r7, #3]
	{
		L6474_Run((motorDir_t) (direction == StepperMotor::FWD ? FORWARD : BACKWARD));
 80013ca:	78fb      	ldrb	r3, [r7, #3]
 80013cc:	2b01      	cmp	r3, #1
 80013ce:	d101      	bne.n	80013d4 <_ZN5L64743runEN12StepperMotor11direction_tE+0x16>
 80013d0:	2301      	movs	r3, #1
 80013d2:	e000      	b.n	80013d6 <_ZN5L64743runEN12StepperMotor11direction_tE+0x18>
 80013d4:	2300      	movs	r3, #0
 80013d6:	4619      	mov	r1, r3
 80013d8:	6878      	ldr	r0, [r7, #4]
 80013da:	f000 fb24 	bl	8001a26 <_ZN5L64749L6474_RunE10motorDir_t>
	}
 80013de:	bf00      	nop
 80013e0:	3708      	adds	r7, #8
 80013e2:	46bd      	mov	sp, r7
 80013e4:	bd80      	pop	{r7, pc}

080013e6 <_ZN5L64744moveEN12StepperMotor11direction_tEj>:

	virtual void move(direction_t direction, unsigned int steps)
 80013e6:	b580      	push	{r7, lr}
 80013e8:	b084      	sub	sp, #16
 80013ea:	af00      	add	r7, sp, #0
 80013ec:	60f8      	str	r0, [r7, #12]
 80013ee:	460b      	mov	r3, r1
 80013f0:	607a      	str	r2, [r7, #4]
 80013f2:	72fb      	strb	r3, [r7, #11]
	{
		L6474_Move((motorDir_t) (direction == StepperMotor::FWD ? FORWARD : BACKWARD), (unsigned int) steps);
 80013f4:	7afb      	ldrb	r3, [r7, #11]
 80013f6:	2b01      	cmp	r3, #1
 80013f8:	d101      	bne.n	80013fe <_ZN5L64744moveEN12StepperMotor11direction_tEj+0x18>
 80013fa:	2301      	movs	r3, #1
 80013fc:	e000      	b.n	8001400 <_ZN5L64744moveEN12StepperMotor11direction_tEj+0x1a>
 80013fe:	2300      	movs	r3, #0
 8001400:	687a      	ldr	r2, [r7, #4]
 8001402:	4619      	mov	r1, r3
 8001404:	68f8      	ldr	r0, [r7, #12]
 8001406:	f000 fad3 	bl	80019b0 <_ZN5L647410L6474_MoveE10motorDir_tm>
	}
 800140a:	bf00      	nop
 800140c:	3710      	adds	r7, #16
 800140e:	46bd      	mov	sp, r7
 8001410:	bd80      	pop	{r7, pc}

08001412 <_ZN5L64749soft_stopEv>:

	virtual void soft_stop(void)
 8001412:	b580      	push	{r7, lr}
 8001414:	b082      	sub	sp, #8
 8001416:	af00      	add	r7, sp, #0
 8001418:	6078      	str	r0, [r7, #4]
	{
		L6474_SoftStop();
 800141a:	6878      	ldr	r0, [r7, #4]
 800141c:	f000 fbfe 	bl	8001c1c <_ZN5L647414L6474_SoftStopEv>
	}
 8001420:	bf00      	nop
 8001422:	3708      	adds	r7, #8
 8001424:	46bd      	mov	sp, r7
 8001426:	bd80      	pop	{r7, pc}

08001428 <_ZN5L64749hard_stopEv>:

	virtual void hard_stop(void)
 8001428:	b580      	push	{r7, lr}
 800142a:	b082      	sub	sp, #8
 800142c:	af00      	add	r7, sp, #0
 800142e:	6078      	str	r0, [r7, #4]
	{
		L6474_HardStop();
 8001430:	6878      	ldr	r0, [r7, #4]
 8001432:	f000 faa6 	bl	8001982 <_ZN5L647414L6474_HardStopEv>
	}
 8001436:	bf00      	nop
 8001438:	3708      	adds	r7, #8
 800143a:	46bd      	mov	sp, r7
 800143c:	bd80      	pop	{r7, pc}

0800143e <_ZN5L64748soft_hizEv>:

	virtual void soft_hiz(void)
 800143e:	b580      	push	{r7, lr}
 8001440:	b082      	sub	sp, #8
 8001442:	af00      	add	r7, sp, #0
 8001444:	6078      	str	r0, [r7, #4]
	{
        L6474_SoftStop();
 8001446:	6878      	ldr	r0, [r7, #4]
 8001448:	f000 fbe8 	bl	8001c1c <_ZN5L647414L6474_SoftStopEv>
        L6474_CmdDisable();
 800144c:	6878      	ldr	r0, [r7, #4]
 800144e:	f000 fc17 	bl	8001c80 <_ZN5L647416L6474_CmdDisableEv>
	}
 8001452:	bf00      	nop
 8001454:	3708      	adds	r7, #8
 8001456:	46bd      	mov	sp, r7
 8001458:	bd80      	pop	{r7, pc}

0800145a <_ZN5L64748hard_hizEv>:

	virtual void hard_hiz(void)
 800145a:	b580      	push	{r7, lr}
 800145c:	b082      	sub	sp, #8
 800145e:	af00      	add	r7, sp, #0
 8001460:	6078      	str	r0, [r7, #4]
	{
        L6474_HardStop();
 8001462:	6878      	ldr	r0, [r7, #4]
 8001464:	f000 fa8d 	bl	8001982 <_ZN5L647414L6474_HardStopEv>
        L6474_CmdDisable();
 8001468:	6878      	ldr	r0, [r7, #4]
 800146a:	f000 fc09 	bl	8001c80 <_ZN5L647416L6474_CmdDisableEv>
	}
 800146e:	bf00      	nop
 8001470:	3708      	adds	r7, #8
 8001472:	46bd      	mov	sp, r7
 8001474:	bd80      	pop	{r7, pc}

08001476 <_ZN5L647417wait_while_activeEv>:

	virtual void wait_while_active(void)
 8001476:	b580      	push	{r7, lr}
 8001478:	b082      	sub	sp, #8
 800147a:	af00      	add	r7, sp, #0
 800147c:	6078      	str	r0, [r7, #4]
	{
		L6474_WaitWhileActive();
 800147e:	6878      	ldr	r0, [r7, #4]
 8001480:	f000 fbe9 	bl	8001c56 <_ZN5L647421L6474_WaitWhileActiveEv>
	}
 8001484:	bf00      	nop
 8001486:	3708      	adds	r7, #8
 8001488:	46bd      	mov	sp, r7
 800148a:	bd80      	pop	{r7, pc}

0800148c <_ZN5L647416get_device_stateEv>:

	virtual motorState_t get_device_state(void)
 800148c:	b580      	push	{r7, lr}
 800148e:	b082      	sub	sp, #8
 8001490:	af00      	add	r7, sp, #0
 8001492:	6078      	str	r0, [r7, #4]
	{
		return (motorState_t) L6474_GetDeviceState();
 8001494:	6878      	ldr	r0, [r7, #4]
 8001496:	f000 f9ae 	bl	80017f6 <_ZN5L647420L6474_GetDeviceStateEv>
 800149a:	4603      	mov	r3, r0
	}
 800149c:	4618      	mov	r0, r3
 800149e:	3708      	adds	r7, #8
 80014a0:	46bd      	mov	sp, r7
 80014a2:	bd80      	pop	{r7, pc}

080014a4 <_ZN5L647420read_status_registerEv>:

	virtual uint16_t read_status_register(void)
 80014a4:	b580      	push	{r7, lr}
 80014a6:	b082      	sub	sp, #8
 80014a8:	af00      	add	r7, sp, #0
 80014aa:	6078      	str	r0, [r7, #4]
	{
		return (uint16_t) L6474_ReadStatusRegister();
 80014ac:	6878      	ldr	r0, [r7, #4]
 80014ae:	f000 fe5f 	bl	8002170 <_ZN5L647424L6474_ReadStatusRegisterEv>
 80014b2:	4603      	mov	r3, r0
	}
 80014b4:	4618      	mov	r0, r3
 80014b6:	3708      	adds	r7, #8
 80014b8:	46bd      	mov	sp, r7
 80014ba:	bd80      	pop	{r7, pc}

080014bc <_ZN5L647413set_step_modeEN12StepperMotor11step_mode_tE>:

	virtual bool set_step_mode(step_mode_t step_mode)
 80014bc:	b580      	push	{r7, lr}
 80014be:	b082      	sub	sp, #8
 80014c0:	af00      	add	r7, sp, #0
 80014c2:	6078      	str	r0, [r7, #4]
 80014c4:	460b      	mov	r3, r1
 80014c6:	70fb      	strb	r3, [r7, #3]
	{
        if ((motorStepMode_t) step_mode > STEP_MODE_1_16) {
 80014c8:	78fb      	ldrb	r3, [r7, #3]
 80014ca:	2b04      	cmp	r3, #4
 80014cc:	d901      	bls.n	80014d2 <_ZN5L647413set_step_modeEN12StepperMotor11step_mode_tE+0x16>
            return false;
 80014ce:	2300      	movs	r3, #0
 80014d0:	e00b      	b.n	80014ea <_ZN5L647413set_step_modeEN12StepperMotor11step_mode_tE+0x2e>
        }

        soft_hiz();
 80014d2:	687b      	ldr	r3, [r7, #4]
 80014d4:	681b      	ldr	r3, [r3, #0]
 80014d6:	336c      	adds	r3, #108	@ 0x6c
 80014d8:	681b      	ldr	r3, [r3, #0]
 80014da:	6878      	ldr	r0, [r7, #4]
 80014dc:	4798      	blx	r3
        L6474_SelectStepMode((motorStepMode_t) step_mode);
 80014de:	78fb      	ldrb	r3, [r7, #3]
 80014e0:	4619      	mov	r1, r3
 80014e2:	6878      	ldr	r0, [r7, #4]
 80014e4:	f000 fe52 	bl	800218c <_ZN5L647420L6474_SelectStepModeE15motorStepMode_t>
        return true;
 80014e8:	2301      	movs	r3, #1
	}
 80014ea:	4618      	mov	r0, r3
 80014ec:	3708      	adds	r7, #8
 80014ee:	46bd      	mov	sp, r7
 80014f0:	bd80      	pop	{r7, pc}

080014f2 <_ZN5L647420attach_error_handlerEPFvtE>:

	virtual void attach_error_handler(void (*fptr)(uint16_t error))
 80014f2:	b580      	push	{r7, lr}
 80014f4:	b082      	sub	sp, #8
 80014f6:	af00      	add	r7, sp, #0
 80014f8:	6078      	str	r0, [r7, #4]
 80014fa:	6039      	str	r1, [r7, #0]
	{
		L6474_AttachErrorHandler((void (*)(uint16_t error)) fptr);
 80014fc:	6839      	ldr	r1, [r7, #0]
 80014fe:	6878      	ldr	r0, [r7, #4]
 8001500:	f000 f910 	bl	8001724 <_ZN5L647424L6474_AttachErrorHandlerEPFvtE>
	}
 8001504:	bf00      	nop
 8001506:	3708      	adds	r7, #8
 8001508:	46bd      	mov	sp, r7
 800150a:	bd80      	pop	{r7, pc}

0800150c <_ZN5L64746enableEv>:

	virtual void enable(void)
 800150c:	b580      	push	{r7, lr}
 800150e:	b082      	sub	sp, #8
 8001510:	af00      	add	r7, sp, #0
 8001512:	6078      	str	r0, [r7, #4]
	{
		L6474_CmdEnable();
 8001514:	6878      	ldr	r0, [r7, #4]
 8001516:	f000 fbbf 	bl	8001c98 <_ZN5L647415L6474_CmdEnableEv>
	}
 800151a:	bf00      	nop
 800151c:	3708      	adds	r7, #8
 800151e:	46bd      	mov	sp, r7
 8001520:	bd80      	pop	{r7, pc}

08001522 <_ZN5L64747disableEv>:

	virtual void disable(void)
 8001522:	b580      	push	{r7, lr}
 8001524:	b082      	sub	sp, #8
 8001526:	af00      	add	r7, sp, #0
 8001528:	6078      	str	r0, [r7, #4]
	{
		L6474_CmdDisable();
 800152a:	6878      	ldr	r0, [r7, #4]
 800152c:	f000 fba8 	bl	8001c80 <_ZN5L647416L6474_CmdDisableEv>
	}
 8001530:	bf00      	nop
 8001532:	3708      	adds	r7, #8
 8001534:	46bd      	mov	sp, r7
 8001536:	bd80      	pop	{r7, pc}

08001538 <_ZN5L647414get_fw_versionEv>:

	virtual uint8_t get_fw_version(void)
 8001538:	b580      	push	{r7, lr}
 800153a:	b082      	sub	sp, #8
 800153c:	af00      	add	r7, sp, #0
 800153e:	6078      	str	r0, [r7, #4]
	{
		return (uint8_t) L6474_GetFwVersion();
 8001540:	6878      	ldr	r0, [r7, #4]
 8001542:	f000 f965 	bl	8001810 <_ZN5L647418L6474_GetFwVersionEv>
 8001546:	4603      	mov	r3, r0
	}
 8001548:	4618      	mov	r0, r3
 800154a:	3708      	adds	r7, #8
 800154c:	46bd      	mov	sp, r7
 800154e:	bd80      	pop	{r7, pc}

08001550 <_ZN5L647411L6474_DelayEm>:

	//unimplemented
	status_t Read(uint8_t* pBuffer, uint16_t NumBytesToRead);
	status_t Write(uint8_t* pBuffer, uint16_t NumBytesToWrite);
	status_t ReadWrite(uint8_t* pBufferToRead, uint8_t* pBufferToWrite, uint16_t NumBytes);
	void L6474_Delay(uint32_t delay)
 8001550:	b580      	push	{r7, lr}
 8001552:	b082      	sub	sp, #8
 8001554:	af00      	add	r7, sp, #0
 8001556:	6078      	str	r0, [r7, #4]
 8001558:	6039      	str	r1, [r7, #0]
	{
		HAL_Delay(delay);
 800155a:	6838      	ldr	r0, [r7, #0]
 800155c:	f002 fabe 	bl	8003adc <HAL_Delay>
	}
 8001560:	bf00      	nop
 8001562:	3708      	adds	r7, #8
 8001564:	46bd      	mov	sp, r7
 8001566:	bd80      	pop	{r7, pc}

08001568 <_ZN5L647415L6474_EnableIrqEv>:

	void L6474_EnableIrq(void)
 8001568:	b480      	push	{r7}
 800156a:	b083      	sub	sp, #12
 800156c:	af00      	add	r7, sp, #0
 800156e:	6078      	str	r0, [r7, #4]
  \details Enables IRQ interrupts by clearing the I-bit in the CPSR.
           Can only be executed in Privileged modes.
 */
__STATIC_FORCEINLINE void __enable_irq(void)
{
  __ASM volatile ("cpsie i" : : : "memory");
 8001570:	b662      	cpsie	i
}
 8001572:	bf00      	nop
	{
		__enable_irq();
	}
 8001574:	bf00      	nop
 8001576:	370c      	adds	r7, #12
 8001578:	46bd      	mov	sp, r7
 800157a:	bc80      	pop	{r7}
 800157c:	4770      	bx	lr

0800157e <_ZN5L647416L6474_DisableIrqEv>:

	void L6474_DisableIrq(void)
 800157e:	b480      	push	{r7}
 8001580:	b083      	sub	sp, #12
 8001582:	af00      	add	r7, sp, #0
 8001584:	6078      	str	r0, [r7, #4]
  \details Disables IRQ interrupts by setting the I-bit in the CPSR.
           Can only be executed in Privileged modes.
 */
__STATIC_FORCEINLINE void __disable_irq(void)
{
  __ASM volatile ("cpsid i" : : : "memory");
 8001586:	b672      	cpsid	i
}
 8001588:	bf00      	nop
	{
		__disable_irq();
	}
 800158a:	bf00      	nop
 800158c:	370c      	adds	r7, #12
 800158e:	46bd      	mov	sp, r7
 8001590:	bc80      	pop	{r7}
 8001592:	4770      	bx	lr

08001594 <_ZN5L647413L6474_PwmInitEv>:

	void L6474_PwmInit(void) {}
 8001594:	b480      	push	{r7}
 8001596:	b083      	sub	sp, #12
 8001598:	af00      	add	r7, sp, #0
 800159a:	6078      	str	r0, [r7, #4]
 800159c:	bf00      	nop
 800159e:	370c      	adds	r7, #12
 80015a0:	46bd      	mov	sp, r7
 80015a2:	bc80      	pop	{r7}
 80015a4:	4770      	bx	lr
	...

080015a8 <_ZN5L647418L6474_ReleaseResetEv>:
	void L6474_PwmSetFreq(uint16_t frequency);
	void L6474_PwmStop(void);
	void L6474_ReleaseReset(void)
 80015a8:	b580      	push	{r7, lr}
 80015aa:	b082      	sub	sp, #8
 80015ac:	af00      	add	r7, sp, #0
 80015ae:	6078      	str	r0, [r7, #4]
	{
		HAL_GPIO_WritePin(GPIOA, GPIO_PIN_9, GPIO_PIN_SET);
 80015b0:	2201      	movs	r2, #1
 80015b2:	f44f 7100 	mov.w	r1, #512	@ 0x200
 80015b6:	4803      	ldr	r0, [pc, #12]	@ (80015c4 <_ZN5L647418L6474_ReleaseResetEv+0x1c>)
 80015b8:	f002 ff1e 	bl	80043f8 <HAL_GPIO_WritePin>
	}
 80015bc:	bf00      	nop
 80015be:	3708      	adds	r7, #8
 80015c0:	46bd      	mov	sp, r7
 80015c2:	bd80      	pop	{r7, pc}
 80015c4:	40010800 	.word	0x40010800

080015c8 <_ZN5L647422L6474_SetDirectionGpioEh>:

	void L6474_Reset(void)
	{
		HAL_GPIO_WritePin(GPIOA, GPIO_PIN_9, GPIO_PIN_RESET);
	}
	void L6474_SetDirectionGpio(uint8_t gpioState)
 80015c8:	b580      	push	{r7, lr}
 80015ca:	b082      	sub	sp, #8
 80015cc:	af00      	add	r7, sp, #0
 80015ce:	6078      	str	r0, [r7, #4]
 80015d0:	460b      	mov	r3, r1
 80015d2:	70fb      	strb	r3, [r7, #3]
	{
		HAL_GPIO_WritePin(GPIOA, GPIO_PIN_8, GPIO_PinState(gpioState));
 80015d4:	78fb      	ldrb	r3, [r7, #3]
 80015d6:	461a      	mov	r2, r3
 80015d8:	f44f 7180 	mov.w	r1, #256	@ 0x100
 80015dc:	4803      	ldr	r0, [pc, #12]	@ (80015ec <_ZN5L647422L6474_SetDirectionGpioEh+0x24>)
 80015de:	f002 ff0b 	bl	80043f8 <HAL_GPIO_WritePin>
	}
 80015e2:	bf00      	nop
 80015e4:	3708      	adds	r7, #8
 80015e6:	46bd      	mov	sp, r7
 80015e8:	bd80      	pop	{r7, pc}
 80015ea:	bf00      	nop
 80015ec:	40010800 	.word	0x40010800

080015f0 <_ZN5L647419L6474_SpiWriteBytesEPhS0_>:

	uint8_t L6474_SpiWriteBytes(uint8_t *pByteToTransmit, uint8_t *pReceivedByte)
 80015f0:	b580      	push	{r7, lr}
 80015f2:	b084      	sub	sp, #16
 80015f4:	af00      	add	r7, sp, #0
 80015f6:	60f8      	str	r0, [r7, #12]
 80015f8:	60b9      	str	r1, [r7, #8]
 80015fa:	607a      	str	r2, [r7, #4]
	{
		return (uint8_t) (ReadWrite(pReceivedByte, pByteToTransmit, number_of_devices) == COMPONENT_OK ? 0 : 1);
 80015fc:	4b08      	ldr	r3, [pc, #32]	@ (8001620 <_ZN5L647419L6474_SpiWriteBytesEPhS0_+0x30>)
 80015fe:	781b      	ldrb	r3, [r3, #0]
 8001600:	68ba      	ldr	r2, [r7, #8]
 8001602:	6879      	ldr	r1, [r7, #4]
 8001604:	68f8      	ldr	r0, [r7, #12]
 8001606:	f001 fb5d 	bl	8002cc4 <_ZN5L64749ReadWriteEPhS0_t>
 800160a:	4603      	mov	r3, r0
 800160c:	2b00      	cmp	r3, #0
 800160e:	bf14      	ite	ne
 8001610:	2301      	movne	r3, #1
 8001612:	2300      	moveq	r3, #0
 8001614:	b2db      	uxtb	r3, r3
	}
 8001616:	4618      	mov	r0, r3
 8001618:	3710      	adds	r7, #16
 800161a:	46bd      	mov	sp, r7
 800161c:	bd80      	pop	{r7, pc}
 800161e:	bf00      	nop
 8001620:	20000224 	.word	0x20000224

08001624 <_ZN9ComponentC1Ev>:
class Component {
 8001624:	b480      	push	{r7}
 8001626:	b083      	sub	sp, #12
 8001628:	af00      	add	r7, sp, #0
 800162a:	6078      	str	r0, [r7, #4]
 800162c:	4a04      	ldr	r2, [pc, #16]	@ (8001640 <_ZN9ComponentC1Ev+0x1c>)
 800162e:	687b      	ldr	r3, [r7, #4]
 8001630:	601a      	str	r2, [r3, #0]
 8001632:	687b      	ldr	r3, [r7, #4]
 8001634:	4618      	mov	r0, r3
 8001636:	370c      	adds	r7, #12
 8001638:	46bd      	mov	sp, r7
 800163a:	bc80      	pop	{r7}
 800163c:	4770      	bx	lr
 800163e:	bf00      	nop
 8001640:	08008bf0 	.word	0x08008bf0

08001644 <_ZN12StepperMotorC1Ev>:
class StepperMotor : public Component {
 8001644:	b580      	push	{r7, lr}
 8001646:	b082      	sub	sp, #8
 8001648:	af00      	add	r7, sp, #0
 800164a:	6078      	str	r0, [r7, #4]
 800164c:	687b      	ldr	r3, [r7, #4]
 800164e:	4618      	mov	r0, r3
 8001650:	f7ff ffe8 	bl	8001624 <_ZN9ComponentC1Ev>
 8001654:	4a03      	ldr	r2, [pc, #12]	@ (8001664 <_ZN12StepperMotorC1Ev+0x20>)
 8001656:	687b      	ldr	r3, [r7, #4]
 8001658:	601a      	str	r2, [r3, #0]
 800165a:	687b      	ldr	r3, [r7, #4]
 800165c:	4618      	mov	r0, r3
 800165e:	3708      	adds	r7, #8
 8001660:	46bd      	mov	sp, r7
 8001662:	bd80      	pop	{r7, pc}
 8001664:	08008b70 	.word	0x08008b70

08001668 <_ZN5L6474C1Ev>:

/* SPI Transmission for Daisy-Chain Configuration. */
uint8_t L6474::spi_tx_bursts[L6474_CMD_ARG_MAX_NB_BYTES][MAX_NUMBER_OF_DEVICES];
uint8_t L6474::spi_rx_bursts[L6474_CMD_ARG_MAX_NB_BYTES][MAX_NUMBER_OF_DEVICES];

L6474::L6474()
 8001668:	b580      	push	{r7, lr}
 800166a:	b082      	sub	sp, #8
 800166c:	af00      	add	r7, sp, #0
 800166e:	6078      	str	r0, [r7, #4]
 8001670:	687b      	ldr	r3, [r7, #4]
 8001672:	4618      	mov	r0, r3
 8001674:	f7ff ffe6 	bl	8001644 <_ZN12StepperMotorC1Ev>
 8001678:	4a16      	ldr	r2, [pc, #88]	@ (80016d4 <_ZN5L6474C1Ev+0x6c>)
 800167a:	687b      	ldr	r3, [r7, #4]
 800167c:	601a      	str	r2, [r3, #0]
 800167e:	687b      	ldr	r3, [r7, #4]
 8001680:	3304      	adds	r3, #4
 8001682:	4618      	mov	r0, r3
 8001684:	f001 fbca 	bl	8002e1c <_ZN3PwmC1Ev>
{
	 if (!(number_of_devices < MAX_NUMBER_OF_DEVICES)) {
 8001688:	4b13      	ldr	r3, [pc, #76]	@ (80016d8 <_ZN5L6474C1Ev+0x70>)
 800168a:	781b      	ldrb	r3, [r3, #0]
 800168c:	2b02      	cmp	r3, #2
 800168e:	d906      	bls.n	800169e <_ZN5L6474C1Ev+0x36>
		 printf("Instantiation of the L6474 component failed: it can be stacked up to %d times.\r\n", MAX_NUMBER_OF_DEVICES);
 8001690:	2103      	movs	r1, #3
 8001692:	4812      	ldr	r0, [pc, #72]	@ (80016dc <_ZN5L6474C1Ev+0x74>)
 8001694:	f005 fa64 	bl	8006b60 <iprintf>
		 exit(EXIT_FAILURE);
 8001698:	2001      	movs	r0, #1
 800169a:	f004 fc73 	bl	8005f84 <exit>
	 }

     error_handler_callback = 0;
 800169e:	687b      	ldr	r3, [r7, #4]
 80016a0:	2200      	movs	r2, #0
 80016a2:	625a      	str	r2, [r3, #36]	@ 0x24
     device_instance = number_of_devices++;
 80016a4:	4b0c      	ldr	r3, [pc, #48]	@ (80016d8 <_ZN5L6474C1Ev+0x70>)
 80016a6:	781b      	ldrb	r3, [r3, #0]
 80016a8:	1c5a      	adds	r2, r3, #1
 80016aa:	b2d1      	uxtb	r1, r2
 80016ac:	4a0a      	ldr	r2, [pc, #40]	@ (80016d8 <_ZN5L6474C1Ev+0x70>)
 80016ae:	7011      	strb	r1, [r2, #0]
 80016b0:	687a      	ldr	r2, [r7, #4]
 80016b2:	f882 3050 	strb.w	r3, [r2, #80]	@ 0x50
     memset(spi_tx_bursts, 0, L6474_CMD_ARG_MAX_NB_BYTES * MAX_NUMBER_OF_DEVICES * sizeof(uint8_t));
 80016b6:	220c      	movs	r2, #12
 80016b8:	2100      	movs	r1, #0
 80016ba:	4809      	ldr	r0, [pc, #36]	@ (80016e0 <_ZN5L6474C1Ev+0x78>)
 80016bc:	f005 fac0 	bl	8006c40 <memset>
     memset(spi_rx_bursts, 0, L6474_CMD_ARG_MAX_NB_BYTES * MAX_NUMBER_OF_DEVICES * sizeof(uint8_t));
 80016c0:	220c      	movs	r2, #12
 80016c2:	2100      	movs	r1, #0
 80016c4:	4807      	ldr	r0, [pc, #28]	@ (80016e4 <_ZN5L6474C1Ev+0x7c>)
 80016c6:	f005 fabb 	bl	8006c40 <memset>
}
 80016ca:	687b      	ldr	r3, [r7, #4]
 80016cc:	4618      	mov	r0, r3
 80016ce:	3708      	adds	r7, #8
 80016d0:	46bd      	mov	sp, r7
 80016d2:	bd80      	pop	{r7, pc}
 80016d4:	08008ad0 	.word	0x08008ad0
 80016d8:	20000224 	.word	0x20000224
 80016dc:	080089b8 	.word	0x080089b8
 80016e0:	20000228 	.word	0x20000228
 80016e4:	20000234 	.word	0x20000234

080016e8 <_ZN5L647415attach_flag_irqEPFvvE>:

void L6474::attach_flag_irq(void (*fptr)(void))
{
 80016e8:	b480      	push	{r7}
 80016ea:	b083      	sub	sp, #12
 80016ec:	af00      	add	r7, sp, #0
 80016ee:	6078      	str	r0, [r7, #4]
 80016f0:	6039      	str	r1, [r7, #0]
	irqHandlers.irq.func = fptr;
 80016f2:	4a04      	ldr	r2, [pc, #16]	@ (8001704 <_ZN5L647415attach_flag_irqEPFvvE+0x1c>)
 80016f4:	683b      	ldr	r3, [r7, #0]
 80016f6:	6093      	str	r3, [r2, #8]
}
 80016f8:	bf00      	nop
 80016fa:	370c      	adds	r7, #12
 80016fc:	46bd      	mov	sp, r7
 80016fe:	bc80      	pop	{r7}
 8001700:	4770      	bx	lr
 8001702:	bf00      	nop
 8001704:	20000374 	.word	0x20000374

08001708 <_ZN5L647415enable_flag_irqEv>:

void L6474::enable_flag_irq(void)
{
 8001708:	b480      	push	{r7}
 800170a:	b083      	sub	sp, #12
 800170c:	af00      	add	r7, sp, #0
 800170e:	6078      	str	r0, [r7, #4]
	irqHandlers.irq.enabled = true;
 8001710:	4b03      	ldr	r3, [pc, #12]	@ (8001720 <_ZN5L647415enable_flag_irqEv+0x18>)
 8001712:	2201      	movs	r2, #1
 8001714:	60da      	str	r2, [r3, #12]
}
 8001716:	bf00      	nop
 8001718:	370c      	adds	r7, #12
 800171a:	46bd      	mov	sp, r7
 800171c:	bc80      	pop	{r7}
 800171e:	4770      	bx	lr
 8001720:	20000374 	.word	0x20000374

08001724 <_ZN5L647424L6474_AttachErrorHandlerEPFvtE>:
{
	irqHandlers.irq.enabled = false;
}

void L6474::L6474_AttachErrorHandler(void (*callback)(uint16_t error))
{
 8001724:	b480      	push	{r7}
 8001726:	b083      	sub	sp, #12
 8001728:	af00      	add	r7, sp, #0
 800172a:	6078      	str	r0, [r7, #4]
 800172c:	6039      	str	r1, [r7, #0]
  error_handler_callback = (void (*)(uint16_t error)) callback;
 800172e:	687b      	ldr	r3, [r7, #4]
 8001730:	683a      	ldr	r2, [r7, #0]
 8001732:	625a      	str	r2, [r3, #36]	@ 0x24
}
 8001734:	bf00      	nop
 8001736:	370c      	adds	r7, #12
 8001738:	46bd      	mov	sp, r7
 800173a:	bc80      	pop	{r7}
 800173c:	4770      	bx	lr

0800173e <_ZN5L647410L6474_InitEPv>:

status_t L6474::L6474_Init(void *init)
{
 800173e:	b580      	push	{r7, lr}
 8001740:	b082      	sub	sp, #8
 8001742:	af00      	add	r7, sp, #0
 8001744:	6078      	str	r0, [r7, #4]
 8001746:	6039      	str	r1, [r7, #0]
  /* Initialise the PWMs used for the Step clocks ----------------------------*/
  L6474_PwmInit();
 8001748:	6878      	ldr	r0, [r7, #4]
 800174a:	f7ff ff23 	bl	8001594 <_ZN5L647413L6474_PwmInitEv>

  /* Initialise the L6474s ------------------------------------------------*/

  /* Standby-reset deactivation */
  L6474_ReleaseReset();
 800174e:	6878      	ldr	r0, [r7, #4]
 8001750:	f7ff ff2a 	bl	80015a8 <_ZN5L647418L6474_ReleaseResetEv>

  /* Let a delay after reset */
  L6474_Delay(1);
 8001754:	2101      	movs	r1, #1
 8001756:	6878      	ldr	r0, [r7, #4]
 8001758:	f7ff fefa 	bl	8001550 <_ZN5L647411L6474_DelayEm>

  /* Set device parameters to the predefined values from "l6474_target_config.h". */
  //L6474_SetDeviceParamsToPredefinedValues();

  if (init == NULL)
 800175c:	683b      	ldr	r3, [r7, #0]
 800175e:	2b00      	cmp	r3, #0
 8001760:	d103      	bne.n	800176a <_ZN5L647410L6474_InitEPv+0x2c>
    /* Set device registers to the predefined values from "l6474_target_config.h". */
    L6474_SetRegisterToPredefinedValues();
 8001762:	6878      	ldr	r0, [r7, #4]
 8001764:	f000 fea4 	bl	80024b0 <_ZN5L647435L6474_SetRegisterToPredefinedValuesEv>
 8001768:	e003      	b.n	8001772 <_ZN5L647410L6474_InitEPv+0x34>
  else
    /* Set device registers to the passed initialization values. */
    L6474_SetRegisterToInitializationValues((L6474_init_t *) init);
 800176a:	6839      	ldr	r1, [r7, #0]
 800176c:	6878      	ldr	r0, [r7, #4]
 800176e:	f000 ff99 	bl	80026a4 <_ZN5L647439L6474_SetRegisterToInitializationValuesEP12L6474_init_t>

  /* Disable L6474 powerstage */
  L6474_CmdDisable();
 8001772:	6878      	ldr	r0, [r7, #4]
 8001774:	f000 fa84 	bl	8001c80 <_ZN5L647416L6474_CmdDisableEv>

  /* Get Status to clear flags after start up */
  L6474_CmdGetStatus();
 8001778:	6878      	ldr	r0, [r7, #4]
 800177a:	f000 fb8d 	bl	8001e98 <_ZN5L647418L6474_CmdGetStatusEv>

  return COMPONENT_OK;
 800177e:	2300      	movs	r3, #0
}
 8001780:	4618      	mov	r0, r3
 8001782:	3708      	adds	r7, #8
 8001784:	46bd      	mov	sp, r7
 8001786:	bd80      	pop	{r7, pc}

08001788 <_ZN5L647412L6474_ReadIDEPh>:

status_t L6474::L6474_ReadID(uint8_t *id)
{
 8001788:	b480      	push	{r7}
 800178a:	b083      	sub	sp, #12
 800178c:	af00      	add	r7, sp, #0
 800178e:	6078      	str	r0, [r7, #4]
 8001790:	6039      	str	r1, [r7, #0]
  *id = device_instance;
 8001792:	687b      	ldr	r3, [r7, #4]
 8001794:	f893 2050 	ldrb.w	r2, [r3, #80]	@ 0x50
 8001798:	683b      	ldr	r3, [r7, #0]
 800179a:	701a      	strb	r2, [r3, #0]

  return COMPONENT_OK;
 800179c:	2300      	movs	r3, #0
}
 800179e:	4618      	mov	r0, r3
 80017a0:	370c      	adds	r7, #12
 80017a2:	46bd      	mov	sp, r7
 80017a4:	bc80      	pop	{r7}
 80017a6:	4770      	bx	lr

080017a8 <_ZN5L647421L6474_GetAccelerationEv>:

uint16_t L6474::L6474_GetAcceleration(void)
{
 80017a8:	b480      	push	{r7}
 80017aa:	b083      	sub	sp, #12
 80017ac:	af00      	add	r7, sp, #0
 80017ae:	6078      	str	r0, [r7, #4]
  return (device_prm.acceleration);
 80017b0:	687b      	ldr	r3, [r7, #4]
 80017b2:	f8b3 3040 	ldrh.w	r3, [r3, #64]	@ 0x40
 80017b6:	b29b      	uxth	r3, r3
}
 80017b8:	4618      	mov	r0, r3
 80017ba:	370c      	adds	r7, #12
 80017bc:	46bd      	mov	sp, r7
 80017be:	bc80      	pop	{r7}
 80017c0:	4770      	bx	lr

080017c2 <_ZN5L647421L6474_GetCurrentSpeedEv>:

uint16_t L6474::L6474_GetCurrentSpeed(void)
{
 80017c2:	b480      	push	{r7}
 80017c4:	b083      	sub	sp, #12
 80017c6:	af00      	add	r7, sp, #0
 80017c8:	6078      	str	r0, [r7, #4]
  return device_prm.speed;
 80017ca:	687b      	ldr	r3, [r7, #4]
 80017cc:	f8b3 3048 	ldrh.w	r3, [r3, #72]	@ 0x48
 80017d0:	b29b      	uxth	r3, r3
}
 80017d2:	4618      	mov	r0, r3
 80017d4:	370c      	adds	r7, #12
 80017d6:	46bd      	mov	sp, r7
 80017d8:	bc80      	pop	{r7}
 80017da:	4770      	bx	lr

080017dc <_ZN5L647421L6474_GetDecelerationEv>:

uint16_t L6474::L6474_GetDeceleration(void)
{
 80017dc:	b480      	push	{r7}
 80017de:	b083      	sub	sp, #12
 80017e0:	af00      	add	r7, sp, #0
 80017e2:	6078      	str	r0, [r7, #4]
  return (device_prm.deceleration);
 80017e4:	687b      	ldr	r3, [r7, #4]
 80017e6:	f8b3 3042 	ldrh.w	r3, [r3, #66]	@ 0x42
 80017ea:	b29b      	uxth	r3, r3
}
 80017ec:	4618      	mov	r0, r3
 80017ee:	370c      	adds	r7, #12
 80017f0:	46bd      	mov	sp, r7
 80017f2:	bc80      	pop	{r7}
 80017f4:	4770      	bx	lr

080017f6 <_ZN5L647420L6474_GetDeviceStateEv>:

motorState_t L6474::L6474_GetDeviceState(void)
{
 80017f6:	b480      	push	{r7}
 80017f8:	b083      	sub	sp, #12
 80017fa:	af00      	add	r7, sp, #0
 80017fc:	6078      	str	r0, [r7, #4]
  return device_prm.motionState;
 80017fe:	687b      	ldr	r3, [r7, #4]
 8001800:	f893 304c 	ldrb.w	r3, [r3, #76]	@ 0x4c
 8001804:	b2db      	uxtb	r3, r3
}
 8001806:	4618      	mov	r0, r3
 8001808:	370c      	adds	r7, #12
 800180a:	46bd      	mov	sp, r7
 800180c:	bc80      	pop	{r7}
 800180e:	4770      	bx	lr

08001810 <_ZN5L647418L6474_GetFwVersionEv>:

uint8_t L6474::L6474_GetFwVersion(void)
{
 8001810:	b480      	push	{r7}
 8001812:	b083      	sub	sp, #12
 8001814:	af00      	add	r7, sp, #0
 8001816:	6078      	str	r0, [r7, #4]
  return (L6474_FW_VERSION);
 8001818:	2305      	movs	r3, #5
}
 800181a:	4618      	mov	r0, r3
 800181c:	370c      	adds	r7, #12
 800181e:	46bd      	mov	sp, r7
 8001820:	bc80      	pop	{r7}
 8001822:	4770      	bx	lr

08001824 <_ZN5L647413L6474_GetMarkEv>:

int32_t L6474::L6474_GetMark(void)
{
 8001824:	b580      	push	{r7, lr}
 8001826:	b082      	sub	sp, #8
 8001828:	af00      	add	r7, sp, #0
 800182a:	6078      	str	r0, [r7, #4]
  return L6474_ConvertPosition(L6474_CmdGetParam(L6474_MARK));
 800182c:	2103      	movs	r1, #3
 800182e:	6878      	ldr	r0, [r7, #4]
 8001830:	f000 fa3e 	bl	8001cb0 <_ZN5L647417L6474_CmdGetParamE17L6474_Registers_t>
 8001834:	4603      	mov	r3, r0
 8001836:	4619      	mov	r1, r3
 8001838:	6878      	ldr	r0, [r7, #4]
 800183a:	f000 fdb0 	bl	800239e <_ZN5L647421L6474_ConvertPositionEm>
 800183e:	4603      	mov	r3, r0
}
 8001840:	4618      	mov	r0, r3
 8001842:	3708      	adds	r7, #8
 8001844:	46bd      	mov	sp, r7
 8001846:	bd80      	pop	{r7, pc}

08001848 <_ZN5L647417L6474_GetMaxSpeedEv>:

uint16_t L6474::L6474_GetMaxSpeed(void)
{
 8001848:	b480      	push	{r7}
 800184a:	b083      	sub	sp, #12
 800184c:	af00      	add	r7, sp, #0
 800184e:	6078      	str	r0, [r7, #4]
  return (device_prm.maxSpeed);
 8001850:	687b      	ldr	r3, [r7, #4]
 8001852:	f8b3 3044 	ldrh.w	r3, [r3, #68]	@ 0x44
 8001856:	b29b      	uxth	r3, r3
}
 8001858:	4618      	mov	r0, r3
 800185a:	370c      	adds	r7, #12
 800185c:	46bd      	mov	sp, r7
 800185e:	bc80      	pop	{r7}
 8001860:	4770      	bx	lr

08001862 <_ZN5L647417L6474_GetMinSpeedEv>:

uint16_t L6474::L6474_GetMinSpeed(void)
{
 8001862:	b480      	push	{r7}
 8001864:	b083      	sub	sp, #12
 8001866:	af00      	add	r7, sp, #0
 8001868:	6078      	str	r0, [r7, #4]
  return (device_prm.minSpeed);
 800186a:	687b      	ldr	r3, [r7, #4]
 800186c:	f8b3 3046 	ldrh.w	r3, [r3, #70]	@ 0x46
 8001870:	b29b      	uxth	r3, r3
}
 8001872:	4618      	mov	r0, r3
 8001874:	370c      	adds	r7, #12
 8001876:	46bd      	mov	sp, r7
 8001878:	bc80      	pop	{r7}
 800187a:	4770      	bx	lr

0800187c <_ZN5L647417L6474_GetPositionEv>:

int32_t L6474::L6474_GetPosition(void)
{
 800187c:	b580      	push	{r7, lr}
 800187e:	b082      	sub	sp, #8
 8001880:	af00      	add	r7, sp, #0
 8001882:	6078      	str	r0, [r7, #4]
  return L6474_ConvertPosition(L6474_CmdGetParam(L6474_ABS_POS));
 8001884:	2101      	movs	r1, #1
 8001886:	6878      	ldr	r0, [r7, #4]
 8001888:	f000 fa12 	bl	8001cb0 <_ZN5L647417L6474_CmdGetParamE17L6474_Registers_t>
 800188c:	4603      	mov	r3, r0
 800188e:	4619      	mov	r1, r3
 8001890:	6878      	ldr	r0, [r7, #4]
 8001892:	f000 fd84 	bl	800239e <_ZN5L647421L6474_ConvertPositionEm>
 8001896:	4603      	mov	r3, r0
}
 8001898:	4618      	mov	r0, r3
 800189a:	3708      	adds	r7, #8
 800189c:	46bd      	mov	sp, r7
 800189e:	bd80      	pop	{r7, pc}

080018a0 <_ZN5L647412L6474_GoHomeEv>:

void L6474::L6474_GoHome(void)
{
 80018a0:	b580      	push	{r7, lr}
 80018a2:	b082      	sub	sp, #8
 80018a4:	af00      	add	r7, sp, #0
 80018a6:	6078      	str	r0, [r7, #4]
  L6474_GoTo(0);
 80018a8:	2100      	movs	r1, #0
 80018aa:	6878      	ldr	r0, [r7, #4]
 80018ac:	f000 f81c 	bl	80018e8 <_ZN5L647410L6474_GoToEl>
}
 80018b0:	bf00      	nop
 80018b2:	3708      	adds	r7, #8
 80018b4:	46bd      	mov	sp, r7
 80018b6:	bd80      	pop	{r7, pc}

080018b8 <_ZN5L647412L6474_GoMarkEv>:

void L6474::L6474_GoMark(void)
{
 80018b8:	b580      	push	{r7, lr}
 80018ba:	b084      	sub	sp, #16
 80018bc:	af00      	add	r7, sp, #0
 80018be:	6078      	str	r0, [r7, #4]
    uint32_t mark;

    mark = L6474_ConvertPosition(L6474_CmdGetParam(L6474_MARK));
 80018c0:	2103      	movs	r1, #3
 80018c2:	6878      	ldr	r0, [r7, #4]
 80018c4:	f000 f9f4 	bl	8001cb0 <_ZN5L647417L6474_CmdGetParamE17L6474_Registers_t>
 80018c8:	4603      	mov	r3, r0
 80018ca:	4619      	mov	r1, r3
 80018cc:	6878      	ldr	r0, [r7, #4]
 80018ce:	f000 fd66 	bl	800239e <_ZN5L647421L6474_ConvertPositionEm>
 80018d2:	4603      	mov	r3, r0
 80018d4:	60fb      	str	r3, [r7, #12]
    L6474_GoTo(mark);
 80018d6:	68fb      	ldr	r3, [r7, #12]
 80018d8:	4619      	mov	r1, r3
 80018da:	6878      	ldr	r0, [r7, #4]
 80018dc:	f000 f804 	bl	80018e8 <_ZN5L647410L6474_GoToEl>
}
 80018e0:	bf00      	nop
 80018e2:	3710      	adds	r7, #16
 80018e4:	46bd      	mov	sp, r7
 80018e6:	bd80      	pop	{r7, pc}

080018e8 <_ZN5L647410L6474_GoToEl>:

void L6474::L6474_GoTo(int32_t targetPosition)
{
 80018e8:	b580      	push	{r7, lr}
 80018ea:	b084      	sub	sp, #16
 80018ec:	af00      	add	r7, sp, #0
 80018ee:	6078      	str	r0, [r7, #4]
 80018f0:	6039      	str	r1, [r7, #0]
  motorDir_t direction;
  int32_t steps;

  /* Eventually deactivate motor */
  if (device_prm.motionState != INACTIVE)
 80018f2:	687b      	ldr	r3, [r7, #4]
 80018f4:	f893 304c 	ldrb.w	r3, [r3, #76]	@ 0x4c
 80018f8:	b2db      	uxtb	r3, r3
 80018fa:	2b03      	cmp	r3, #3
 80018fc:	bf14      	ite	ne
 80018fe:	2301      	movne	r3, #1
 8001900:	2300      	moveq	r3, #0
 8001902:	b2db      	uxtb	r3, r3
 8001904:	2b00      	cmp	r3, #0
 8001906:	d002      	beq.n	800190e <_ZN5L647410L6474_GoToEl+0x26>
  {
    L6474_HardStop();
 8001908:	6878      	ldr	r0, [r7, #4]
 800190a:	f000 f83a 	bl	8001982 <_ZN5L647414L6474_HardStopEv>
  }

  /* Get current position */
  device_prm.currentPosition = L6474_ConvertPosition(L6474_CmdGetParam(L6474_ABS_POS));
 800190e:	2101      	movs	r1, #1
 8001910:	6878      	ldr	r0, [r7, #4]
 8001912:	f000 f9cd 	bl	8001cb0 <_ZN5L647417L6474_CmdGetParamE17L6474_Registers_t>
 8001916:	4603      	mov	r3, r0
 8001918:	4619      	mov	r1, r3
 800191a:	6878      	ldr	r0, [r7, #4]
 800191c:	f000 fd3f 	bl	800239e <_ZN5L647421L6474_ConvertPositionEm>
 8001920:	4602      	mov	r2, r0
 8001922:	687b      	ldr	r3, [r7, #4]
 8001924:	62da      	str	r2, [r3, #44]	@ 0x2c

  /* Compute the number of steps to perform */
  steps = targetPosition - device_prm.currentPosition;
 8001926:	687b      	ldr	r3, [r7, #4]
 8001928:	6adb      	ldr	r3, [r3, #44]	@ 0x2c
 800192a:	683a      	ldr	r2, [r7, #0]
 800192c:	1ad3      	subs	r3, r2, r3
 800192e:	60bb      	str	r3, [r7, #8]

  if (steps >= 0)
 8001930:	68bb      	ldr	r3, [r7, #8]
 8001932:	2b00      	cmp	r3, #0
 8001934:	db05      	blt.n	8001942 <_ZN5L647410L6474_GoToEl+0x5a>
  {
    device_prm.stepsToTake = steps;
 8001936:	68ba      	ldr	r2, [r7, #8]
 8001938:	687b      	ldr	r3, [r7, #4]
 800193a:	63da      	str	r2, [r3, #60]	@ 0x3c
    direction = FORWARD;
 800193c:	2301      	movs	r3, #1
 800193e:	73fb      	strb	r3, [r7, #15]
 8001940:	e006      	b.n	8001950 <_ZN5L647410L6474_GoToEl+0x68>
  }
  else
  {
    device_prm.stepsToTake = -steps;
 8001942:	68bb      	ldr	r3, [r7, #8]
 8001944:	425b      	negs	r3, r3
 8001946:	461a      	mov	r2, r3
 8001948:	687b      	ldr	r3, [r7, #4]
 800194a:	63da      	str	r2, [r3, #60]	@ 0x3c
    direction = BACKWARD;
 800194c:	2300      	movs	r3, #0
 800194e:	73fb      	strb	r3, [r7, #15]
  }

  if (steps != 0)
 8001950:	68bb      	ldr	r3, [r7, #8]
 8001952:	2b00      	cmp	r3, #0
 8001954:	d011      	beq.n	800197a <_ZN5L647410L6474_GoToEl+0x92>
  {
    device_prm.commandExecuted = MOVE_CMD;
 8001956:	687b      	ldr	r3, [r7, #4]
 8001958:	2201      	movs	r2, #1
 800195a:	f883 204a 	strb.w	r2, [r3, #74]	@ 0x4a

    /* Direction setup */
    L6474_SetDirection(direction);
 800195e:	7bfb      	ldrb	r3, [r7, #15]
 8001960:	4619      	mov	r1, r3
 8001962:	6878      	ldr	r0, [r7, #4]
 8001964:	f000 fc69 	bl	800223a <_ZN5L647418L6474_SetDirectionE10motorDir_t>

    L6474_ComputeSpeedProfile(device_prm.stepsToTake);
 8001968:	687b      	ldr	r3, [r7, #4]
 800196a:	6bdb      	ldr	r3, [r3, #60]	@ 0x3c
 800196c:	4619      	mov	r1, r3
 800196e:	6878      	ldr	r0, [r7, #4]
 8001970:	f000 fca1 	bl	80022b6 <_ZN5L647425L6474_ComputeSpeedProfileEm>

    /* Motor activation */
    L6474_StartMovement();
 8001974:	6878      	ldr	r0, [r7, #4]
 8001976:	f000 ff5d 	bl	8002834 <_ZN5L647419L6474_StartMovementEv>
  }
}
 800197a:	bf00      	nop
 800197c:	3710      	adds	r7, #16
 800197e:	46bd      	mov	sp, r7
 8001980:	bd80      	pop	{r7, pc}

08001982 <_ZN5L647414L6474_HardStopEv>:

void L6474::L6474_HardStop(void)
{
 8001982:	b580      	push	{r7, lr}
 8001984:	b082      	sub	sp, #8
 8001986:	af00      	add	r7, sp, #0
 8001988:	6078      	str	r0, [r7, #4]
  /* Disable corresponding PWM */
  L6474_PwmStop();
 800198a:	6878      	ldr	r0, [r7, #4]
 800198c:	f001 fa2e 	bl	8002dec <_ZN5L647413L6474_PwmStopEv>

  /* Set inactive state */
  device_prm.motionState = INACTIVE;
 8001990:	687b      	ldr	r3, [r7, #4]
 8001992:	2203      	movs	r2, #3
 8001994:	f883 204c 	strb.w	r2, [r3, #76]	@ 0x4c
  device_prm.commandExecuted = NO_CMD;
 8001998:	687b      	ldr	r3, [r7, #4]
 800199a:	2203      	movs	r2, #3
 800199c:	f883 204a 	strb.w	r2, [r3, #74]	@ 0x4a
  device_prm.stepsToTake = MAX_STEPS;
 80019a0:	687b      	ldr	r3, [r7, #4]
 80019a2:	f06f 4200 	mvn.w	r2, #2147483648	@ 0x80000000
 80019a6:	63da      	str	r2, [r3, #60]	@ 0x3c
}
 80019a8:	bf00      	nop
 80019aa:	3708      	adds	r7, #8
 80019ac:	46bd      	mov	sp, r7
 80019ae:	bd80      	pop	{r7, pc}

080019b0 <_ZN5L647410L6474_MoveE10motorDir_tm>:

void L6474::L6474_Move(motorDir_t direction, uint32_t stepCount)
{
 80019b0:	b580      	push	{r7, lr}
 80019b2:	b084      	sub	sp, #16
 80019b4:	af00      	add	r7, sp, #0
 80019b6:	60f8      	str	r0, [r7, #12]
 80019b8:	460b      	mov	r3, r1
 80019ba:	607a      	str	r2, [r7, #4]
 80019bc:	72fb      	strb	r3, [r7, #11]
  /* Eventually deactivate motor */
  if (device_prm.motionState != INACTIVE)
 80019be:	68fb      	ldr	r3, [r7, #12]
 80019c0:	f893 304c 	ldrb.w	r3, [r3, #76]	@ 0x4c
 80019c4:	b2db      	uxtb	r3, r3
 80019c6:	2b03      	cmp	r3, #3
 80019c8:	bf14      	ite	ne
 80019ca:	2301      	movne	r3, #1
 80019cc:	2300      	moveq	r3, #0
 80019ce:	b2db      	uxtb	r3, r3
 80019d0:	2b00      	cmp	r3, #0
 80019d2:	d002      	beq.n	80019da <_ZN5L647410L6474_MoveE10motorDir_tm+0x2a>
  {
    L6474_HardStop();
 80019d4:	68f8      	ldr	r0, [r7, #12]
 80019d6:	f7ff ffd4 	bl	8001982 <_ZN5L647414L6474_HardStopEv>
  }

  if (stepCount != 0)
 80019da:	687b      	ldr	r3, [r7, #4]
 80019dc:	2b00      	cmp	r3, #0
 80019de:	d01e      	beq.n	8001a1e <_ZN5L647410L6474_MoveE10motorDir_tm+0x6e>
  {
    device_prm.stepsToTake = stepCount;
 80019e0:	68fb      	ldr	r3, [r7, #12]
 80019e2:	687a      	ldr	r2, [r7, #4]
 80019e4:	63da      	str	r2, [r3, #60]	@ 0x3c

    device_prm.commandExecuted = MOVE_CMD;
 80019e6:	68fb      	ldr	r3, [r7, #12]
 80019e8:	2201      	movs	r2, #1
 80019ea:	f883 204a 	strb.w	r2, [r3, #74]	@ 0x4a

    device_prm.currentPosition = L6474_ConvertPosition(L6474_CmdGetParam(L6474_ABS_POS));
 80019ee:	2101      	movs	r1, #1
 80019f0:	68f8      	ldr	r0, [r7, #12]
 80019f2:	f000 f95d 	bl	8001cb0 <_ZN5L647417L6474_CmdGetParamE17L6474_Registers_t>
 80019f6:	4603      	mov	r3, r0
 80019f8:	4619      	mov	r1, r3
 80019fa:	68f8      	ldr	r0, [r7, #12]
 80019fc:	f000 fccf 	bl	800239e <_ZN5L647421L6474_ConvertPositionEm>
 8001a00:	4602      	mov	r2, r0
 8001a02:	68fb      	ldr	r3, [r7, #12]
 8001a04:	62da      	str	r2, [r3, #44]	@ 0x2c

    /* Direction setup */
    L6474_SetDirection(direction);
 8001a06:	7afb      	ldrb	r3, [r7, #11]
 8001a08:	4619      	mov	r1, r3
 8001a0a:	68f8      	ldr	r0, [r7, #12]
 8001a0c:	f000 fc15 	bl	800223a <_ZN5L647418L6474_SetDirectionE10motorDir_t>

    L6474_ComputeSpeedProfile(stepCount);
 8001a10:	6879      	ldr	r1, [r7, #4]
 8001a12:	68f8      	ldr	r0, [r7, #12]
 8001a14:	f000 fc4f 	bl	80022b6 <_ZN5L647425L6474_ComputeSpeedProfileEm>

    /* Motor activation */
    L6474_StartMovement();
 8001a18:	68f8      	ldr	r0, [r7, #12]
 8001a1a:	f000 ff0b 	bl	8002834 <_ZN5L647419L6474_StartMovementEv>
  }
}
 8001a1e:	bf00      	nop
 8001a20:	3710      	adds	r7, #16
 8001a22:	46bd      	mov	sp, r7
 8001a24:	bd80      	pop	{r7, pc}

08001a26 <_ZN5L64749L6474_RunE10motorDir_t>:

void L6474::L6474_Run(motorDir_t direction)
{
 8001a26:	b580      	push	{r7, lr}
 8001a28:	b082      	sub	sp, #8
 8001a2a:	af00      	add	r7, sp, #0
 8001a2c:	6078      	str	r0, [r7, #4]
 8001a2e:	460b      	mov	r3, r1
 8001a30:	70fb      	strb	r3, [r7, #3]
  /* Eventually deactivate motor */
  if (device_prm.motionState != INACTIVE)
 8001a32:	687b      	ldr	r3, [r7, #4]
 8001a34:	f893 304c 	ldrb.w	r3, [r3, #76]	@ 0x4c
 8001a38:	b2db      	uxtb	r3, r3
 8001a3a:	2b03      	cmp	r3, #3
 8001a3c:	bf14      	ite	ne
 8001a3e:	2301      	movne	r3, #1
 8001a40:	2300      	moveq	r3, #0
 8001a42:	b2db      	uxtb	r3, r3
 8001a44:	2b00      	cmp	r3, #0
 8001a46:	d002      	beq.n	8001a4e <_ZN5L64749L6474_RunE10motorDir_t+0x28>
  {
    L6474_HardStop();
 8001a48:	6878      	ldr	r0, [r7, #4]
 8001a4a:	f7ff ff9a 	bl	8001982 <_ZN5L647414L6474_HardStopEv>
  }

  /* Direction setup */
  L6474_SetDirection(direction);
 8001a4e:	78fb      	ldrb	r3, [r7, #3]
 8001a50:	4619      	mov	r1, r3
 8001a52:	6878      	ldr	r0, [r7, #4]
 8001a54:	f000 fbf1 	bl	800223a <_ZN5L647418L6474_SetDirectionE10motorDir_t>

  device_prm.commandExecuted = RUN_CMD;
 8001a58:	687b      	ldr	r3, [r7, #4]
 8001a5a:	2200      	movs	r2, #0
 8001a5c:	f883 204a 	strb.w	r2, [r3, #74]	@ 0x4a

  /* Motor activation */
  L6474_StartMovement();
 8001a60:	6878      	ldr	r0, [r7, #4]
 8001a62:	f000 fee7 	bl	8002834 <_ZN5L647419L6474_StartMovementEv>
}
 8001a66:	bf00      	nop
 8001a68:	3708      	adds	r7, #8
 8001a6a:	46bd      	mov	sp, r7
 8001a6c:	bd80      	pop	{r7, pc}

08001a6e <_ZN5L647421L6474_SetAccelerationEt>:

bool L6474::L6474_SetAcceleration(uint16_t newAcc)
{
 8001a6e:	b480      	push	{r7}
 8001a70:	b085      	sub	sp, #20
 8001a72:	af00      	add	r7, sp, #0
 8001a74:	6078      	str	r0, [r7, #4]
 8001a76:	460b      	mov	r3, r1
 8001a78:	807b      	strh	r3, [r7, #2]
  bool cmdExecuted = FALSE;
 8001a7a:	2300      	movs	r3, #0
 8001a7c:	73fb      	strb	r3, [r7, #15]
  if ((newAcc != 0)&&
 8001a7e:	887b      	ldrh	r3, [r7, #2]
 8001a80:	2b00      	cmp	r3, #0
 8001a82:	d00d      	beq.n	8001aa0 <_ZN5L647421L6474_SetAccelerationEt+0x32>
      ((device_prm.motionState == INACTIVE)||
 8001a84:	687b      	ldr	r3, [r7, #4]
 8001a86:	f893 304c 	ldrb.w	r3, [r3, #76]	@ 0x4c
 8001a8a:	b2db      	uxtb	r3, r3
  if ((newAcc != 0)&&
 8001a8c:	2b03      	cmp	r3, #3
 8001a8e:	d005      	beq.n	8001a9c <_ZN5L647421L6474_SetAccelerationEt+0x2e>
       (device_prm.commandExecuted == RUN_CMD)))
 8001a90:	687b      	ldr	r3, [r7, #4]
 8001a92:	f893 304a 	ldrb.w	r3, [r3, #74]	@ 0x4a
 8001a96:	b2db      	uxtb	r3, r3
      ((device_prm.motionState == INACTIVE)||
 8001a98:	2b00      	cmp	r3, #0
 8001a9a:	d101      	bne.n	8001aa0 <_ZN5L647421L6474_SetAccelerationEt+0x32>
  if ((newAcc != 0)&&
 8001a9c:	2301      	movs	r3, #1
 8001a9e:	e000      	b.n	8001aa2 <_ZN5L647421L6474_SetAccelerationEt+0x34>
 8001aa0:	2300      	movs	r3, #0
 8001aa2:	2b00      	cmp	r3, #0
 8001aa4:	d005      	beq.n	8001ab2 <_ZN5L647421L6474_SetAccelerationEt+0x44>
  {
    device_prm.acceleration = newAcc;
 8001aa6:	687b      	ldr	r3, [r7, #4]
 8001aa8:	887a      	ldrh	r2, [r7, #2]
 8001aaa:	f8a3 2040 	strh.w	r2, [r3, #64]	@ 0x40
    cmdExecuted = TRUE;
 8001aae:	2301      	movs	r3, #1
 8001ab0:	73fb      	strb	r3, [r7, #15]
  }
  return cmdExecuted;
 8001ab2:	7bfb      	ldrb	r3, [r7, #15]
}
 8001ab4:	4618      	mov	r0, r3
 8001ab6:	3714      	adds	r7, #20
 8001ab8:	46bd      	mov	sp, r7
 8001aba:	bc80      	pop	{r7}
 8001abc:	4770      	bx	lr

08001abe <_ZN5L647421L6474_SetDecelerationEt>:

bool L6474::L6474_SetDeceleration(uint16_t newDec)
{
 8001abe:	b480      	push	{r7}
 8001ac0:	b085      	sub	sp, #20
 8001ac2:	af00      	add	r7, sp, #0
 8001ac4:	6078      	str	r0, [r7, #4]
 8001ac6:	460b      	mov	r3, r1
 8001ac8:	807b      	strh	r3, [r7, #2]
  bool cmdExecuted = FALSE;
 8001aca:	2300      	movs	r3, #0
 8001acc:	73fb      	strb	r3, [r7, #15]
  if ((newDec != 0)&&
 8001ace:	887b      	ldrh	r3, [r7, #2]
 8001ad0:	2b00      	cmp	r3, #0
 8001ad2:	d00d      	beq.n	8001af0 <_ZN5L647421L6474_SetDecelerationEt+0x32>
      ((device_prm.motionState == INACTIVE)||
 8001ad4:	687b      	ldr	r3, [r7, #4]
 8001ad6:	f893 304c 	ldrb.w	r3, [r3, #76]	@ 0x4c
 8001ada:	b2db      	uxtb	r3, r3
  if ((newDec != 0)&&
 8001adc:	2b03      	cmp	r3, #3
 8001ade:	d005      	beq.n	8001aec <_ZN5L647421L6474_SetDecelerationEt+0x2e>
       (device_prm.commandExecuted == RUN_CMD)))
 8001ae0:	687b      	ldr	r3, [r7, #4]
 8001ae2:	f893 304a 	ldrb.w	r3, [r3, #74]	@ 0x4a
 8001ae6:	b2db      	uxtb	r3, r3
      ((device_prm.motionState == INACTIVE)||
 8001ae8:	2b00      	cmp	r3, #0
 8001aea:	d101      	bne.n	8001af0 <_ZN5L647421L6474_SetDecelerationEt+0x32>
  if ((newDec != 0)&&
 8001aec:	2301      	movs	r3, #1
 8001aee:	e000      	b.n	8001af2 <_ZN5L647421L6474_SetDecelerationEt+0x34>
 8001af0:	2300      	movs	r3, #0
 8001af2:	2b00      	cmp	r3, #0
 8001af4:	d005      	beq.n	8001b02 <_ZN5L647421L6474_SetDecelerationEt+0x44>
  {
    device_prm.deceleration = newDec;
 8001af6:	687b      	ldr	r3, [r7, #4]
 8001af8:	887a      	ldrh	r2, [r7, #2]
 8001afa:	f8a3 2042 	strh.w	r2, [r3, #66]	@ 0x42
    cmdExecuted = TRUE;
 8001afe:	2301      	movs	r3, #1
 8001b00:	73fb      	strb	r3, [r7, #15]
  }
  return cmdExecuted;
 8001b02:	7bfb      	ldrb	r3, [r7, #15]
}
 8001b04:	4618      	mov	r0, r3
 8001b06:	3714      	adds	r7, #20
 8001b08:	46bd      	mov	sp, r7
 8001b0a:	bc80      	pop	{r7}
 8001b0c:	4770      	bx	lr

08001b0e <_ZN5L647413L6474_SetHomeEv>:

void L6474::L6474_SetHome(void)
{
 8001b0e:	b580      	push	{r7, lr}
 8001b10:	b082      	sub	sp, #8
 8001b12:	af00      	add	r7, sp, #0
 8001b14:	6078      	str	r0, [r7, #4]
  L6474_CmdSetParam(L6474_ABS_POS, 0);
 8001b16:	2200      	movs	r2, #0
 8001b18:	2101      	movs	r1, #1
 8001b1a:	6878      	ldr	r0, [r7, #4]
 8001b1c:	f000 fa44 	bl	8001fa8 <_ZN5L647417L6474_CmdSetParamE17L6474_Registers_tm>
}
 8001b20:	bf00      	nop
 8001b22:	3708      	adds	r7, #8
 8001b24:	46bd      	mov	sp, r7
 8001b26:	bd80      	pop	{r7, pc}

08001b28 <_ZN5L647413L6474_SetMarkEv>:

void L6474::L6474_SetMark(void)
{
 8001b28:	b580      	push	{r7, lr}
 8001b2a:	b084      	sub	sp, #16
 8001b2c:	af00      	add	r7, sp, #0
 8001b2e:	6078      	str	r0, [r7, #4]
  uint32_t mark = L6474_CmdGetParam(L6474_ABS_POS);
 8001b30:	2101      	movs	r1, #1
 8001b32:	6878      	ldr	r0, [r7, #4]
 8001b34:	f000 f8bc 	bl	8001cb0 <_ZN5L647417L6474_CmdGetParamE17L6474_Registers_t>
 8001b38:	60f8      	str	r0, [r7, #12]
  L6474_CmdSetParam(L6474_MARK, mark);
 8001b3a:	68fa      	ldr	r2, [r7, #12]
 8001b3c:	2103      	movs	r1, #3
 8001b3e:	6878      	ldr	r0, [r7, #4]
 8001b40:	f000 fa32 	bl	8001fa8 <_ZN5L647417L6474_CmdSetParamE17L6474_Registers_tm>
}
 8001b44:	bf00      	nop
 8001b46:	3710      	adds	r7, #16
 8001b48:	46bd      	mov	sp, r7
 8001b4a:	bd80      	pop	{r7, pc}

08001b4c <_ZN5L647417L6474_SetMaxSpeedEt>:

bool L6474::L6474_SetMaxSpeed(uint16_t newMaxSpeed)
{
 8001b4c:	b480      	push	{r7}
 8001b4e:	b085      	sub	sp, #20
 8001b50:	af00      	add	r7, sp, #0
 8001b52:	6078      	str	r0, [r7, #4]
 8001b54:	460b      	mov	r3, r1
 8001b56:	807b      	strh	r3, [r7, #2]
  bool cmdExecuted = FALSE;
 8001b58:	2300      	movs	r3, #0
 8001b5a:	73fb      	strb	r3, [r7, #15]
  if ((newMaxSpeed >= L6474_MIN_PWM_FREQ)&&
      (newMaxSpeed <= L6474_MAX_PWM_FREQ) &&
      (device_prm.minSpeed <= newMaxSpeed) &&
 8001b5c:	887b      	ldrh	r3, [r7, #2]
 8001b5e:	2b01      	cmp	r3, #1
 8001b60:	d919      	bls.n	8001b96 <_ZN5L647417L6474_SetMaxSpeedEt+0x4a>
  if ((newMaxSpeed >= L6474_MIN_PWM_FREQ)&&
 8001b62:	887b      	ldrh	r3, [r7, #2]
 8001b64:	f242 7210 	movw	r2, #10000	@ 0x2710
 8001b68:	4293      	cmp	r3, r2
 8001b6a:	d814      	bhi.n	8001b96 <_ZN5L647417L6474_SetMaxSpeedEt+0x4a>
      (device_prm.minSpeed <= newMaxSpeed) &&
 8001b6c:	687b      	ldr	r3, [r7, #4]
 8001b6e:	f8b3 3046 	ldrh.w	r3, [r3, #70]	@ 0x46
 8001b72:	b29b      	uxth	r3, r3
      (newMaxSpeed <= L6474_MAX_PWM_FREQ) &&
 8001b74:	887a      	ldrh	r2, [r7, #2]
 8001b76:	429a      	cmp	r2, r3
 8001b78:	d30d      	bcc.n	8001b96 <_ZN5L647417L6474_SetMaxSpeedEt+0x4a>
      ((device_prm.motionState == INACTIVE)||
 8001b7a:	687b      	ldr	r3, [r7, #4]
 8001b7c:	f893 304c 	ldrb.w	r3, [r3, #76]	@ 0x4c
 8001b80:	b2db      	uxtb	r3, r3
      (device_prm.minSpeed <= newMaxSpeed) &&
 8001b82:	2b03      	cmp	r3, #3
 8001b84:	d005      	beq.n	8001b92 <_ZN5L647417L6474_SetMaxSpeedEt+0x46>
       (device_prm.commandExecuted == RUN_CMD)))
 8001b86:	687b      	ldr	r3, [r7, #4]
 8001b88:	f893 304a 	ldrb.w	r3, [r3, #74]	@ 0x4a
 8001b8c:	b2db      	uxtb	r3, r3
      ((device_prm.motionState == INACTIVE)||
 8001b8e:	2b00      	cmp	r3, #0
 8001b90:	d101      	bne.n	8001b96 <_ZN5L647417L6474_SetMaxSpeedEt+0x4a>
      (device_prm.minSpeed <= newMaxSpeed) &&
 8001b92:	2301      	movs	r3, #1
 8001b94:	e000      	b.n	8001b98 <_ZN5L647417L6474_SetMaxSpeedEt+0x4c>
 8001b96:	2300      	movs	r3, #0
  if ((newMaxSpeed >= L6474_MIN_PWM_FREQ)&&
 8001b98:	2b00      	cmp	r3, #0
 8001b9a:	d005      	beq.n	8001ba8 <_ZN5L647417L6474_SetMaxSpeedEt+0x5c>
  {
    device_prm.maxSpeed = newMaxSpeed;
 8001b9c:	687b      	ldr	r3, [r7, #4]
 8001b9e:	887a      	ldrh	r2, [r7, #2]
 8001ba0:	f8a3 2044 	strh.w	r2, [r3, #68]	@ 0x44
    cmdExecuted = TRUE;
 8001ba4:	2301      	movs	r3, #1
 8001ba6:	73fb      	strb	r3, [r7, #15]
  }
  return cmdExecuted;
 8001ba8:	7bfb      	ldrb	r3, [r7, #15]
}
 8001baa:	4618      	mov	r0, r3
 8001bac:	3714      	adds	r7, #20
 8001bae:	46bd      	mov	sp, r7
 8001bb0:	bc80      	pop	{r7}
 8001bb2:	4770      	bx	lr

08001bb4 <_ZN5L647417L6474_SetMinSpeedEt>:

bool L6474::L6474_SetMinSpeed(uint16_t newMinSpeed)
{
 8001bb4:	b480      	push	{r7}
 8001bb6:	b085      	sub	sp, #20
 8001bb8:	af00      	add	r7, sp, #0
 8001bba:	6078      	str	r0, [r7, #4]
 8001bbc:	460b      	mov	r3, r1
 8001bbe:	807b      	strh	r3, [r7, #2]
  bool cmdExecuted = FALSE;
 8001bc0:	2300      	movs	r3, #0
 8001bc2:	73fb      	strb	r3, [r7, #15]
  if ((newMinSpeed >= L6474_MIN_PWM_FREQ)&&
      (newMinSpeed <= L6474_MAX_PWM_FREQ) &&
      (newMinSpeed <= device_prm.maxSpeed) &&
 8001bc4:	887b      	ldrh	r3, [r7, #2]
 8001bc6:	2b01      	cmp	r3, #1
 8001bc8:	d919      	bls.n	8001bfe <_ZN5L647417L6474_SetMinSpeedEt+0x4a>
  if ((newMinSpeed >= L6474_MIN_PWM_FREQ)&&
 8001bca:	887b      	ldrh	r3, [r7, #2]
 8001bcc:	f242 7210 	movw	r2, #10000	@ 0x2710
 8001bd0:	4293      	cmp	r3, r2
 8001bd2:	d814      	bhi.n	8001bfe <_ZN5L647417L6474_SetMinSpeedEt+0x4a>
      (newMinSpeed <= device_prm.maxSpeed) &&
 8001bd4:	687b      	ldr	r3, [r7, #4]
 8001bd6:	f8b3 3044 	ldrh.w	r3, [r3, #68]	@ 0x44
 8001bda:	b29b      	uxth	r3, r3
      (newMinSpeed <= L6474_MAX_PWM_FREQ) &&
 8001bdc:	887a      	ldrh	r2, [r7, #2]
 8001bde:	429a      	cmp	r2, r3
 8001be0:	d80d      	bhi.n	8001bfe <_ZN5L647417L6474_SetMinSpeedEt+0x4a>
      ((device_prm.motionState == INACTIVE)||
 8001be2:	687b      	ldr	r3, [r7, #4]
 8001be4:	f893 304c 	ldrb.w	r3, [r3, #76]	@ 0x4c
 8001be8:	b2db      	uxtb	r3, r3
      (newMinSpeed <= device_prm.maxSpeed) &&
 8001bea:	2b03      	cmp	r3, #3
 8001bec:	d005      	beq.n	8001bfa <_ZN5L647417L6474_SetMinSpeedEt+0x46>
       (device_prm.commandExecuted == RUN_CMD)))
 8001bee:	687b      	ldr	r3, [r7, #4]
 8001bf0:	f893 304a 	ldrb.w	r3, [r3, #74]	@ 0x4a
 8001bf4:	b2db      	uxtb	r3, r3
      ((device_prm.motionState == INACTIVE)||
 8001bf6:	2b00      	cmp	r3, #0
 8001bf8:	d101      	bne.n	8001bfe <_ZN5L647417L6474_SetMinSpeedEt+0x4a>
      (newMinSpeed <= device_prm.maxSpeed) &&
 8001bfa:	2301      	movs	r3, #1
 8001bfc:	e000      	b.n	8001c00 <_ZN5L647417L6474_SetMinSpeedEt+0x4c>
 8001bfe:	2300      	movs	r3, #0
  if ((newMinSpeed >= L6474_MIN_PWM_FREQ)&&
 8001c00:	2b00      	cmp	r3, #0
 8001c02:	d005      	beq.n	8001c10 <_ZN5L647417L6474_SetMinSpeedEt+0x5c>
  {
    device_prm.minSpeed = newMinSpeed;
 8001c04:	687b      	ldr	r3, [r7, #4]
 8001c06:	887a      	ldrh	r2, [r7, #2]
 8001c08:	f8a3 2046 	strh.w	r2, [r3, #70]	@ 0x46
    cmdExecuted = TRUE;
 8001c0c:	2301      	movs	r3, #1
 8001c0e:	73fb      	strb	r3, [r7, #15]
  }
  return cmdExecuted;
 8001c10:	7bfb      	ldrb	r3, [r7, #15]
}
 8001c12:	4618      	mov	r0, r3
 8001c14:	3714      	adds	r7, #20
 8001c16:	46bd      	mov	sp, r7
 8001c18:	bc80      	pop	{r7}
 8001c1a:	4770      	bx	lr

08001c1c <_ZN5L647414L6474_SoftStopEv>:

bool L6474::L6474_SoftStop(void)
{
 8001c1c:	b480      	push	{r7}
 8001c1e:	b085      	sub	sp, #20
 8001c20:	af00      	add	r7, sp, #0
 8001c22:	6078      	str	r0, [r7, #4]
  bool cmdExecuted = FALSE;
 8001c24:	2300      	movs	r3, #0
 8001c26:	73fb      	strb	r3, [r7, #15]
  if (device_prm.motionState != INACTIVE)
 8001c28:	687b      	ldr	r3, [r7, #4]
 8001c2a:	f893 304c 	ldrb.w	r3, [r3, #76]	@ 0x4c
 8001c2e:	b2db      	uxtb	r3, r3
 8001c30:	2b03      	cmp	r3, #3
 8001c32:	bf14      	ite	ne
 8001c34:	2301      	movne	r3, #1
 8001c36:	2300      	moveq	r3, #0
 8001c38:	b2db      	uxtb	r3, r3
 8001c3a:	2b00      	cmp	r3, #0
 8001c3c:	d005      	beq.n	8001c4a <_ZN5L647414L6474_SoftStopEv+0x2e>
  {
    device_prm.commandExecuted = SOFT_STOP_CMD;
 8001c3e:	687b      	ldr	r3, [r7, #4]
 8001c40:	2202      	movs	r2, #2
 8001c42:	f883 204a 	strb.w	r2, [r3, #74]	@ 0x4a
    cmdExecuted = TRUE;
 8001c46:	2301      	movs	r3, #1
 8001c48:	73fb      	strb	r3, [r7, #15]
  }
  return (cmdExecuted);
 8001c4a:	7bfb      	ldrb	r3, [r7, #15]
}
 8001c4c:	4618      	mov	r0, r3
 8001c4e:	3714      	adds	r7, #20
 8001c50:	46bd      	mov	sp, r7
 8001c52:	bc80      	pop	{r7}
 8001c54:	4770      	bx	lr

08001c56 <_ZN5L647421L6474_WaitWhileActiveEv>:

void L6474::L6474_WaitWhileActive(void)
{
 8001c56:	b580      	push	{r7, lr}
 8001c58:	b082      	sub	sp, #8
 8001c5a:	af00      	add	r7, sp, #0
 8001c5c:	6078      	str	r0, [r7, #4]
  /* Wait while motor is running */
  while (L6474_GetDeviceState() != INACTIVE);
 8001c5e:	bf00      	nop
 8001c60:	6878      	ldr	r0, [r7, #4]
 8001c62:	f7ff fdc8 	bl	80017f6 <_ZN5L647420L6474_GetDeviceStateEv>
 8001c66:	4603      	mov	r3, r0
 8001c68:	2b03      	cmp	r3, #3
 8001c6a:	bf14      	ite	ne
 8001c6c:	2301      	movne	r3, #1
 8001c6e:	2300      	moveq	r3, #0
 8001c70:	b2db      	uxtb	r3, r3
 8001c72:	2b00      	cmp	r3, #0
 8001c74:	d1f4      	bne.n	8001c60 <_ZN5L647421L6474_WaitWhileActiveEv+0xa>
}
 8001c76:	bf00      	nop
 8001c78:	bf00      	nop
 8001c7a:	3708      	adds	r7, #8
 8001c7c:	46bd      	mov	sp, r7
 8001c7e:	bd80      	pop	{r7, pc}

08001c80 <_ZN5L647416L6474_CmdDisableEv>:

void L6474::L6474_CmdDisable(void)
{
 8001c80:	b580      	push	{r7, lr}
 8001c82:	b082      	sub	sp, #8
 8001c84:	af00      	add	r7, sp, #0
 8001c86:	6078      	str	r0, [r7, #4]
  L6474_SendCommand(L6474_DISABLE);
 8001c88:	21a8      	movs	r1, #168	@ 0xa8
 8001c8a:	6878      	ldr	r0, [r7, #4]
 8001c8c:	f000 fbbe 	bl	800240c <_ZN5L647417L6474_SendCommandEh>
}
 8001c90:	bf00      	nop
 8001c92:	3708      	adds	r7, #8
 8001c94:	46bd      	mov	sp, r7
 8001c96:	bd80      	pop	{r7, pc}

08001c98 <_ZN5L647415L6474_CmdEnableEv>:

void L6474::L6474_CmdEnable(void)
{
 8001c98:	b580      	push	{r7, lr}
 8001c9a:	b082      	sub	sp, #8
 8001c9c:	af00      	add	r7, sp, #0
 8001c9e:	6078      	str	r0, [r7, #4]
  L6474_SendCommand(L6474_ENABLE);
 8001ca0:	21b8      	movs	r1, #184	@ 0xb8
 8001ca2:	6878      	ldr	r0, [r7, #4]
 8001ca4:	f000 fbb2 	bl	800240c <_ZN5L647417L6474_SendCommandEh>
}
 8001ca8:	bf00      	nop
 8001caa:	3708      	adds	r7, #8
 8001cac:	46bd      	mov	sp, r7
 8001cae:	bd80      	pop	{r7, pc}

08001cb0 <_ZN5L647417L6474_CmdGetParamE17L6474_Registers_t>:

uint32_t L6474::L6474_CmdGetParam(L6474_Registers_t parameter)
{
 8001cb0:	b580      	push	{r7, lr}
 8001cb2:	b086      	sub	sp, #24
 8001cb4:	af00      	add	r7, sp, #0
 8001cb6:	6078      	str	r0, [r7, #4]
 8001cb8:	460b      	mov	r3, r1
 8001cba:	70fb      	strb	r3, [r7, #3]
  uint32_t i;
  uint32_t spiRxData;
  uint8_t maxArgumentNbBytes = 0;
 8001cbc:	2300      	movs	r3, #0
 8001cbe:	74fb      	strb	r3, [r7, #19]
  uint8_t spiIndex = number_of_devices - device_instance - 1;
 8001cc0:	4b71      	ldr	r3, [pc, #452]	@ (8001e88 <_ZN5L647417L6474_CmdGetParamE17L6474_Registers_t+0x1d8>)
 8001cc2:	781a      	ldrb	r2, [r3, #0]
 8001cc4:	687b      	ldr	r3, [r7, #4]
 8001cc6:	f893 3050 	ldrb.w	r3, [r3, #80]	@ 0x50
 8001cca:	1ad3      	subs	r3, r2, r3
 8001ccc:	b2db      	uxtb	r3, r3
 8001cce:	3b01      	subs	r3, #1
 8001cd0:	747b      	strb	r3, [r7, #17]
  bool itDisable = FALSE;
 8001cd2:	2300      	movs	r3, #0
 8001cd4:	74bb      	strb	r3, [r7, #18]

  do
  {
    spi_preemtion_by_isr = FALSE;
 8001cd6:	4b6d      	ldr	r3, [pc, #436]	@ (8001e8c <_ZN5L647417L6474_CmdGetParamE17L6474_Registers_t+0x1dc>)
 8001cd8:	2200      	movs	r2, #0
 8001cda:	701a      	strb	r2, [r3, #0]
    if (itDisable)
 8001cdc:	7cbb      	ldrb	r3, [r7, #18]
 8001cde:	2b00      	cmp	r3, #0
 8001ce0:	d004      	beq.n	8001cec <_ZN5L647417L6474_CmdGetParamE17L6474_Registers_t+0x3c>
    {
      /* re-enable L6474_EnableIrq if disable in previous iteration */
      L6474_EnableIrq();
 8001ce2:	6878      	ldr	r0, [r7, #4]
 8001ce4:	f7ff fc40 	bl	8001568 <_ZN5L647415L6474_EnableIrqEv>
      itDisable = FALSE;
 8001ce8:	2300      	movs	r3, #0
 8001cea:	74bb      	strb	r3, [r7, #18]
    }

    for (i = 0; i < number_of_devices; i++)
 8001cec:	2300      	movs	r3, #0
 8001cee:	617b      	str	r3, [r7, #20]
 8001cf0:	e02b      	b.n	8001d4a <_ZN5L647417L6474_CmdGetParamE17L6474_Registers_t+0x9a>
    {
      spi_tx_bursts[0][i] = L6474_NOP;
 8001cf2:	4a67      	ldr	r2, [pc, #412]	@ (8001e90 <_ZN5L647417L6474_CmdGetParamE17L6474_Registers_t+0x1e0>)
 8001cf4:	697b      	ldr	r3, [r7, #20]
 8001cf6:	4413      	add	r3, r2
 8001cf8:	2200      	movs	r2, #0
 8001cfa:	701a      	strb	r2, [r3, #0]
      spi_tx_bursts[1][i] = L6474_NOP;
 8001cfc:	4a64      	ldr	r2, [pc, #400]	@ (8001e90 <_ZN5L647417L6474_CmdGetParamE17L6474_Registers_t+0x1e0>)
 8001cfe:	697b      	ldr	r3, [r7, #20]
 8001d00:	4413      	add	r3, r2
 8001d02:	3303      	adds	r3, #3
 8001d04:	2200      	movs	r2, #0
 8001d06:	701a      	strb	r2, [r3, #0]
      spi_tx_bursts[2][i] = L6474_NOP;
 8001d08:	4a61      	ldr	r2, [pc, #388]	@ (8001e90 <_ZN5L647417L6474_CmdGetParamE17L6474_Registers_t+0x1e0>)
 8001d0a:	697b      	ldr	r3, [r7, #20]
 8001d0c:	4413      	add	r3, r2
 8001d0e:	3306      	adds	r3, #6
 8001d10:	2200      	movs	r2, #0
 8001d12:	701a      	strb	r2, [r3, #0]
      spi_tx_bursts[3][i] = L6474_NOP;
 8001d14:	4a5e      	ldr	r2, [pc, #376]	@ (8001e90 <_ZN5L647417L6474_CmdGetParamE17L6474_Registers_t+0x1e0>)
 8001d16:	697b      	ldr	r3, [r7, #20]
 8001d18:	4413      	add	r3, r2
 8001d1a:	3309      	adds	r3, #9
 8001d1c:	2200      	movs	r2, #0
 8001d1e:	701a      	strb	r2, [r3, #0]
      spi_rx_bursts[1][i] = 0;
 8001d20:	4a5c      	ldr	r2, [pc, #368]	@ (8001e94 <_ZN5L647417L6474_CmdGetParamE17L6474_Registers_t+0x1e4>)
 8001d22:	697b      	ldr	r3, [r7, #20]
 8001d24:	4413      	add	r3, r2
 8001d26:	3303      	adds	r3, #3
 8001d28:	2200      	movs	r2, #0
 8001d2a:	701a      	strb	r2, [r3, #0]
      spi_rx_bursts[2][i] = 0;
 8001d2c:	4a59      	ldr	r2, [pc, #356]	@ (8001e94 <_ZN5L647417L6474_CmdGetParamE17L6474_Registers_t+0x1e4>)
 8001d2e:	697b      	ldr	r3, [r7, #20]
 8001d30:	4413      	add	r3, r2
 8001d32:	3306      	adds	r3, #6
 8001d34:	2200      	movs	r2, #0
 8001d36:	701a      	strb	r2, [r3, #0]
      spi_rx_bursts[3][i] = 0;
 8001d38:	4a56      	ldr	r2, [pc, #344]	@ (8001e94 <_ZN5L647417L6474_CmdGetParamE17L6474_Registers_t+0x1e4>)
 8001d3a:	697b      	ldr	r3, [r7, #20]
 8001d3c:	4413      	add	r3, r2
 8001d3e:	3309      	adds	r3, #9
 8001d40:	2200      	movs	r2, #0
 8001d42:	701a      	strb	r2, [r3, #0]
    for (i = 0; i < number_of_devices; i++)
 8001d44:	697b      	ldr	r3, [r7, #20]
 8001d46:	3301      	adds	r3, #1
 8001d48:	617b      	str	r3, [r7, #20]
 8001d4a:	4b4f      	ldr	r3, [pc, #316]	@ (8001e88 <_ZN5L647417L6474_CmdGetParamE17L6474_Registers_t+0x1d8>)
 8001d4c:	781b      	ldrb	r3, [r3, #0]
 8001d4e:	461a      	mov	r2, r3
 8001d50:	697b      	ldr	r3, [r7, #20]
 8001d52:	4293      	cmp	r3, r2
 8001d54:	d3cd      	bcc.n	8001cf2 <_ZN5L647417L6474_CmdGetParamE17L6474_Registers_t+0x42>
    }

    switch (parameter)
 8001d56:	78fb      	ldrb	r3, [r7, #3]
 8001d58:	3b01      	subs	r3, #1
 8001d5a:	2b18      	cmp	r3, #24
 8001d5c:	d84a      	bhi.n	8001df4 <_ZN5L647417L6474_CmdGetParamE17L6474_Registers_t+0x144>
 8001d5e:	a201      	add	r2, pc, #4	@ (adr r2, 8001d64 <_ZN5L647417L6474_CmdGetParamE17L6474_Registers_t+0xb4>)
 8001d60:	f852 f023 	ldr.w	pc, [r2, r3, lsl #2]
 8001d64:	08001dc9 	.word	0x08001dc9
 8001d68:	08001ddd 	.word	0x08001ddd
 8001d6c:	08001dc9 	.word	0x08001dc9
 8001d70:	08001df5 	.word	0x08001df5
 8001d74:	08001df5 	.word	0x08001df5
 8001d78:	08001df5 	.word	0x08001df5
 8001d7c:	08001df5 	.word	0x08001df5
 8001d80:	08001df5 	.word	0x08001df5
 8001d84:	08001df5 	.word	0x08001df5
 8001d88:	08001df5 	.word	0x08001df5
 8001d8c:	08001df5 	.word	0x08001df5
 8001d90:	08001df5 	.word	0x08001df5
 8001d94:	08001df5 	.word	0x08001df5
 8001d98:	08001df5 	.word	0x08001df5
 8001d9c:	08001df5 	.word	0x08001df5
 8001da0:	08001df5 	.word	0x08001df5
 8001da4:	08001df5 	.word	0x08001df5
 8001da8:	08001df5 	.word	0x08001df5
 8001dac:	08001df5 	.word	0x08001df5
 8001db0:	08001df5 	.word	0x08001df5
 8001db4:	08001df5 	.word	0x08001df5
 8001db8:	08001df5 	.word	0x08001df5
 8001dbc:	08001df5 	.word	0x08001df5
 8001dc0:	08001ddd 	.word	0x08001ddd
 8001dc4:	08001ddd 	.word	0x08001ddd
    {
      case L6474_ABS_POS: ;
      case L6474_MARK:
        spi_tx_bursts[0][spiIndex] = ((uint8_t)L6474_GET_PARAM )| (parameter);
 8001dc8:	7c7b      	ldrb	r3, [r7, #17]
 8001dca:	78fa      	ldrb	r2, [r7, #3]
 8001dcc:	f042 0220 	orr.w	r2, r2, #32
 8001dd0:	b2d1      	uxtb	r1, r2
 8001dd2:	4a2f      	ldr	r2, [pc, #188]	@ (8001e90 <_ZN5L647417L6474_CmdGetParamE17L6474_Registers_t+0x1e0>)
 8001dd4:	54d1      	strb	r1, [r2, r3]
        maxArgumentNbBytes = 3;
 8001dd6:	2303      	movs	r3, #3
 8001dd8:	74fb      	strb	r3, [r7, #19]
        break;
 8001dda:	e016      	b.n	8001e0a <_ZN5L647417L6474_CmdGetParamE17L6474_Registers_t+0x15a>
      case L6474_EL_POS: ;
      case L6474_CONFIG: ;
      case L6474_STATUS:
        spi_tx_bursts[1][spiIndex] = ((uint8_t)L6474_GET_PARAM )| (parameter);
 8001ddc:	7c7b      	ldrb	r3, [r7, #17]
 8001dde:	78fa      	ldrb	r2, [r7, #3]
 8001de0:	f042 0220 	orr.w	r2, r2, #32
 8001de4:	b2d1      	uxtb	r1, r2
 8001de6:	4a2a      	ldr	r2, [pc, #168]	@ (8001e90 <_ZN5L647417L6474_CmdGetParamE17L6474_Registers_t+0x1e0>)
 8001de8:	4413      	add	r3, r2
 8001dea:	460a      	mov	r2, r1
 8001dec:	70da      	strb	r2, [r3, #3]
        maxArgumentNbBytes = 2;
 8001dee:	2302      	movs	r3, #2
 8001df0:	74fb      	strb	r3, [r7, #19]
        break;
 8001df2:	e00a      	b.n	8001e0a <_ZN5L647417L6474_CmdGetParamE17L6474_Registers_t+0x15a>
      default:
        spi_tx_bursts[2][spiIndex] = ((uint8_t)L6474_GET_PARAM )| (parameter);
 8001df4:	7c7b      	ldrb	r3, [r7, #17]
 8001df6:	78fa      	ldrb	r2, [r7, #3]
 8001df8:	f042 0220 	orr.w	r2, r2, #32
 8001dfc:	b2d1      	uxtb	r1, r2
 8001dfe:	4a24      	ldr	r2, [pc, #144]	@ (8001e90 <_ZN5L647417L6474_CmdGetParamE17L6474_Registers_t+0x1e0>)
 8001e00:	4413      	add	r3, r2
 8001e02:	460a      	mov	r2, r1
 8001e04:	719a      	strb	r2, [r3, #6]
        maxArgumentNbBytes = 1;
 8001e06:	2301      	movs	r3, #1
 8001e08:	74fb      	strb	r3, [r7, #19]
    }

    /* Disable interruption before checking */
    /* pre-emption by ISR and SPI transfers*/
    L6474_DisableIrq();
 8001e0a:	6878      	ldr	r0, [r7, #4]
 8001e0c:	f7ff fbb7 	bl	800157e <_ZN5L647416L6474_DisableIrqEv>
    itDisable = TRUE;
 8001e10:	2301      	movs	r3, #1
 8001e12:	74bb      	strb	r3, [r7, #18]
  do
 8001e14:	4b1d      	ldr	r3, [pc, #116]	@ (8001e8c <_ZN5L647417L6474_CmdGetParamE17L6474_Registers_t+0x1dc>)
 8001e16:	781b      	ldrb	r3, [r3, #0]
 8001e18:	2b00      	cmp	r3, #0
 8001e1a:	f47f af5c 	bne.w	8001cd6 <_ZN5L647417L6474_CmdGetParamE17L6474_Registers_t+0x26>
  } while (spi_preemtion_by_isr); // check pre-emption by ISR

  for (i = L6474_CMD_ARG_MAX_NB_BYTES-1-maxArgumentNbBytes;
 8001e1e:	7cfb      	ldrb	r3, [r7, #19]
 8001e20:	f1c3 0303 	rsb	r3, r3, #3
 8001e24:	617b      	str	r3, [r7, #20]
 8001e26:	e012      	b.n	8001e4e <_ZN5L647417L6474_CmdGetParamE17L6474_Registers_t+0x19e>
       i < L6474_CMD_ARG_MAX_NB_BYTES;
       i++)
  {
     L6474_WriteBytes(&spi_tx_bursts[i][0], &spi_rx_bursts[i][0]);
 8001e28:	697a      	ldr	r2, [r7, #20]
 8001e2a:	4613      	mov	r3, r2
 8001e2c:	005b      	lsls	r3, r3, #1
 8001e2e:	4413      	add	r3, r2
 8001e30:	4a17      	ldr	r2, [pc, #92]	@ (8001e90 <_ZN5L647417L6474_CmdGetParamE17L6474_Registers_t+0x1e0>)
 8001e32:	1899      	adds	r1, r3, r2
 8001e34:	697a      	ldr	r2, [r7, #20]
 8001e36:	4613      	mov	r3, r2
 8001e38:	005b      	lsls	r3, r3, #1
 8001e3a:	4413      	add	r3, r2
 8001e3c:	4a15      	ldr	r2, [pc, #84]	@ (8001e94 <_ZN5L647417L6474_CmdGetParamE17L6474_Registers_t+0x1e4>)
 8001e3e:	4413      	add	r3, r2
 8001e40:	461a      	mov	r2, r3
 8001e42:	6878      	ldr	r0, [r7, #4]
 8001e44:	f000 fcce 	bl	80027e4 <_ZN5L647416L6474_WriteBytesEPhS0_>
  for (i = L6474_CMD_ARG_MAX_NB_BYTES-1-maxArgumentNbBytes;
 8001e48:	697b      	ldr	r3, [r7, #20]
 8001e4a:	3301      	adds	r3, #1
 8001e4c:	617b      	str	r3, [r7, #20]
       i < L6474_CMD_ARG_MAX_NB_BYTES;
 8001e4e:	697b      	ldr	r3, [r7, #20]
 8001e50:	2b03      	cmp	r3, #3
 8001e52:	d9e9      	bls.n	8001e28 <_ZN5L647417L6474_CmdGetParamE17L6474_Registers_t+0x178>
  }

  spiRxData = ((uint32_t)spi_rx_bursts[1][spiIndex] << 16) |
 8001e54:	7c7b      	ldrb	r3, [r7, #17]
 8001e56:	4a0f      	ldr	r2, [pc, #60]	@ (8001e94 <_ZN5L647417L6474_CmdGetParamE17L6474_Registers_t+0x1e4>)
 8001e58:	4413      	add	r3, r2
 8001e5a:	78db      	ldrb	r3, [r3, #3]
 8001e5c:	041a      	lsls	r2, r3, #16
              (spi_rx_bursts[2][spiIndex] << 8) |
 8001e5e:	7c7b      	ldrb	r3, [r7, #17]
 8001e60:	490c      	ldr	r1, [pc, #48]	@ (8001e94 <_ZN5L647417L6474_CmdGetParamE17L6474_Registers_t+0x1e4>)
 8001e62:	440b      	add	r3, r1
 8001e64:	799b      	ldrb	r3, [r3, #6]
 8001e66:	021b      	lsls	r3, r3, #8
  spiRxData = ((uint32_t)spi_rx_bursts[1][spiIndex] << 16) |
 8001e68:	4313      	orrs	r3, r2
              (spi_rx_bursts[3][spiIndex]);
 8001e6a:	7c7a      	ldrb	r2, [r7, #17]
 8001e6c:	4909      	ldr	r1, [pc, #36]	@ (8001e94 <_ZN5L647417L6474_CmdGetParamE17L6474_Registers_t+0x1e4>)
 8001e6e:	440a      	add	r2, r1
 8001e70:	7a52      	ldrb	r2, [r2, #9]
  spiRxData = ((uint32_t)spi_rx_bursts[1][spiIndex] << 16) |
 8001e72:	4313      	orrs	r3, r2
 8001e74:	60fb      	str	r3, [r7, #12]

  /* re-enable L6474_EnableIrq after SPI transfers*/
  L6474_EnableIrq();
 8001e76:	6878      	ldr	r0, [r7, #4]
 8001e78:	f7ff fb76 	bl	8001568 <_ZN5L647415L6474_EnableIrqEv>

  return (spiRxData);
 8001e7c:	68fb      	ldr	r3, [r7, #12]
}
 8001e7e:	4618      	mov	r0, r3
 8001e80:	3718      	adds	r7, #24
 8001e82:	46bd      	mov	sp, r7
 8001e84:	bd80      	pop	{r7, pc}
 8001e86:	bf00      	nop
 8001e88:	20000224 	.word	0x20000224
 8001e8c:	20000225 	.word	0x20000225
 8001e90:	20000228 	.word	0x20000228
 8001e94:	20000234 	.word	0x20000234

08001e98 <_ZN5L647418L6474_CmdGetStatusEv>:

uint16_t L6474::L6474_CmdGetStatus(void)
{
 8001e98:	b580      	push	{r7, lr}
 8001e9a:	b084      	sub	sp, #16
 8001e9c:	af00      	add	r7, sp, #0
 8001e9e:	6078      	str	r0, [r7, #4]
  uint32_t i;
  uint16_t status;
  uint8_t spiIndex = number_of_devices - device_instance - 1;
 8001ea0:	4b3d      	ldr	r3, [pc, #244]	@ (8001f98 <_ZN5L647418L6474_CmdGetStatusEv+0x100>)
 8001ea2:	781a      	ldrb	r2, [r3, #0]
 8001ea4:	687b      	ldr	r3, [r7, #4]
 8001ea6:	f893 3050 	ldrb.w	r3, [r3, #80]	@ 0x50
 8001eaa:	1ad3      	subs	r3, r2, r3
 8001eac:	b2db      	uxtb	r3, r3
 8001eae:	3b01      	subs	r3, #1
 8001eb0:	72bb      	strb	r3, [r7, #10]
  bool itDisable = FALSE;
 8001eb2:	2300      	movs	r3, #0
 8001eb4:	72fb      	strb	r3, [r7, #11]

  do
  {
    spi_preemtion_by_isr = FALSE;
 8001eb6:	4b39      	ldr	r3, [pc, #228]	@ (8001f9c <_ZN5L647418L6474_CmdGetStatusEv+0x104>)
 8001eb8:	2200      	movs	r2, #0
 8001eba:	701a      	strb	r2, [r3, #0]
    if (itDisable)
 8001ebc:	7afb      	ldrb	r3, [r7, #11]
 8001ebe:	2b00      	cmp	r3, #0
 8001ec0:	d004      	beq.n	8001ecc <_ZN5L647418L6474_CmdGetStatusEv+0x34>
    {
      /* re-enable L6474_EnableIrq if disable in previous iteration */
      L6474_EnableIrq();
 8001ec2:	6878      	ldr	r0, [r7, #4]
 8001ec4:	f7ff fb50 	bl	8001568 <_ZN5L647415L6474_EnableIrqEv>
      itDisable = FALSE;
 8001ec8:	2300      	movs	r3, #0
 8001eca:	72fb      	strb	r3, [r7, #11]
    }

    for (i = 0; i < number_of_devices; i++)
 8001ecc:	2300      	movs	r3, #0
 8001ece:	60fb      	str	r3, [r7, #12]
 8001ed0:	e01f      	b.n	8001f12 <_ZN5L647418L6474_CmdGetStatusEv+0x7a>
    {
       spi_tx_bursts[0][i] = L6474_NOP;
 8001ed2:	4a33      	ldr	r2, [pc, #204]	@ (8001fa0 <_ZN5L647418L6474_CmdGetStatusEv+0x108>)
 8001ed4:	68fb      	ldr	r3, [r7, #12]
 8001ed6:	4413      	add	r3, r2
 8001ed8:	2200      	movs	r2, #0
 8001eda:	701a      	strb	r2, [r3, #0]
       spi_tx_bursts[1][i] = L6474_NOP;
 8001edc:	4a30      	ldr	r2, [pc, #192]	@ (8001fa0 <_ZN5L647418L6474_CmdGetStatusEv+0x108>)
 8001ede:	68fb      	ldr	r3, [r7, #12]
 8001ee0:	4413      	add	r3, r2
 8001ee2:	3303      	adds	r3, #3
 8001ee4:	2200      	movs	r2, #0
 8001ee6:	701a      	strb	r2, [r3, #0]
       spi_tx_bursts[2][i] = L6474_NOP;
 8001ee8:	4a2d      	ldr	r2, [pc, #180]	@ (8001fa0 <_ZN5L647418L6474_CmdGetStatusEv+0x108>)
 8001eea:	68fb      	ldr	r3, [r7, #12]
 8001eec:	4413      	add	r3, r2
 8001eee:	3306      	adds	r3, #6
 8001ef0:	2200      	movs	r2, #0
 8001ef2:	701a      	strb	r2, [r3, #0]
       spi_rx_bursts[1][i] = 0;
 8001ef4:	4a2b      	ldr	r2, [pc, #172]	@ (8001fa4 <_ZN5L647418L6474_CmdGetStatusEv+0x10c>)
 8001ef6:	68fb      	ldr	r3, [r7, #12]
 8001ef8:	4413      	add	r3, r2
 8001efa:	3303      	adds	r3, #3
 8001efc:	2200      	movs	r2, #0
 8001efe:	701a      	strb	r2, [r3, #0]
       spi_rx_bursts[2][i] = 0;
 8001f00:	4a28      	ldr	r2, [pc, #160]	@ (8001fa4 <_ZN5L647418L6474_CmdGetStatusEv+0x10c>)
 8001f02:	68fb      	ldr	r3, [r7, #12]
 8001f04:	4413      	add	r3, r2
 8001f06:	3306      	adds	r3, #6
 8001f08:	2200      	movs	r2, #0
 8001f0a:	701a      	strb	r2, [r3, #0]
    for (i = 0; i < number_of_devices; i++)
 8001f0c:	68fb      	ldr	r3, [r7, #12]
 8001f0e:	3301      	adds	r3, #1
 8001f10:	60fb      	str	r3, [r7, #12]
 8001f12:	4b21      	ldr	r3, [pc, #132]	@ (8001f98 <_ZN5L647418L6474_CmdGetStatusEv+0x100>)
 8001f14:	781b      	ldrb	r3, [r3, #0]
 8001f16:	461a      	mov	r2, r3
 8001f18:	68fb      	ldr	r3, [r7, #12]
 8001f1a:	4293      	cmp	r3, r2
 8001f1c:	d3d9      	bcc.n	8001ed2 <_ZN5L647418L6474_CmdGetStatusEv+0x3a>
    }
    spi_tx_bursts[0][spiIndex] = L6474_GET_STATUS;
 8001f1e:	7abb      	ldrb	r3, [r7, #10]
 8001f20:	4a1f      	ldr	r2, [pc, #124]	@ (8001fa0 <_ZN5L647418L6474_CmdGetStatusEv+0x108>)
 8001f22:	21d0      	movs	r1, #208	@ 0xd0
 8001f24:	54d1      	strb	r1, [r2, r3]

    /* Disable interruption before checking */
    /* pre-emption by ISR and SPI transfers*/
    L6474_DisableIrq();
 8001f26:	6878      	ldr	r0, [r7, #4]
 8001f28:	f7ff fb29 	bl	800157e <_ZN5L647416L6474_DisableIrqEv>
    itDisable = TRUE;
 8001f2c:	2301      	movs	r3, #1
 8001f2e:	72fb      	strb	r3, [r7, #11]
  do
 8001f30:	4b1a      	ldr	r3, [pc, #104]	@ (8001f9c <_ZN5L647418L6474_CmdGetStatusEv+0x104>)
 8001f32:	781b      	ldrb	r3, [r3, #0]
 8001f34:	2b00      	cmp	r3, #0
 8001f36:	d1be      	bne.n	8001eb6 <_ZN5L647418L6474_CmdGetStatusEv+0x1e>
  } while (spi_preemtion_by_isr); // check pre-emption by ISR

  for (i = 0; i < L6474_CMD_ARG_NB_BYTES_GET_STATUS + L6474_RSP_NB_BYTES_GET_STATUS; i++)
 8001f38:	2300      	movs	r3, #0
 8001f3a:	60fb      	str	r3, [r7, #12]
 8001f3c:	e012      	b.n	8001f64 <_ZN5L647418L6474_CmdGetStatusEv+0xcc>
  {
     L6474_WriteBytes(&spi_tx_bursts[i][0], &spi_rx_bursts[i][0]);
 8001f3e:	68fa      	ldr	r2, [r7, #12]
 8001f40:	4613      	mov	r3, r2
 8001f42:	005b      	lsls	r3, r3, #1
 8001f44:	4413      	add	r3, r2
 8001f46:	4a16      	ldr	r2, [pc, #88]	@ (8001fa0 <_ZN5L647418L6474_CmdGetStatusEv+0x108>)
 8001f48:	1899      	adds	r1, r3, r2
 8001f4a:	68fa      	ldr	r2, [r7, #12]
 8001f4c:	4613      	mov	r3, r2
 8001f4e:	005b      	lsls	r3, r3, #1
 8001f50:	4413      	add	r3, r2
 8001f52:	4a14      	ldr	r2, [pc, #80]	@ (8001fa4 <_ZN5L647418L6474_CmdGetStatusEv+0x10c>)
 8001f54:	4413      	add	r3, r2
 8001f56:	461a      	mov	r2, r3
 8001f58:	6878      	ldr	r0, [r7, #4]
 8001f5a:	f000 fc43 	bl	80027e4 <_ZN5L647416L6474_WriteBytesEPhS0_>
  for (i = 0; i < L6474_CMD_ARG_NB_BYTES_GET_STATUS + L6474_RSP_NB_BYTES_GET_STATUS; i++)
 8001f5e:	68fb      	ldr	r3, [r7, #12]
 8001f60:	3301      	adds	r3, #1
 8001f62:	60fb      	str	r3, [r7, #12]
 8001f64:	68fb      	ldr	r3, [r7, #12]
 8001f66:	2b02      	cmp	r3, #2
 8001f68:	d9e9      	bls.n	8001f3e <_ZN5L647418L6474_CmdGetStatusEv+0xa6>
  }
  status = (spi_rx_bursts[1][spiIndex] << 8) | (spi_rx_bursts[2][spiIndex]);
 8001f6a:	7abb      	ldrb	r3, [r7, #10]
 8001f6c:	4a0d      	ldr	r2, [pc, #52]	@ (8001fa4 <_ZN5L647418L6474_CmdGetStatusEv+0x10c>)
 8001f6e:	4413      	add	r3, r2
 8001f70:	78db      	ldrb	r3, [r3, #3]
 8001f72:	021b      	lsls	r3, r3, #8
 8001f74:	b21a      	sxth	r2, r3
 8001f76:	7abb      	ldrb	r3, [r7, #10]
 8001f78:	490a      	ldr	r1, [pc, #40]	@ (8001fa4 <_ZN5L647418L6474_CmdGetStatusEv+0x10c>)
 8001f7a:	440b      	add	r3, r1
 8001f7c:	799b      	ldrb	r3, [r3, #6]
 8001f7e:	b21b      	sxth	r3, r3
 8001f80:	4313      	orrs	r3, r2
 8001f82:	b21b      	sxth	r3, r3
 8001f84:	813b      	strh	r3, [r7, #8]

  /* re-enable L6474_EnableIrq after SPI transfers*/
  L6474_EnableIrq();
 8001f86:	6878      	ldr	r0, [r7, #4]
 8001f88:	f7ff faee 	bl	8001568 <_ZN5L647415L6474_EnableIrqEv>

  return (status);
 8001f8c:	893b      	ldrh	r3, [r7, #8]
}
 8001f8e:	4618      	mov	r0, r3
 8001f90:	3710      	adds	r7, #16
 8001f92:	46bd      	mov	sp, r7
 8001f94:	bd80      	pop	{r7, pc}
 8001f96:	bf00      	nop
 8001f98:	20000224 	.word	0x20000224
 8001f9c:	20000225 	.word	0x20000225
 8001fa0:	20000228 	.word	0x20000228
 8001fa4:	20000234 	.word	0x20000234

08001fa8 <_ZN5L647417L6474_CmdSetParamE17L6474_Registers_tm>:
{
  L6474_SendCommand(L6474_NOP);
}

void L6474::L6474_CmdSetParam(L6474_Registers_t parameter, uint32_t value)
{
 8001fa8:	b580      	push	{r7, lr}
 8001faa:	b086      	sub	sp, #24
 8001fac:	af00      	add	r7, sp, #0
 8001fae:	60f8      	str	r0, [r7, #12]
 8001fb0:	460b      	mov	r3, r1
 8001fb2:	607a      	str	r2, [r7, #4]
 8001fb4:	72fb      	strb	r3, [r7, #11]
  uint32_t i;
  uint8_t maxArgumentNbBytes = 0;
 8001fb6:	2300      	movs	r3, #0
 8001fb8:	74fb      	strb	r3, [r7, #19]
  uint8_t spiIndex = number_of_devices - device_instance - 1;
 8001fba:	4b69      	ldr	r3, [pc, #420]	@ (8002160 <_ZN5L647417L6474_CmdSetParamE17L6474_Registers_tm+0x1b8>)
 8001fbc:	781a      	ldrb	r2, [r3, #0]
 8001fbe:	68fb      	ldr	r3, [r7, #12]
 8001fc0:	f893 3050 	ldrb.w	r3, [r3, #80]	@ 0x50
 8001fc4:	1ad3      	subs	r3, r2, r3
 8001fc6:	b2db      	uxtb	r3, r3
 8001fc8:	3b01      	subs	r3, #1
 8001fca:	747b      	strb	r3, [r7, #17]
  bool itDisable = FALSE;
 8001fcc:	2300      	movs	r3, #0
 8001fce:	74bb      	strb	r3, [r7, #18]
  do
  {
    spi_preemtion_by_isr = FALSE;
 8001fd0:	4b64      	ldr	r3, [pc, #400]	@ (8002164 <_ZN5L647417L6474_CmdSetParamE17L6474_Registers_tm+0x1bc>)
 8001fd2:	2200      	movs	r2, #0
 8001fd4:	701a      	strb	r2, [r3, #0]
    if (itDisable)
 8001fd6:	7cbb      	ldrb	r3, [r7, #18]
 8001fd8:	2b00      	cmp	r3, #0
 8001fda:	d004      	beq.n	8001fe6 <_ZN5L647417L6474_CmdSetParamE17L6474_Registers_tm+0x3e>
    {
      /* re-enable L6474_EnableIrq if disable in previous iteration */
      L6474_EnableIrq();
 8001fdc:	68f8      	ldr	r0, [r7, #12]
 8001fde:	f7ff fac3 	bl	8001568 <_ZN5L647415L6474_EnableIrqEv>
      itDisable = FALSE;
 8001fe2:	2300      	movs	r3, #0
 8001fe4:	74bb      	strb	r3, [r7, #18]
    }

    for (i = 0; i < number_of_devices; i++)
 8001fe6:	2300      	movs	r3, #0
 8001fe8:	617b      	str	r3, [r7, #20]
 8001fea:	e019      	b.n	8002020 <_ZN5L647417L6474_CmdSetParamE17L6474_Registers_tm+0x78>
    {
      spi_tx_bursts[0][i] = L6474_NOP;
 8001fec:	4a5e      	ldr	r2, [pc, #376]	@ (8002168 <_ZN5L647417L6474_CmdSetParamE17L6474_Registers_tm+0x1c0>)
 8001fee:	697b      	ldr	r3, [r7, #20]
 8001ff0:	4413      	add	r3, r2
 8001ff2:	2200      	movs	r2, #0
 8001ff4:	701a      	strb	r2, [r3, #0]
      spi_tx_bursts[1][i] = L6474_NOP;
 8001ff6:	4a5c      	ldr	r2, [pc, #368]	@ (8002168 <_ZN5L647417L6474_CmdSetParamE17L6474_Registers_tm+0x1c0>)
 8001ff8:	697b      	ldr	r3, [r7, #20]
 8001ffa:	4413      	add	r3, r2
 8001ffc:	3303      	adds	r3, #3
 8001ffe:	2200      	movs	r2, #0
 8002000:	701a      	strb	r2, [r3, #0]
      spi_tx_bursts[2][i] = L6474_NOP;
 8002002:	4a59      	ldr	r2, [pc, #356]	@ (8002168 <_ZN5L647417L6474_CmdSetParamE17L6474_Registers_tm+0x1c0>)
 8002004:	697b      	ldr	r3, [r7, #20]
 8002006:	4413      	add	r3, r2
 8002008:	3306      	adds	r3, #6
 800200a:	2200      	movs	r2, #0
 800200c:	701a      	strb	r2, [r3, #0]
      spi_tx_bursts[3][i] = L6474_NOP;
 800200e:	4a56      	ldr	r2, [pc, #344]	@ (8002168 <_ZN5L647417L6474_CmdSetParamE17L6474_Registers_tm+0x1c0>)
 8002010:	697b      	ldr	r3, [r7, #20]
 8002012:	4413      	add	r3, r2
 8002014:	3309      	adds	r3, #9
 8002016:	2200      	movs	r2, #0
 8002018:	701a      	strb	r2, [r3, #0]
    for (i = 0; i < number_of_devices; i++)
 800201a:	697b      	ldr	r3, [r7, #20]
 800201c:	3301      	adds	r3, #1
 800201e:	617b      	str	r3, [r7, #20]
 8002020:	4b4f      	ldr	r3, [pc, #316]	@ (8002160 <_ZN5L647417L6474_CmdSetParamE17L6474_Registers_tm+0x1b8>)
 8002022:	781b      	ldrb	r3, [r3, #0]
 8002024:	461a      	mov	r2, r3
 8002026:	697b      	ldr	r3, [r7, #20]
 8002028:	4293      	cmp	r3, r2
 800202a:	d3df      	bcc.n	8001fec <_ZN5L647417L6474_CmdSetParamE17L6474_Registers_tm+0x44>
    }

    switch (parameter)
 800202c:	7afb      	ldrb	r3, [r7, #11]
 800202e:	3b01      	subs	r3, #1
 8002030:	2b17      	cmp	r3, #23
 8002032:	d85a      	bhi.n	80020ea <_ZN5L647417L6474_CmdSetParamE17L6474_Registers_tm+0x142>
 8002034:	a201      	add	r2, pc, #4	@ (adr r2, 800203c <_ZN5L647417L6474_CmdSetParamE17L6474_Registers_tm+0x94>)
 8002036:	f852 f023 	ldr.w	pc, [r2, r3, lsl #2]
 800203a:	bf00      	nop
 800203c:	0800209d 	.word	0x0800209d
 8002040:	080020cb 	.word	0x080020cb
 8002044:	0800209d 	.word	0x0800209d
 8002048:	080020eb 	.word	0x080020eb
 800204c:	080020eb 	.word	0x080020eb
 8002050:	080020eb 	.word	0x080020eb
 8002054:	080020eb 	.word	0x080020eb
 8002058:	080020eb 	.word	0x080020eb
 800205c:	080020eb 	.word	0x080020eb
 8002060:	080020eb 	.word	0x080020eb
 8002064:	080020eb 	.word	0x080020eb
 8002068:	080020eb 	.word	0x080020eb
 800206c:	080020eb 	.word	0x080020eb
 8002070:	080020eb 	.word	0x080020eb
 8002074:	080020eb 	.word	0x080020eb
 8002078:	080020eb 	.word	0x080020eb
 800207c:	080020eb 	.word	0x080020eb
 8002080:	080020eb 	.word	0x080020eb
 8002084:	080020eb 	.word	0x080020eb
 8002088:	080020eb 	.word	0x080020eb
 800208c:	080020eb 	.word	0x080020eb
 8002090:	080020eb 	.word	0x080020eb
 8002094:	080020eb 	.word	0x080020eb
 8002098:	080020cb 	.word	0x080020cb
    {
      case L6474_ABS_POS: ;
      case L6474_MARK:
          spi_tx_bursts[0][spiIndex] = parameter;
 800209c:	7c7b      	ldrb	r3, [r7, #17]
 800209e:	4932      	ldr	r1, [pc, #200]	@ (8002168 <_ZN5L647417L6474_CmdSetParamE17L6474_Registers_tm+0x1c0>)
 80020a0:	7afa      	ldrb	r2, [r7, #11]
 80020a2:	54ca      	strb	r2, [r1, r3]
          spi_tx_bursts[1][spiIndex] = (uint8_t)(value >> 16);
 80020a4:	687b      	ldr	r3, [r7, #4]
 80020a6:	0c1a      	lsrs	r2, r3, #16
 80020a8:	7c7b      	ldrb	r3, [r7, #17]
 80020aa:	b2d1      	uxtb	r1, r2
 80020ac:	4a2e      	ldr	r2, [pc, #184]	@ (8002168 <_ZN5L647417L6474_CmdSetParamE17L6474_Registers_tm+0x1c0>)
 80020ae:	4413      	add	r3, r2
 80020b0:	460a      	mov	r2, r1
 80020b2:	70da      	strb	r2, [r3, #3]
          spi_tx_bursts[2][spiIndex] = (uint8_t)(value >> 8);
 80020b4:	687b      	ldr	r3, [r7, #4]
 80020b6:	0a1a      	lsrs	r2, r3, #8
 80020b8:	7c7b      	ldrb	r3, [r7, #17]
 80020ba:	b2d1      	uxtb	r1, r2
 80020bc:	4a2a      	ldr	r2, [pc, #168]	@ (8002168 <_ZN5L647417L6474_CmdSetParamE17L6474_Registers_tm+0x1c0>)
 80020be:	4413      	add	r3, r2
 80020c0:	460a      	mov	r2, r1
 80020c2:	719a      	strb	r2, [r3, #6]
          maxArgumentNbBytes = 3;
 80020c4:	2303      	movs	r3, #3
 80020c6:	74fb      	strb	r3, [r7, #19]
          break;
 80020c8:	e017      	b.n	80020fa <_ZN5L647417L6474_CmdSetParamE17L6474_Registers_tm+0x152>
      case L6474_EL_POS: ;
      case L6474_CONFIG:
          spi_tx_bursts[1][spiIndex] = parameter;
 80020ca:	7c7b      	ldrb	r3, [r7, #17]
 80020cc:	4a26      	ldr	r2, [pc, #152]	@ (8002168 <_ZN5L647417L6474_CmdSetParamE17L6474_Registers_tm+0x1c0>)
 80020ce:	4413      	add	r3, r2
 80020d0:	7afa      	ldrb	r2, [r7, #11]
 80020d2:	70da      	strb	r2, [r3, #3]
          spi_tx_bursts[2][spiIndex] = (uint8_t)(value >> 8);
 80020d4:	687b      	ldr	r3, [r7, #4]
 80020d6:	0a1a      	lsrs	r2, r3, #8
 80020d8:	7c7b      	ldrb	r3, [r7, #17]
 80020da:	b2d1      	uxtb	r1, r2
 80020dc:	4a22      	ldr	r2, [pc, #136]	@ (8002168 <_ZN5L647417L6474_CmdSetParamE17L6474_Registers_tm+0x1c0>)
 80020de:	4413      	add	r3, r2
 80020e0:	460a      	mov	r2, r1
 80020e2:	719a      	strb	r2, [r3, #6]
          maxArgumentNbBytes = 2;
 80020e4:	2302      	movs	r3, #2
 80020e6:	74fb      	strb	r3, [r7, #19]
          break;
 80020e8:	e007      	b.n	80020fa <_ZN5L647417L6474_CmdSetParamE17L6474_Registers_tm+0x152>
      default:
          spi_tx_bursts[2][spiIndex] = parameter;
 80020ea:	7c7b      	ldrb	r3, [r7, #17]
 80020ec:	4a1e      	ldr	r2, [pc, #120]	@ (8002168 <_ZN5L647417L6474_CmdSetParamE17L6474_Registers_tm+0x1c0>)
 80020ee:	4413      	add	r3, r2
 80020f0:	7afa      	ldrb	r2, [r7, #11]
 80020f2:	719a      	strb	r2, [r3, #6]
          maxArgumentNbBytes = 1;
 80020f4:	2301      	movs	r3, #1
 80020f6:	74fb      	strb	r3, [r7, #19]
          break;
 80020f8:	bf00      	nop
    }
    spi_tx_bursts[3][spiIndex] = (uint8_t)(value);
 80020fa:	7c7b      	ldrb	r3, [r7, #17]
 80020fc:	687a      	ldr	r2, [r7, #4]
 80020fe:	b2d1      	uxtb	r1, r2
 8002100:	4a19      	ldr	r2, [pc, #100]	@ (8002168 <_ZN5L647417L6474_CmdSetParamE17L6474_Registers_tm+0x1c0>)
 8002102:	4413      	add	r3, r2
 8002104:	460a      	mov	r2, r1
 8002106:	725a      	strb	r2, [r3, #9]

    /* Disable interruption before checking */
    /* pre-emption by ISR and SPI transfers*/
    L6474_DisableIrq();
 8002108:	68f8      	ldr	r0, [r7, #12]
 800210a:	f7ff fa38 	bl	800157e <_ZN5L647416L6474_DisableIrqEv>
    itDisable = TRUE;
 800210e:	2301      	movs	r3, #1
 8002110:	74bb      	strb	r3, [r7, #18]
  do
 8002112:	4b14      	ldr	r3, [pc, #80]	@ (8002164 <_ZN5L647417L6474_CmdSetParamE17L6474_Registers_tm+0x1bc>)
 8002114:	781b      	ldrb	r3, [r3, #0]
 8002116:	2b00      	cmp	r3, #0
 8002118:	f47f af5a 	bne.w	8001fd0 <_ZN5L647417L6474_CmdSetParamE17L6474_Registers_tm+0x28>
  } while (spi_preemtion_by_isr); // check pre-emption by ISR

  /* SPI transfer */
  for (i = L6474_CMD_ARG_MAX_NB_BYTES-1-maxArgumentNbBytes;
 800211c:	7cfb      	ldrb	r3, [r7, #19]
 800211e:	f1c3 0303 	rsb	r3, r3, #3
 8002122:	617b      	str	r3, [r7, #20]
 8002124:	e012      	b.n	800214c <_ZN5L647417L6474_CmdSetParamE17L6474_Registers_tm+0x1a4>
       i < L6474_CMD_ARG_MAX_NB_BYTES;
       i++)
  {
     L6474_WriteBytes(&spi_tx_bursts[i][0],&spi_rx_bursts[i][0]);
 8002126:	697a      	ldr	r2, [r7, #20]
 8002128:	4613      	mov	r3, r2
 800212a:	005b      	lsls	r3, r3, #1
 800212c:	4413      	add	r3, r2
 800212e:	4a0e      	ldr	r2, [pc, #56]	@ (8002168 <_ZN5L647417L6474_CmdSetParamE17L6474_Registers_tm+0x1c0>)
 8002130:	1899      	adds	r1, r3, r2
 8002132:	697a      	ldr	r2, [r7, #20]
 8002134:	4613      	mov	r3, r2
 8002136:	005b      	lsls	r3, r3, #1
 8002138:	4413      	add	r3, r2
 800213a:	4a0c      	ldr	r2, [pc, #48]	@ (800216c <_ZN5L647417L6474_CmdSetParamE17L6474_Registers_tm+0x1c4>)
 800213c:	4413      	add	r3, r2
 800213e:	461a      	mov	r2, r3
 8002140:	68f8      	ldr	r0, [r7, #12]
 8002142:	f000 fb4f 	bl	80027e4 <_ZN5L647416L6474_WriteBytesEPhS0_>
  for (i = L6474_CMD_ARG_MAX_NB_BYTES-1-maxArgumentNbBytes;
 8002146:	697b      	ldr	r3, [r7, #20]
 8002148:	3301      	adds	r3, #1
 800214a:	617b      	str	r3, [r7, #20]
       i < L6474_CMD_ARG_MAX_NB_BYTES;
 800214c:	697b      	ldr	r3, [r7, #20]
 800214e:	2b03      	cmp	r3, #3
 8002150:	d9e9      	bls.n	8002126 <_ZN5L647417L6474_CmdSetParamE17L6474_Registers_tm+0x17e>
  }
  /* re-enable L6474_EnableIrq after SPI transfers*/
  L6474_EnableIrq();
 8002152:	68f8      	ldr	r0, [r7, #12]
 8002154:	f7ff fa08 	bl	8001568 <_ZN5L647415L6474_EnableIrqEv>
}
 8002158:	bf00      	nop
 800215a:	3718      	adds	r7, #24
 800215c:	46bd      	mov	sp, r7
 800215e:	bd80      	pop	{r7, pc}
 8002160:	20000224 	.word	0x20000224
 8002164:	20000225 	.word	0x20000225
 8002168:	20000228 	.word	0x20000228
 800216c:	20000234 	.word	0x20000234

08002170 <_ZN5L647424L6474_ReadStatusRegisterEv>:

uint16_t L6474::L6474_ReadStatusRegister(void)
{
 8002170:	b580      	push	{r7, lr}
 8002172:	b082      	sub	sp, #8
 8002174:	af00      	add	r7, sp, #0
 8002176:	6078      	str	r0, [r7, #4]
  return (L6474_CmdGetParam(L6474_STATUS));
 8002178:	2119      	movs	r1, #25
 800217a:	6878      	ldr	r0, [r7, #4]
 800217c:	f7ff fd98 	bl	8001cb0 <_ZN5L647417L6474_CmdGetParamE17L6474_Registers_t>
 8002180:	4603      	mov	r3, r0
 8002182:	b29b      	uxth	r3, r3
}
 8002184:	4618      	mov	r0, r3
 8002186:	3708      	adds	r7, #8
 8002188:	46bd      	mov	sp, r7
 800218a:	bd80      	pop	{r7, pc}

0800218c <_ZN5L647420L6474_SelectStepModeE15motorStepMode_t>:

void L6474::L6474_SelectStepMode(motorStepMode_t stepMod)
{
 800218c:	b580      	push	{r7, lr}
 800218e:	b084      	sub	sp, #16
 8002190:	af00      	add	r7, sp, #0
 8002192:	6078      	str	r0, [r7, #4]
 8002194:	460b      	mov	r3, r1
 8002196:	70fb      	strb	r3, [r7, #3]
  uint8_t stepModeRegister;
  L6474_STEP_SEL_t l6474StepMod;

  switch (stepMod)
 8002198:	78fb      	ldrb	r3, [r7, #3]
 800219a:	2b03      	cmp	r3, #3
 800219c:	d816      	bhi.n	80021cc <_ZN5L647420L6474_SelectStepModeE15motorStepMode_t+0x40>
 800219e:	a201      	add	r2, pc, #4	@ (adr r2, 80021a4 <_ZN5L647420L6474_SelectStepModeE15motorStepMode_t+0x18>)
 80021a0:	f852 f023 	ldr.w	pc, [r2, r3, lsl #2]
 80021a4:	080021b5 	.word	0x080021b5
 80021a8:	080021bb 	.word	0x080021bb
 80021ac:	080021c1 	.word	0x080021c1
 80021b0:	080021c7 	.word	0x080021c7
  {
    case STEP_MODE_FULL:
      l6474StepMod = L6474_STEP_SEL_1;
 80021b4:	2308      	movs	r3, #8
 80021b6:	73fb      	strb	r3, [r7, #15]
      break;
 80021b8:	e00b      	b.n	80021d2 <_ZN5L647420L6474_SelectStepModeE15motorStepMode_t+0x46>
    case STEP_MODE_HALF:
      l6474StepMod = L6474_STEP_SEL_1_2;
 80021ba:	2309      	movs	r3, #9
 80021bc:	73fb      	strb	r3, [r7, #15]
      break;
 80021be:	e008      	b.n	80021d2 <_ZN5L647420L6474_SelectStepModeE15motorStepMode_t+0x46>
    case STEP_MODE_1_4:
      l6474StepMod = L6474_STEP_SEL_1_4;
 80021c0:	230a      	movs	r3, #10
 80021c2:	73fb      	strb	r3, [r7, #15]
      break;
 80021c4:	e005      	b.n	80021d2 <_ZN5L647420L6474_SelectStepModeE15motorStepMode_t+0x46>
    case STEP_MODE_1_8:
      l6474StepMod = L6474_STEP_SEL_1_8;
 80021c6:	230b      	movs	r3, #11
 80021c8:	73fb      	strb	r3, [r7, #15]
      break;
 80021ca:	e002      	b.n	80021d2 <_ZN5L647420L6474_SelectStepModeE15motorStepMode_t+0x46>
    case STEP_MODE_1_16:
    default:
      l6474StepMod = L6474_STEP_SEL_1_16;
 80021cc:	230c      	movs	r3, #12
 80021ce:	73fb      	strb	r3, [r7, #15]
      break;
 80021d0:	bf00      	nop
  }

  /* Eventually deactivate motor */
  if (device_prm.motionState != INACTIVE)
 80021d2:	687b      	ldr	r3, [r7, #4]
 80021d4:	f893 304c 	ldrb.w	r3, [r3, #76]	@ 0x4c
 80021d8:	b2db      	uxtb	r3, r3
 80021da:	2b03      	cmp	r3, #3
 80021dc:	bf14      	ite	ne
 80021de:	2301      	movne	r3, #1
 80021e0:	2300      	moveq	r3, #0
 80021e2:	b2db      	uxtb	r3, r3
 80021e4:	2b00      	cmp	r3, #0
 80021e6:	d002      	beq.n	80021ee <_ZN5L647420L6474_SelectStepModeE15motorStepMode_t+0x62>
  {
    L6474_HardStop();
 80021e8:	6878      	ldr	r0, [r7, #4]
 80021ea:	f7ff fbca 	bl	8001982 <_ZN5L647414L6474_HardStopEv>
  }

  /* Read Step mode register and clear STEP_SEL field */
  stepModeRegister = (uint8_t)(0xF8 & L6474_CmdGetParam(L6474_STEP_MODE)) ;
 80021ee:	2116      	movs	r1, #22
 80021f0:	6878      	ldr	r0, [r7, #4]
 80021f2:	f7ff fd5d 	bl	8001cb0 <_ZN5L647417L6474_CmdGetParamE17L6474_Registers_t>
 80021f6:	4603      	mov	r3, r0
 80021f8:	b2db      	uxtb	r3, r3
 80021fa:	f023 0307 	bic.w	r3, r3, #7
 80021fe:	73bb      	strb	r3, [r7, #14]

  /* Apply new step mode */
  L6474_CmdSetParam(L6474_STEP_MODE, stepModeRegister | (uint8_t)l6474StepMod);
 8002200:	7bba      	ldrb	r2, [r7, #14]
 8002202:	7bfb      	ldrb	r3, [r7, #15]
 8002204:	4313      	orrs	r3, r2
 8002206:	b2db      	uxtb	r3, r3
 8002208:	461a      	mov	r2, r3
 800220a:	2116      	movs	r1, #22
 800220c:	6878      	ldr	r0, [r7, #4]
 800220e:	f7ff fecb 	bl	8001fa8 <_ZN5L647417L6474_CmdSetParamE17L6474_Registers_tm>

  /* Reset abs pos register */
  L6474_SetHome();
 8002212:	6878      	ldr	r0, [r7, #4]
 8002214:	f7ff fc7b 	bl	8001b0e <_ZN5L647413L6474_SetHomeEv>
}
 8002218:	bf00      	nop
 800221a:	3710      	adds	r7, #16
 800221c:	46bd      	mov	sp, r7
 800221e:	bd80      	pop	{r7, pc}

08002220 <_ZN5L647418L6474_GetDirectionEv>:

motorDir_t L6474::L6474_GetDirection(void)
{
 8002220:	b480      	push	{r7}
 8002222:	b083      	sub	sp, #12
 8002224:	af00      	add	r7, sp, #0
 8002226:	6078      	str	r0, [r7, #4]
  return device_prm.direction;
 8002228:	687b      	ldr	r3, [r7, #4]
 800222a:	f893 304b 	ldrb.w	r3, [r3, #75]	@ 0x4b
 800222e:	b2db      	uxtb	r3, r3
}
 8002230:	4618      	mov	r0, r3
 8002232:	370c      	adds	r7, #12
 8002234:	46bd      	mov	sp, r7
 8002236:	bc80      	pop	{r7}
 8002238:	4770      	bx	lr

0800223a <_ZN5L647418L6474_SetDirectionE10motorDir_t>:

void L6474::L6474_SetDirection(motorDir_t direction)
{
 800223a:	b580      	push	{r7, lr}
 800223c:	b082      	sub	sp, #8
 800223e:	af00      	add	r7, sp, #0
 8002240:	6078      	str	r0, [r7, #4]
 8002242:	460b      	mov	r3, r1
 8002244:	70fb      	strb	r3, [r7, #3]
  if (device_prm.motionState == INACTIVE)
 8002246:	687b      	ldr	r3, [r7, #4]
 8002248:	f893 304c 	ldrb.w	r3, [r3, #76]	@ 0x4c
 800224c:	b2db      	uxtb	r3, r3
 800224e:	2b03      	cmp	r3, #3
 8002250:	bf0c      	ite	eq
 8002252:	2301      	moveq	r3, #1
 8002254:	2300      	movne	r3, #0
 8002256:	b2db      	uxtb	r3, r3
 8002258:	2b00      	cmp	r3, #0
 800225a:	d008      	beq.n	800226e <_ZN5L647418L6474_SetDirectionE10motorDir_t+0x34>
  {
    device_prm.direction = direction;
 800225c:	687b      	ldr	r3, [r7, #4]
 800225e:	78fa      	ldrb	r2, [r7, #3]
 8002260:	f883 204b 	strb.w	r2, [r3, #75]	@ 0x4b
    L6474_SetDirectionGpio(direction);
 8002264:	78fb      	ldrb	r3, [r7, #3]
 8002266:	4619      	mov	r1, r3
 8002268:	6878      	ldr	r0, [r7, #4]
 800226a:	f7ff f9ad 	bl	80015c8 <_ZN5L647422L6474_SetDirectionGpioEh>
  }
}
 800226e:	bf00      	nop
 8002270:	3708      	adds	r7, #8
 8002272:	46bd      	mov	sp, r7
 8002274:	bd80      	pop	{r7, pc}

08002276 <_ZN5L647416L6474_ApplySpeedEt>:

void L6474::L6474_ApplySpeed(uint16_t newSpeed)
{
 8002276:	b580      	push	{r7, lr}
 8002278:	b082      	sub	sp, #8
 800227a:	af00      	add	r7, sp, #0
 800227c:	6078      	str	r0, [r7, #4]
 800227e:	460b      	mov	r3, r1
 8002280:	807b      	strh	r3, [r7, #2]
  if (newSpeed < L6474_MIN_PWM_FREQ)
 8002282:	887b      	ldrh	r3, [r7, #2]
 8002284:	2b01      	cmp	r3, #1
 8002286:	d801      	bhi.n	800228c <_ZN5L647416L6474_ApplySpeedEt+0x16>
  {
    newSpeed = L6474_MIN_PWM_FREQ;
 8002288:	2302      	movs	r3, #2
 800228a:	807b      	strh	r3, [r7, #2]
  }
  if (newSpeed > L6474_MAX_PWM_FREQ)
 800228c:	887b      	ldrh	r3, [r7, #2]
 800228e:	f242 7210 	movw	r2, #10000	@ 0x2710
 8002292:	4293      	cmp	r3, r2
 8002294:	d902      	bls.n	800229c <_ZN5L647416L6474_ApplySpeedEt+0x26>
  {
    newSpeed = L6474_MAX_PWM_FREQ;
 8002296:	f242 7310 	movw	r3, #10000	@ 0x2710
 800229a:	807b      	strh	r3, [r7, #2]
  }

  device_prm.speed = newSpeed;
 800229c:	687b      	ldr	r3, [r7, #4]
 800229e:	887a      	ldrh	r2, [r7, #2]
 80022a0:	f8a3 2048 	strh.w	r2, [r3, #72]	@ 0x48

  L6474_PwmSetFreq(newSpeed);
 80022a4:	887b      	ldrh	r3, [r7, #2]
 80022a6:	4619      	mov	r1, r3
 80022a8:	6878      	ldr	r0, [r7, #4]
 80022aa:	f000 fd5b 	bl	8002d64 <_ZN5L647416L6474_PwmSetFreqEt>
}
 80022ae:	bf00      	nop
 80022b0:	3708      	adds	r7, #8
 80022b2:	46bd      	mov	sp, r7
 80022b4:	bd80      	pop	{r7, pc}

080022b6 <_ZN5L647425L6474_ComputeSpeedProfileEm>:

void L6474::L6474_ComputeSpeedProfile(uint32_t nbSteps)
{
 80022b6:	b480      	push	{r7}
 80022b8:	b089      	sub	sp, #36	@ 0x24
 80022ba:	af00      	add	r7, sp, #0
 80022bc:	6078      	str	r0, [r7, #4]
 80022be:	6039      	str	r1, [r7, #0]
  uint32_t reqAccSteps;
  uint32_t reqDecSteps;

  /* compute the number of steps to get the targeted speed */
  uint16_t minSpeed = device_prm.minSpeed;
 80022c0:	687b      	ldr	r3, [r7, #4]
 80022c2:	f8b3 3046 	ldrh.w	r3, [r3, #70]	@ 0x46
 80022c6:	837b      	strh	r3, [r7, #26]
  reqAccSteps = (device_prm.maxSpeed - minSpeed);
 80022c8:	687b      	ldr	r3, [r7, #4]
 80022ca:	f8b3 3044 	ldrh.w	r3, [r3, #68]	@ 0x44
 80022ce:	b29b      	uxth	r3, r3
 80022d0:	461a      	mov	r2, r3
 80022d2:	8b7b      	ldrh	r3, [r7, #26]
 80022d4:	1ad3      	subs	r3, r2, r3
 80022d6:	61fb      	str	r3, [r7, #28]
  reqAccSteps *= (device_prm.maxSpeed + minSpeed);
 80022d8:	687b      	ldr	r3, [r7, #4]
 80022da:	f8b3 3044 	ldrh.w	r3, [r3, #68]	@ 0x44
 80022de:	b29b      	uxth	r3, r3
 80022e0:	461a      	mov	r2, r3
 80022e2:	8b7b      	ldrh	r3, [r7, #26]
 80022e4:	4413      	add	r3, r2
 80022e6:	461a      	mov	r2, r3
 80022e8:	69fb      	ldr	r3, [r7, #28]
 80022ea:	fb02 f303 	mul.w	r3, r2, r3
 80022ee:	61fb      	str	r3, [r7, #28]
  reqDecSteps = reqAccSteps;
 80022f0:	69fb      	ldr	r3, [r7, #28]
 80022f2:	617b      	str	r3, [r7, #20]
  reqAccSteps /= (uint32_t)device_prm.acceleration;
 80022f4:	687b      	ldr	r3, [r7, #4]
 80022f6:	f8b3 3040 	ldrh.w	r3, [r3, #64]	@ 0x40
 80022fa:	b29b      	uxth	r3, r3
 80022fc:	461a      	mov	r2, r3
 80022fe:	69fb      	ldr	r3, [r7, #28]
 8002300:	fbb3 f3f2 	udiv	r3, r3, r2
 8002304:	61fb      	str	r3, [r7, #28]
  reqAccSteps /= 2;
 8002306:	69fb      	ldr	r3, [r7, #28]
 8002308:	085b      	lsrs	r3, r3, #1
 800230a:	61fb      	str	r3, [r7, #28]

  /* compute the number of steps to stop */
  reqDecSteps /= (uint32_t)device_prm.deceleration;
 800230c:	687b      	ldr	r3, [r7, #4]
 800230e:	f8b3 3042 	ldrh.w	r3, [r3, #66]	@ 0x42
 8002312:	b29b      	uxth	r3, r3
 8002314:	461a      	mov	r2, r3
 8002316:	697b      	ldr	r3, [r7, #20]
 8002318:	fbb3 f3f2 	udiv	r3, r3, r2
 800231c:	617b      	str	r3, [r7, #20]
  reqDecSteps /= 2;
 800231e:	697b      	ldr	r3, [r7, #20]
 8002320:	085b      	lsrs	r3, r3, #1
 8002322:	617b      	str	r3, [r7, #20]

  if(( reqAccSteps + reqDecSteps ) > nbSteps)
 8002324:	69fa      	ldr	r2, [r7, #28]
 8002326:	697b      	ldr	r3, [r7, #20]
 8002328:	4413      	add	r3, r2
 800232a:	683a      	ldr	r2, [r7, #0]
 800232c:	429a      	cmp	r2, r3
 800232e:	d228      	bcs.n	8002382 <_ZN5L647425L6474_ComputeSpeedProfileEm+0xcc>
  {
    /* Triangular move  */
    /* reqDecSteps = (Pos * Dec) /(Dec+Acc) */
    uint32_t dec = device_prm.deceleration;
 8002330:	687b      	ldr	r3, [r7, #4]
 8002332:	f8b3 3042 	ldrh.w	r3, [r3, #66]	@ 0x42
 8002336:	b29b      	uxth	r3, r3
 8002338:	613b      	str	r3, [r7, #16]
    uint32_t acc = device_prm.acceleration;
 800233a:	687b      	ldr	r3, [r7, #4]
 800233c:	f8b3 3040 	ldrh.w	r3, [r3, #64]	@ 0x40
 8002340:	b29b      	uxth	r3, r3
 8002342:	60fb      	str	r3, [r7, #12]

    reqDecSteps =  ((uint32_t) dec * nbSteps) / (acc + dec);
 8002344:	693b      	ldr	r3, [r7, #16]
 8002346:	683a      	ldr	r2, [r7, #0]
 8002348:	fb03 f202 	mul.w	r2, r3, r2
 800234c:	68f9      	ldr	r1, [r7, #12]
 800234e:	693b      	ldr	r3, [r7, #16]
 8002350:	440b      	add	r3, r1
 8002352:	fbb2 f3f3 	udiv	r3, r2, r3
 8002356:	617b      	str	r3, [r7, #20]
    if (reqDecSteps > 1)
 8002358:	697b      	ldr	r3, [r7, #20]
 800235a:	2b01      	cmp	r3, #1
 800235c:	d908      	bls.n	8002370 <_ZN5L647425L6474_ComputeSpeedProfileEm+0xba>
    {
      reqAccSteps = reqDecSteps - 1;
 800235e:	697b      	ldr	r3, [r7, #20]
 8002360:	3b01      	subs	r3, #1
 8002362:	61fb      	str	r3, [r7, #28]
      if(reqAccSteps == 0)
 8002364:	69fb      	ldr	r3, [r7, #28]
 8002366:	2b00      	cmp	r3, #0
 8002368:	d104      	bne.n	8002374 <_ZN5L647425L6474_ComputeSpeedProfileEm+0xbe>
      {
        reqAccSteps = 1;
 800236a:	2301      	movs	r3, #1
 800236c:	61fb      	str	r3, [r7, #28]
 800236e:	e001      	b.n	8002374 <_ZN5L647425L6474_ComputeSpeedProfileEm+0xbe>
      }
    }
    else
    {
      reqAccSteps = 0;
 8002370:	2300      	movs	r3, #0
 8002372:	61fb      	str	r3, [r7, #28]
    }
    device_prm.endAccPos = reqAccSteps;
 8002374:	687b      	ldr	r3, [r7, #4]
 8002376:	69fa      	ldr	r2, [r7, #28]
 8002378:	631a      	str	r2, [r3, #48]	@ 0x30
    device_prm.startDecPos = reqDecSteps;
 800237a:	687b      	ldr	r3, [r7, #4]
 800237c:	697a      	ldr	r2, [r7, #20]
 800237e:	639a      	str	r2, [r3, #56]	@ 0x38
    /* steady phase from  endAccPos to startDecPos */
    /* decelerating from startDecPos to stepsToTake*/
    device_prm.endAccPos = reqAccSteps;
    device_prm.startDecPos = nbSteps - reqDecSteps - 1;
  }
}
 8002380:	e008      	b.n	8002394 <_ZN5L647425L6474_ComputeSpeedProfileEm+0xde>
    device_prm.endAccPos = reqAccSteps;
 8002382:	687b      	ldr	r3, [r7, #4]
 8002384:	69fa      	ldr	r2, [r7, #28]
 8002386:	631a      	str	r2, [r3, #48]	@ 0x30
    device_prm.startDecPos = nbSteps - reqDecSteps - 1;
 8002388:	683a      	ldr	r2, [r7, #0]
 800238a:	697b      	ldr	r3, [r7, #20]
 800238c:	1ad3      	subs	r3, r2, r3
 800238e:	1e5a      	subs	r2, r3, #1
 8002390:	687b      	ldr	r3, [r7, #4]
 8002392:	639a      	str	r2, [r3, #56]	@ 0x38
}
 8002394:	bf00      	nop
 8002396:	3724      	adds	r7, #36	@ 0x24
 8002398:	46bd      	mov	sp, r7
 800239a:	bc80      	pop	{r7}
 800239c:	4770      	bx	lr

0800239e <_ZN5L647421L6474_ConvertPositionEm>:

int32_t L6474::L6474_ConvertPosition(uint32_t abs_position_reg)
{
 800239e:	b480      	push	{r7}
 80023a0:	b085      	sub	sp, #20
 80023a2:	af00      	add	r7, sp, #0
 80023a4:	6078      	str	r0, [r7, #4]
 80023a6:	6039      	str	r1, [r7, #0]
  int32_t operation_result;

  if (abs_position_reg & L6474_ABS_POS_SIGN_BIT_MASK)
 80023a8:	683b      	ldr	r3, [r7, #0]
 80023aa:	f403 1300 	and.w	r3, r3, #2097152	@ 0x200000
 80023ae:	2b00      	cmp	r3, #0
 80023b0:	d00d      	beq.n	80023ce <_ZN5L647421L6474_ConvertPositionEm+0x30>
  {
    /* Negative register value */
    abs_position_reg = ~abs_position_reg;
 80023b2:	683b      	ldr	r3, [r7, #0]
 80023b4:	43db      	mvns	r3, r3
 80023b6:	603b      	str	r3, [r7, #0]
    abs_position_reg += 1;
 80023b8:	683b      	ldr	r3, [r7, #0]
 80023ba:	3301      	adds	r3, #1
 80023bc:	603b      	str	r3, [r7, #0]

    operation_result = (int32_t) (abs_position_reg & L6474_ABS_POS_VALUE_MASK);
 80023be:	683b      	ldr	r3, [r7, #0]
 80023c0:	f3c3 0315 	ubfx	r3, r3, #0, #22
 80023c4:	60fb      	str	r3, [r7, #12]
    operation_result = -operation_result;
 80023c6:	68fb      	ldr	r3, [r7, #12]
 80023c8:	425b      	negs	r3, r3
 80023ca:	60fb      	str	r3, [r7, #12]
 80023cc:	e001      	b.n	80023d2 <_ZN5L647421L6474_ConvertPositionEm+0x34>
  }
  else
  {
    operation_result = (int32_t) abs_position_reg;
 80023ce:	683b      	ldr	r3, [r7, #0]
 80023d0:	60fb      	str	r3, [r7, #12]
  }

  return operation_result;
 80023d2:	68fb      	ldr	r3, [r7, #12]
}
 80023d4:	4618      	mov	r0, r3
 80023d6:	3714      	adds	r7, #20
 80023d8:	46bd      	mov	sp, r7
 80023da:	bc80      	pop	{r7}
 80023dc:	4770      	bx	lr

080023de <_ZN5L647418L6474_ErrorHandlerEt>:

void L6474::L6474_ErrorHandler(uint16_t error)
{
 80023de:	b580      	push	{r7, lr}
 80023e0:	b082      	sub	sp, #8
 80023e2:	af00      	add	r7, sp, #0
 80023e4:	6078      	str	r0, [r7, #4]
 80023e6:	460b      	mov	r3, r1
 80023e8:	807b      	strh	r3, [r7, #2]
  if (error_handler_callback != 0)
 80023ea:	687b      	ldr	r3, [r7, #4]
 80023ec:	6a5b      	ldr	r3, [r3, #36]	@ 0x24
 80023ee:	2b00      	cmp	r3, #0
 80023f0:	d005      	beq.n	80023fe <_ZN5L647418L6474_ErrorHandlerEt+0x20>
  {
    (void) error_handler_callback(error);
 80023f2:	687b      	ldr	r3, [r7, #4]
 80023f4:	6a5b      	ldr	r3, [r3, #36]	@ 0x24
 80023f6:	887a      	ldrh	r2, [r7, #2]
 80023f8:	4610      	mov	r0, r2
 80023fa:	4798      	blx	r3
  else
  {
    /* Aborting the program. */
    exit(EXIT_FAILURE);
  }
}
 80023fc:	e002      	b.n	8002404 <_ZN5L647418L6474_ErrorHandlerEt+0x26>
    exit(EXIT_FAILURE);
 80023fe:	2001      	movs	r0, #1
 8002400:	f003 fdc0 	bl	8005f84 <exit>
}
 8002404:	3708      	adds	r7, #8
 8002406:	46bd      	mov	sp, r7
 8002408:	bd80      	pop	{r7, pc}
	...

0800240c <_ZN5L647417L6474_SendCommandEh>:

void L6474::L6474_SendCommand(uint8_t param)
{
 800240c:	b580      	push	{r7, lr}
 800240e:	b084      	sub	sp, #16
 8002410:	af00      	add	r7, sp, #0
 8002412:	6078      	str	r0, [r7, #4]
 8002414:	460b      	mov	r3, r1
 8002416:	70fb      	strb	r3, [r7, #3]
  uint32_t i;
  bool itDisable = FALSE;
 8002418:	2300      	movs	r3, #0
 800241a:	72fb      	strb	r3, [r7, #11]
  uint8_t spiIndex = number_of_devices - device_instance - 1;
 800241c:	4b1f      	ldr	r3, [pc, #124]	@ (800249c <_ZN5L647417L6474_SendCommandEh+0x90>)
 800241e:	781a      	ldrb	r2, [r3, #0]
 8002420:	687b      	ldr	r3, [r7, #4]
 8002422:	f893 3050 	ldrb.w	r3, [r3, #80]	@ 0x50
 8002426:	1ad3      	subs	r3, r2, r3
 8002428:	b2db      	uxtb	r3, r3
 800242a:	3b01      	subs	r3, #1
 800242c:	72bb      	strb	r3, [r7, #10]

  do
  {
    spi_preemtion_by_isr = FALSE;
 800242e:	4b1c      	ldr	r3, [pc, #112]	@ (80024a0 <_ZN5L647417L6474_SendCommandEh+0x94>)
 8002430:	2200      	movs	r2, #0
 8002432:	701a      	strb	r2, [r3, #0]
    if (itDisable)
 8002434:	7afb      	ldrb	r3, [r7, #11]
 8002436:	2b00      	cmp	r3, #0
 8002438:	d004      	beq.n	8002444 <_ZN5L647417L6474_SendCommandEh+0x38>
    {
      /* re-enable L6474_EnableIrq if disable in previous iteration */
      L6474_EnableIrq();
 800243a:	6878      	ldr	r0, [r7, #4]
 800243c:	f7ff f894 	bl	8001568 <_ZN5L647415L6474_EnableIrqEv>
      itDisable = FALSE;
 8002440:	2300      	movs	r3, #0
 8002442:	72fb      	strb	r3, [r7, #11]
    }

    for (i = 0; i < number_of_devices; i++)
 8002444:	2300      	movs	r3, #0
 8002446:	60fb      	str	r3, [r7, #12]
 8002448:	e008      	b.n	800245c <_ZN5L647417L6474_SendCommandEh+0x50>
    {
      spi_tx_bursts[3][i] = L6474_NOP;
 800244a:	4a16      	ldr	r2, [pc, #88]	@ (80024a4 <_ZN5L647417L6474_SendCommandEh+0x98>)
 800244c:	68fb      	ldr	r3, [r7, #12]
 800244e:	4413      	add	r3, r2
 8002450:	3309      	adds	r3, #9
 8002452:	2200      	movs	r2, #0
 8002454:	701a      	strb	r2, [r3, #0]
    for (i = 0; i < number_of_devices; i++)
 8002456:	68fb      	ldr	r3, [r7, #12]
 8002458:	3301      	adds	r3, #1
 800245a:	60fb      	str	r3, [r7, #12]
 800245c:	4b0f      	ldr	r3, [pc, #60]	@ (800249c <_ZN5L647417L6474_SendCommandEh+0x90>)
 800245e:	781b      	ldrb	r3, [r3, #0]
 8002460:	461a      	mov	r2, r3
 8002462:	68fb      	ldr	r3, [r7, #12]
 8002464:	4293      	cmp	r3, r2
 8002466:	d3f0      	bcc.n	800244a <_ZN5L647417L6474_SendCommandEh+0x3e>
    }
    spi_tx_bursts[3][spiIndex] = param;
 8002468:	7abb      	ldrb	r3, [r7, #10]
 800246a:	4a0e      	ldr	r2, [pc, #56]	@ (80024a4 <_ZN5L647417L6474_SendCommandEh+0x98>)
 800246c:	4413      	add	r3, r2
 800246e:	78fa      	ldrb	r2, [r7, #3]
 8002470:	725a      	strb	r2, [r3, #9]

    /* Disable interruption before checking */
    /* pre-emption by ISR and SPI transfers*/
    L6474_DisableIrq();
 8002472:	6878      	ldr	r0, [r7, #4]
 8002474:	f7ff f883 	bl	800157e <_ZN5L647416L6474_DisableIrqEv>
    itDisable = TRUE;
 8002478:	2301      	movs	r3, #1
 800247a:	72fb      	strb	r3, [r7, #11]
  do
 800247c:	4b08      	ldr	r3, [pc, #32]	@ (80024a0 <_ZN5L647417L6474_SendCommandEh+0x94>)
 800247e:	781b      	ldrb	r3, [r3, #0]
 8002480:	2b00      	cmp	r3, #0
 8002482:	d1d4      	bne.n	800242e <_ZN5L647417L6474_SendCommandEh+0x22>
  } while (spi_preemtion_by_isr); // check pre-emption by ISR

  L6474_WriteBytes(&spi_tx_bursts[3][0], &spi_rx_bursts[3][0]);
 8002484:	4a08      	ldr	r2, [pc, #32]	@ (80024a8 <_ZN5L647417L6474_SendCommandEh+0x9c>)
 8002486:	4909      	ldr	r1, [pc, #36]	@ (80024ac <_ZN5L647417L6474_SendCommandEh+0xa0>)
 8002488:	6878      	ldr	r0, [r7, #4]
 800248a:	f000 f9ab 	bl	80027e4 <_ZN5L647416L6474_WriteBytesEPhS0_>

  /* re-enable L6474_EnableIrq after SPI transfers*/
  L6474_EnableIrq();
 800248e:	6878      	ldr	r0, [r7, #4]
 8002490:	f7ff f86a 	bl	8001568 <_ZN5L647415L6474_EnableIrqEv>
}
 8002494:	bf00      	nop
 8002496:	3710      	adds	r7, #16
 8002498:	46bd      	mov	sp, r7
 800249a:	bd80      	pop	{r7, pc}
 800249c:	20000224 	.word	0x20000224
 80024a0:	20000225 	.word	0x20000225
 80024a4:	20000228 	.word	0x20000228
 80024a8:	2000023d 	.word	0x2000023d
 80024ac:	20000231 	.word	0x20000231

080024b0 <_ZN5L647435L6474_SetRegisterToPredefinedValuesEv>:

void L6474::L6474_SetRegisterToPredefinedValues(void)
{
 80024b0:	b580      	push	{r7, lr}
 80024b2:	b082      	sub	sp, #8
 80024b4:	af00      	add	r7, sp, #0
 80024b6:	6078      	str	r0, [r7, #4]
  L6474_CmdSetParam(
 80024b8:	2200      	movs	r2, #0
 80024ba:	2101      	movs	r1, #1
 80024bc:	6878      	ldr	r0, [r7, #4]
 80024be:	f7ff fd73 	bl	8001fa8 <_ZN5L647417L6474_CmdSetParamE17L6474_Registers_tm>
                    L6474_ABS_POS,
                    0);
  L6474_CmdSetParam(
 80024c2:	2200      	movs	r2, #0
 80024c4:	2102      	movs	r1, #2
 80024c6:	6878      	ldr	r0, [r7, #4]
 80024c8:	f7ff fd6e 	bl	8001fa8 <_ZN5L647417L6474_CmdSetParamE17L6474_Registers_tm>
                    L6474_EL_POS,
                    0);
  L6474_CmdSetParam(
 80024cc:	2200      	movs	r2, #0
 80024ce:	2103      	movs	r1, #3
 80024d0:	6878      	ldr	r0, [r7, #4]
 80024d2:	f7ff fd69 	bl	8001fa8 <_ZN5L647417L6474_CmdSetParamE17L6474_Registers_tm>
                    L6474_MARK,
                    0);
  switch (device_instance)
 80024d6:	687b      	ldr	r3, [r7, #4]
 80024d8:	f893 3050 	ldrb.w	r3, [r3, #80]	@ 0x50
 80024dc:	2b02      	cmp	r3, #2
 80024de:	f000 8092 	beq.w	8002606 <_ZN5L647435L6474_SetRegisterToPredefinedValuesEv+0x156>
 80024e2:	2b02      	cmp	r3, #2
 80024e4:	f300 80d4 	bgt.w	8002690 <_ZN5L647435L6474_SetRegisterToPredefinedValuesEv+0x1e0>
 80024e8:	2b00      	cmp	r3, #0
 80024ea:	d002      	beq.n	80024f2 <_ZN5L647435L6474_SetRegisterToPredefinedValuesEv+0x42>
 80024ec:	2b01      	cmp	r3, #1
 80024ee:	d045      	beq.n	800257c <_ZN5L647435L6474_SetRegisterToPredefinedValuesEv+0xcc>
                        (uint16_t)L6474_CONF_PARAM_SR_DEVICE_2 |
                        (uint16_t)L6474_CONF_PARAM_TOFF_DEVICE_2);
      break;
    default: ;
  }
}
 80024f0:	e0ce      	b.n	8002690 <_ZN5L647435L6474_SetRegisterToPredefinedValuesEv+0x1e0>
                        L6474_Tval_Current_to_Par(L6474_CONF_PARAM_TVAL_DEVICE_0));
 80024f2:	4969      	ldr	r1, [pc, #420]	@ (8002698 <_ZN5L647435L6474_SetRegisterToPredefinedValuesEv+0x1e8>)
 80024f4:	6878      	ldr	r0, [r7, #4]
 80024f6:	f000 fb77 	bl	8002be8 <_ZN5L647425L6474_Tval_Current_to_ParEf>
 80024fa:	4603      	mov	r3, r0
      L6474_CmdSetParam(
 80024fc:	4618      	mov	r0, r3
 80024fe:	f7fe fd71 	bl	8000fe4 <__aeabi_f2uiz>
 8002502:	4603      	mov	r3, r0
 8002504:	461a      	mov	r2, r3
 8002506:	2109      	movs	r1, #9
 8002508:	6878      	ldr	r0, [r7, #4]
 800250a:	f7ff fd4d 	bl	8001fa8 <_ZN5L647417L6474_CmdSetParamE17L6474_Registers_tm>
      L6474_CmdSetParam(
 800250e:	2235      	movs	r2, #53	@ 0x35
 8002510:	210e      	movs	r1, #14
 8002512:	6878      	ldr	r0, [r7, #4]
 8002514:	f7ff fd48 	bl	8001fa8 <_ZN5L647417L6474_CmdSetParamE17L6474_Registers_tm>
                        L6474_Tmin_Time_to_Par(L6474_CONF_PARAM_TON_MIN_DEVICE_0)
 8002518:	4960      	ldr	r1, [pc, #384]	@ (800269c <_ZN5L647435L6474_SetRegisterToPredefinedValuesEv+0x1ec>)
 800251a:	6878      	ldr	r0, [r7, #4]
 800251c:	f000 fb9c 	bl	8002c58 <_ZN5L647422L6474_Tmin_Time_to_ParEf>
 8002520:	4603      	mov	r3, r0
      L6474_CmdSetParam(
 8002522:	4618      	mov	r0, r3
 8002524:	f7fe fd5e 	bl	8000fe4 <__aeabi_f2uiz>
 8002528:	4603      	mov	r3, r0
 800252a:	461a      	mov	r2, r3
 800252c:	210f      	movs	r1, #15
 800252e:	6878      	ldr	r0, [r7, #4]
 8002530:	f7ff fd3a 	bl	8001fa8 <_ZN5L647417L6474_CmdSetParamE17L6474_Registers_tm>
                        L6474_Tmin_Time_to_Par(L6474_CONF_PARAM_TOFF_MIN_DEVICE_0));
 8002534:	495a      	ldr	r1, [pc, #360]	@ (80026a0 <_ZN5L647435L6474_SetRegisterToPredefinedValuesEv+0x1f0>)
 8002536:	6878      	ldr	r0, [r7, #4]
 8002538:	f000 fb8e 	bl	8002c58 <_ZN5L647422L6474_Tmin_Time_to_ParEf>
 800253c:	4603      	mov	r3, r0
      L6474_CmdSetParam(
 800253e:	4618      	mov	r0, r3
 8002540:	f7fe fd50 	bl	8000fe4 <__aeabi_f2uiz>
 8002544:	4603      	mov	r3, r0
 8002546:	461a      	mov	r2, r3
 8002548:	2110      	movs	r1, #16
 800254a:	6878      	ldr	r0, [r7, #4]
 800254c:	f7ff fd2c 	bl	8001fa8 <_ZN5L647417L6474_CmdSetParamE17L6474_Registers_tm>
      L6474_CmdSetParam(
 8002550:	2201      	movs	r2, #1
 8002552:	2113      	movs	r1, #19
 8002554:	6878      	ldr	r0, [r7, #4]
 8002556:	f7ff fd27 	bl	8001fa8 <_ZN5L647417L6474_CmdSetParamE17L6474_Registers_tm>
      L6474_CmdSetParam(
 800255a:	228c      	movs	r2, #140	@ 0x8c
 800255c:	2116      	movs	r1, #22
 800255e:	6878      	ldr	r0, [r7, #4]
 8002560:	f7ff fd22 	bl	8001fa8 <_ZN5L647417L6474_CmdSetParamE17L6474_Registers_tm>
      L6474_CmdSetParam(
 8002564:	22cf      	movs	r2, #207	@ 0xcf
 8002566:	2117      	movs	r1, #23
 8002568:	6878      	ldr	r0, [r7, #4]
 800256a:	f7ff fd1d 	bl	8001fa8 <_ZN5L647417L6474_CmdSetParamE17L6474_Registers_tm>
      L6474_CmdSetParam(
 800256e:	f44f 5232 	mov.w	r2, #11392	@ 0x2c80
 8002572:	2118      	movs	r1, #24
 8002574:	6878      	ldr	r0, [r7, #4]
 8002576:	f7ff fd17 	bl	8001fa8 <_ZN5L647417L6474_CmdSetParamE17L6474_Registers_tm>
      break;
 800257a:	e089      	b.n	8002690 <_ZN5L647435L6474_SetRegisterToPredefinedValuesEv+0x1e0>
                        L6474_Tval_Current_to_Par(L6474_CONF_PARAM_TVAL_DEVICE_1));
 800257c:	4946      	ldr	r1, [pc, #280]	@ (8002698 <_ZN5L647435L6474_SetRegisterToPredefinedValuesEv+0x1e8>)
 800257e:	6878      	ldr	r0, [r7, #4]
 8002580:	f000 fb32 	bl	8002be8 <_ZN5L647425L6474_Tval_Current_to_ParEf>
 8002584:	4603      	mov	r3, r0
      L6474_CmdSetParam(
 8002586:	4618      	mov	r0, r3
 8002588:	f7fe fd2c 	bl	8000fe4 <__aeabi_f2uiz>
 800258c:	4603      	mov	r3, r0
 800258e:	461a      	mov	r2, r3
 8002590:	2109      	movs	r1, #9
 8002592:	6878      	ldr	r0, [r7, #4]
 8002594:	f7ff fd08 	bl	8001fa8 <_ZN5L647417L6474_CmdSetParamE17L6474_Registers_tm>
      L6474_CmdSetParam(
 8002598:	2235      	movs	r2, #53	@ 0x35
 800259a:	210e      	movs	r1, #14
 800259c:	6878      	ldr	r0, [r7, #4]
 800259e:	f7ff fd03 	bl	8001fa8 <_ZN5L647417L6474_CmdSetParamE17L6474_Registers_tm>
                        L6474_Tmin_Time_to_Par(L6474_CONF_PARAM_TON_MIN_DEVICE_1));
 80025a2:	493e      	ldr	r1, [pc, #248]	@ (800269c <_ZN5L647435L6474_SetRegisterToPredefinedValuesEv+0x1ec>)
 80025a4:	6878      	ldr	r0, [r7, #4]
 80025a6:	f000 fb57 	bl	8002c58 <_ZN5L647422L6474_Tmin_Time_to_ParEf>
 80025aa:	4603      	mov	r3, r0
      L6474_CmdSetParam(
 80025ac:	4618      	mov	r0, r3
 80025ae:	f7fe fd19 	bl	8000fe4 <__aeabi_f2uiz>
 80025b2:	4603      	mov	r3, r0
 80025b4:	461a      	mov	r2, r3
 80025b6:	210f      	movs	r1, #15
 80025b8:	6878      	ldr	r0, [r7, #4]
 80025ba:	f7ff fcf5 	bl	8001fa8 <_ZN5L647417L6474_CmdSetParamE17L6474_Registers_tm>
                        L6474_Tmin_Time_to_Par(L6474_CONF_PARAM_TOFF_MIN_DEVICE_1));
 80025be:	4938      	ldr	r1, [pc, #224]	@ (80026a0 <_ZN5L647435L6474_SetRegisterToPredefinedValuesEv+0x1f0>)
 80025c0:	6878      	ldr	r0, [r7, #4]
 80025c2:	f000 fb49 	bl	8002c58 <_ZN5L647422L6474_Tmin_Time_to_ParEf>
 80025c6:	4603      	mov	r3, r0
      L6474_CmdSetParam(
 80025c8:	4618      	mov	r0, r3
 80025ca:	f7fe fd0b 	bl	8000fe4 <__aeabi_f2uiz>
 80025ce:	4603      	mov	r3, r0
 80025d0:	461a      	mov	r2, r3
 80025d2:	2110      	movs	r1, #16
 80025d4:	6878      	ldr	r0, [r7, #4]
 80025d6:	f7ff fce7 	bl	8001fa8 <_ZN5L647417L6474_CmdSetParamE17L6474_Registers_tm>
      L6474_CmdSetParam(
 80025da:	2201      	movs	r2, #1
 80025dc:	2113      	movs	r1, #19
 80025de:	6878      	ldr	r0, [r7, #4]
 80025e0:	f7ff fce2 	bl	8001fa8 <_ZN5L647417L6474_CmdSetParamE17L6474_Registers_tm>
      L6474_CmdSetParam(
 80025e4:	228c      	movs	r2, #140	@ 0x8c
 80025e6:	2116      	movs	r1, #22
 80025e8:	6878      	ldr	r0, [r7, #4]
 80025ea:	f7ff fcdd 	bl	8001fa8 <_ZN5L647417L6474_CmdSetParamE17L6474_Registers_tm>
      L6474_CmdSetParam(
 80025ee:	22cf      	movs	r2, #207	@ 0xcf
 80025f0:	2117      	movs	r1, #23
 80025f2:	6878      	ldr	r0, [r7, #4]
 80025f4:	f7ff fcd8 	bl	8001fa8 <_ZN5L647417L6474_CmdSetParamE17L6474_Registers_tm>
      L6474_CmdSetParam(
 80025f8:	f44f 5232 	mov.w	r2, #11392	@ 0x2c80
 80025fc:	2118      	movs	r1, #24
 80025fe:	6878      	ldr	r0, [r7, #4]
 8002600:	f7ff fcd2 	bl	8001fa8 <_ZN5L647417L6474_CmdSetParamE17L6474_Registers_tm>
      break;
 8002604:	e044      	b.n	8002690 <_ZN5L647435L6474_SetRegisterToPredefinedValuesEv+0x1e0>
                        L6474_Tval_Current_to_Par(L6474_CONF_PARAM_TVAL_DEVICE_2));
 8002606:	4924      	ldr	r1, [pc, #144]	@ (8002698 <_ZN5L647435L6474_SetRegisterToPredefinedValuesEv+0x1e8>)
 8002608:	6878      	ldr	r0, [r7, #4]
 800260a:	f000 faed 	bl	8002be8 <_ZN5L647425L6474_Tval_Current_to_ParEf>
 800260e:	4603      	mov	r3, r0
      L6474_CmdSetParam(
 8002610:	4618      	mov	r0, r3
 8002612:	f7fe fce7 	bl	8000fe4 <__aeabi_f2uiz>
 8002616:	4603      	mov	r3, r0
 8002618:	461a      	mov	r2, r3
 800261a:	2109      	movs	r1, #9
 800261c:	6878      	ldr	r0, [r7, #4]
 800261e:	f7ff fcc3 	bl	8001fa8 <_ZN5L647417L6474_CmdSetParamE17L6474_Registers_tm>
      L6474_CmdSetParam(
 8002622:	2235      	movs	r2, #53	@ 0x35
 8002624:	210e      	movs	r1, #14
 8002626:	6878      	ldr	r0, [r7, #4]
 8002628:	f7ff fcbe 	bl	8001fa8 <_ZN5L647417L6474_CmdSetParamE17L6474_Registers_tm>
                        L6474_Tmin_Time_to_Par(L6474_CONF_PARAM_TON_MIN_DEVICE_2));
 800262c:	491b      	ldr	r1, [pc, #108]	@ (800269c <_ZN5L647435L6474_SetRegisterToPredefinedValuesEv+0x1ec>)
 800262e:	6878      	ldr	r0, [r7, #4]
 8002630:	f000 fb12 	bl	8002c58 <_ZN5L647422L6474_Tmin_Time_to_ParEf>
 8002634:	4603      	mov	r3, r0
      L6474_CmdSetParam(
 8002636:	4618      	mov	r0, r3
 8002638:	f7fe fcd4 	bl	8000fe4 <__aeabi_f2uiz>
 800263c:	4603      	mov	r3, r0
 800263e:	461a      	mov	r2, r3
 8002640:	210f      	movs	r1, #15
 8002642:	6878      	ldr	r0, [r7, #4]
 8002644:	f7ff fcb0 	bl	8001fa8 <_ZN5L647417L6474_CmdSetParamE17L6474_Registers_tm>
                        L6474_Tmin_Time_to_Par(L6474_CONF_PARAM_TOFF_MIN_DEVICE_2));
 8002648:	4915      	ldr	r1, [pc, #84]	@ (80026a0 <_ZN5L647435L6474_SetRegisterToPredefinedValuesEv+0x1f0>)
 800264a:	6878      	ldr	r0, [r7, #4]
 800264c:	f000 fb04 	bl	8002c58 <_ZN5L647422L6474_Tmin_Time_to_ParEf>
 8002650:	4603      	mov	r3, r0
      L6474_CmdSetParam(
 8002652:	4618      	mov	r0, r3
 8002654:	f7fe fcc6 	bl	8000fe4 <__aeabi_f2uiz>
 8002658:	4603      	mov	r3, r0
 800265a:	461a      	mov	r2, r3
 800265c:	2110      	movs	r1, #16
 800265e:	6878      	ldr	r0, [r7, #4]
 8002660:	f7ff fca2 	bl	8001fa8 <_ZN5L647417L6474_CmdSetParamE17L6474_Registers_tm>
      L6474_CmdSetParam(
 8002664:	2201      	movs	r2, #1
 8002666:	2113      	movs	r1, #19
 8002668:	6878      	ldr	r0, [r7, #4]
 800266a:	f7ff fc9d 	bl	8001fa8 <_ZN5L647417L6474_CmdSetParamE17L6474_Registers_tm>
      L6474_CmdSetParam(
 800266e:	228c      	movs	r2, #140	@ 0x8c
 8002670:	2116      	movs	r1, #22
 8002672:	6878      	ldr	r0, [r7, #4]
 8002674:	f7ff fc98 	bl	8001fa8 <_ZN5L647417L6474_CmdSetParamE17L6474_Registers_tm>
      L6474_CmdSetParam(
 8002678:	22cf      	movs	r2, #207	@ 0xcf
 800267a:	2117      	movs	r1, #23
 800267c:	6878      	ldr	r0, [r7, #4]
 800267e:	f7ff fc93 	bl	8001fa8 <_ZN5L647417L6474_CmdSetParamE17L6474_Registers_tm>
      L6474_CmdSetParam(
 8002682:	f44f 5232 	mov.w	r2, #11392	@ 0x2c80
 8002686:	2118      	movs	r1, #24
 8002688:	6878      	ldr	r0, [r7, #4]
 800268a:	f7ff fc8d 	bl	8001fa8 <_ZN5L647417L6474_CmdSetParamE17L6474_Registers_tm>
      break;
 800268e:	bf00      	nop
}
 8002690:	bf00      	nop
 8002692:	3708      	adds	r7, #8
 8002694:	46bd      	mov	sp, r7
 8002696:	bd80      	pop	{r7, pc}
 8002698:	437a0000 	.word	0x437a0000
 800269c:	40400000 	.word	0x40400000
 80026a0:	41a80000 	.word	0x41a80000

080026a4 <_ZN5L647439L6474_SetRegisterToInitializationValuesEP12L6474_init_t>:

void L6474::L6474_SetRegisterToInitializationValues(L6474_init_t *init)
{
 80026a4:	b580      	push	{r7, lr}
 80026a6:	b082      	sub	sp, #8
 80026a8:	af00      	add	r7, sp, #0
 80026aa:	6078      	str	r0, [r7, #4]
 80026ac:	6039      	str	r1, [r7, #0]
  L6474_CmdSetParam(
 80026ae:	2200      	movs	r2, #0
 80026b0:	2101      	movs	r1, #1
 80026b2:	6878      	ldr	r0, [r7, #4]
 80026b4:	f7ff fc78 	bl	8001fa8 <_ZN5L647417L6474_CmdSetParamE17L6474_Registers_tm>
                    L6474_ABS_POS,
                    0
                    );
  L6474_CmdSetParam(
 80026b8:	2200      	movs	r2, #0
 80026ba:	2102      	movs	r1, #2
 80026bc:	6878      	ldr	r0, [r7, #4]
 80026be:	f7ff fc73 	bl	8001fa8 <_ZN5L647417L6474_CmdSetParamE17L6474_Registers_tm>
                    L6474_EL_POS,
                    0
                    );
  L6474_CmdSetParam(
 80026c2:	2200      	movs	r2, #0
 80026c4:	2103      	movs	r1, #3
 80026c6:	6878      	ldr	r0, [r7, #4]
 80026c8:	f7ff fc6e 	bl	8001fa8 <_ZN5L647417L6474_CmdSetParamE17L6474_Registers_tm>
                    L6474_MARK,
                    0
                    );
  L6474_CmdSetParam(
                    L6474_TVAL,
                    L6474_Tval_Current_to_Par(init->torque_regulation_current_mA)
 80026cc:	683b      	ldr	r3, [r7, #0]
 80026ce:	691b      	ldr	r3, [r3, #16]
 80026d0:	4619      	mov	r1, r3
 80026d2:	6878      	ldr	r0, [r7, #4]
 80026d4:	f000 fa88 	bl	8002be8 <_ZN5L647425L6474_Tval_Current_to_ParEf>
 80026d8:	4603      	mov	r3, r0
  L6474_CmdSetParam(
 80026da:	4618      	mov	r0, r3
 80026dc:	f7fe fc82 	bl	8000fe4 <__aeabi_f2uiz>
 80026e0:	4603      	mov	r3, r0
 80026e2:	461a      	mov	r2, r3
 80026e4:	2109      	movs	r1, #9
 80026e6:	6878      	ldr	r0, [r7, #4]
 80026e8:	f7ff fc5e 	bl	8001fa8 <_ZN5L647417L6474_CmdSetParamE17L6474_Registers_tm>
                    );
  L6474_CmdSetParam(
                    L6474_T_FAST,
                    (uint8_t) init->maximum_fast_decay_time |
 80026ec:	683b      	ldr	r3, [r7, #0]
 80026ee:	7e9a      	ldrb	r2, [r3, #26]
                    (uint8_t) init->fall_time
 80026f0:	683b      	ldr	r3, [r7, #0]
 80026f2:	7e5b      	ldrb	r3, [r3, #25]
                    (uint8_t) init->maximum_fast_decay_time |
 80026f4:	4313      	orrs	r3, r2
 80026f6:	b2db      	uxtb	r3, r3
  L6474_CmdSetParam(
 80026f8:	461a      	mov	r2, r3
 80026fa:	210e      	movs	r1, #14
 80026fc:	6878      	ldr	r0, [r7, #4]
 80026fe:	f7ff fc53 	bl	8001fa8 <_ZN5L647417L6474_CmdSetParamE17L6474_Registers_tm>
                    );
  L6474_CmdSetParam(
                    L6474_TON_MIN,
                    L6474_Tmin_Time_to_Par(init->minimum_ON_time_us)
 8002702:	683b      	ldr	r3, [r7, #0]
 8002704:	69db      	ldr	r3, [r3, #28]
 8002706:	4619      	mov	r1, r3
 8002708:	6878      	ldr	r0, [r7, #4]
 800270a:	f000 faa5 	bl	8002c58 <_ZN5L647422L6474_Tmin_Time_to_ParEf>
 800270e:	4603      	mov	r3, r0
  L6474_CmdSetParam(
 8002710:	4618      	mov	r0, r3
 8002712:	f7fe fc67 	bl	8000fe4 <__aeabi_f2uiz>
 8002716:	4603      	mov	r3, r0
 8002718:	461a      	mov	r2, r3
 800271a:	210f      	movs	r1, #15
 800271c:	6878      	ldr	r0, [r7, #4]
 800271e:	f7ff fc43 	bl	8001fa8 <_ZN5L647417L6474_CmdSetParamE17L6474_Registers_tm>
                    );
  L6474_CmdSetParam(
                    L6474_TOFF_MIN,
                    L6474_Tmin_Time_to_Par(init->minimum_OFF_time_us)
 8002722:	683b      	ldr	r3, [r7, #0]
 8002724:	6a1b      	ldr	r3, [r3, #32]
 8002726:	4619      	mov	r1, r3
 8002728:	6878      	ldr	r0, [r7, #4]
 800272a:	f000 fa95 	bl	8002c58 <_ZN5L647422L6474_Tmin_Time_to_ParEf>
 800272e:	4603      	mov	r3, r0
  L6474_CmdSetParam(
 8002730:	4618      	mov	r0, r3
 8002732:	f7fe fc57 	bl	8000fe4 <__aeabi_f2uiz>
 8002736:	4603      	mov	r3, r0
 8002738:	461a      	mov	r2, r3
 800273a:	2110      	movs	r1, #16
 800273c:	6878      	ldr	r0, [r7, #4]
 800273e:	f7ff fc33 	bl	8001fa8 <_ZN5L647417L6474_CmdSetParamE17L6474_Registers_tm>
                    );
  L6474_CmdSetParam(
                    L6474_OCD_TH,
                    init->overcurrent_threshold
 8002742:	683b      	ldr	r3, [r7, #0]
 8002744:	7d1b      	ldrb	r3, [r3, #20]
  L6474_CmdSetParam(
 8002746:	461a      	mov	r2, r3
 8002748:	2113      	movs	r1, #19
 800274a:	6878      	ldr	r0, [r7, #4]
 800274c:	f7ff fc2c 	bl	8001fa8 <_ZN5L647417L6474_CmdSetParamE17L6474_Registers_tm>
                    );
  L6474_CmdSetParam(
                    L6474_STEP_MODE,
                    (uint8_t) init->step_selection |
 8002750:	683b      	ldr	r3, [r7, #0]
 8002752:	7dda      	ldrb	r2, [r3, #23]
                    (uint8_t) init->sync_selection
 8002754:	683b      	ldr	r3, [r7, #0]
 8002756:	7e1b      	ldrb	r3, [r3, #24]
                    (uint8_t) init->step_selection |
 8002758:	4313      	orrs	r3, r2
 800275a:	b2db      	uxtb	r3, r3
  L6474_CmdSetParam(
 800275c:	461a      	mov	r2, r3
 800275e:	2116      	movs	r1, #22
 8002760:	6878      	ldr	r0, [r7, #4]
 8002762:	f7ff fc21 	bl	8001fa8 <_ZN5L647417L6474_CmdSetParamE17L6474_Registers_tm>
                    );
  L6474_CmdSetParam(
                    L6474_ALARM_EN,
                    init->alarm
 8002766:	683b      	ldr	r3, [r7, #0]
 8002768:	6adb      	ldr	r3, [r3, #44]	@ 0x2c
  L6474_CmdSetParam(
 800276a:	461a      	mov	r2, r3
 800276c:	2117      	movs	r1, #23
 800276e:	6878      	ldr	r0, [r7, #4]
 8002770:	f7ff fc1a 	bl	8001fa8 <_ZN5L647417L6474_CmdSetParamE17L6474_Registers_tm>
                    );
  L6474_CmdSetParam(
                    L6474_CONFIG,
                    (uint16_t) init->clock |
 8002774:	683b      	ldr	r3, [r7, #0]
 8002776:	f893 2028 	ldrb.w	r2, [r3, #40]	@ 0x28
                    (uint16_t) init->torque_regulation_method |
 800277a:	683b      	ldr	r3, [r7, #0]
 800277c:	7d9b      	ldrb	r3, [r3, #22]
                    (uint16_t) init->clock |
 800277e:	4313      	orrs	r3, r2
 8002780:	b2da      	uxtb	r2, r3
                    (uint16_t) init->overcurrent_shutwdown |
 8002782:	683b      	ldr	r3, [r7, #0]
 8002784:	7d5b      	ldrb	r3, [r3, #21]
                    (uint16_t) init->torque_regulation_method |
 8002786:	4313      	orrs	r3, r2
 8002788:	b2db      	uxtb	r3, r3
 800278a:	461a      	mov	r2, r3
                    (uint16_t) init->slew_rate |
 800278c:	683b      	ldr	r3, [r7, #0]
 800278e:	8cdb      	ldrh	r3, [r3, #38]	@ 0x26
                    (uint16_t) init->overcurrent_shutwdown |
 8002790:	4313      	orrs	r3, r2
                    (uint16_t) init->target_swicthing_period
 8002792:	683a      	ldr	r2, [r7, #0]
 8002794:	8c92      	ldrh	r2, [r2, #36]	@ 0x24
                    (uint16_t) init->slew_rate |
 8002796:	4313      	orrs	r3, r2
  L6474_CmdSetParam(
 8002798:	461a      	mov	r2, r3
 800279a:	2118      	movs	r1, #24
 800279c:	6878      	ldr	r0, [r7, #4]
 800279e:	f7ff fc03 	bl	8001fa8 <_ZN5L647417L6474_CmdSetParamE17L6474_Registers_tm>
                    );
  L6474_SetAcceleration((uint16_t) init->acceleration_pps_2);
 80027a2:	683b      	ldr	r3, [r7, #0]
 80027a4:	681b      	ldr	r3, [r3, #0]
 80027a6:	b29b      	uxth	r3, r3
 80027a8:	4619      	mov	r1, r3
 80027aa:	6878      	ldr	r0, [r7, #4]
 80027ac:	f7ff f95f 	bl	8001a6e <_ZN5L647421L6474_SetAccelerationEt>
  L6474_SetDeceleration((uint16_t) init->deceleration_pps_2);
 80027b0:	683b      	ldr	r3, [r7, #0]
 80027b2:	685b      	ldr	r3, [r3, #4]
 80027b4:	b29b      	uxth	r3, r3
 80027b6:	4619      	mov	r1, r3
 80027b8:	6878      	ldr	r0, [r7, #4]
 80027ba:	f7ff f980 	bl	8001abe <_ZN5L647421L6474_SetDecelerationEt>
  L6474_SetMaxSpeed((uint16_t) init->maximum_speed_pps);
 80027be:	683b      	ldr	r3, [r7, #0]
 80027c0:	689b      	ldr	r3, [r3, #8]
 80027c2:	b29b      	uxth	r3, r3
 80027c4:	4619      	mov	r1, r3
 80027c6:	6878      	ldr	r0, [r7, #4]
 80027c8:	f7ff f9c0 	bl	8001b4c <_ZN5L647417L6474_SetMaxSpeedEt>
  L6474_SetMinSpeed((uint16_t) init->minimum_speed_pps);
 80027cc:	683b      	ldr	r3, [r7, #0]
 80027ce:	68db      	ldr	r3, [r3, #12]
 80027d0:	b29b      	uxth	r3, r3
 80027d2:	4619      	mov	r1, r3
 80027d4:	6878      	ldr	r0, [r7, #4]
 80027d6:	f7ff f9ed 	bl	8001bb4 <_ZN5L647417L6474_SetMinSpeedEt>
}
 80027da:	bf00      	nop
 80027dc:	3708      	adds	r7, #8
 80027de:	46bd      	mov	sp, r7
 80027e0:	bd80      	pop	{r7, pc}
	...

080027e4 <_ZN5L647416L6474_WriteBytesEPhS0_>:

void L6474::L6474_WriteBytes(uint8_t *pByteToTransmit, uint8_t *pReceivedByte)
{
 80027e4:	b580      	push	{r7, lr}
 80027e6:	b084      	sub	sp, #16
 80027e8:	af00      	add	r7, sp, #0
 80027ea:	60f8      	str	r0, [r7, #12]
 80027ec:	60b9      	str	r1, [r7, #8]
 80027ee:	607a      	str	r2, [r7, #4]
  if (L6474_SpiWriteBytes(pByteToTransmit, pReceivedByte) != 0)
 80027f0:	687a      	ldr	r2, [r7, #4]
 80027f2:	68b9      	ldr	r1, [r7, #8]
 80027f4:	68f8      	ldr	r0, [r7, #12]
 80027f6:	f7fe fefb 	bl	80015f0 <_ZN5L647419L6474_SpiWriteBytesEPhS0_>
 80027fa:	4603      	mov	r3, r0
 80027fc:	2b00      	cmp	r3, #0
 80027fe:	bf14      	ite	ne
 8002800:	2301      	movne	r3, #1
 8002802:	2300      	moveq	r3, #0
 8002804:	b2db      	uxtb	r3, r3
 8002806:	2b00      	cmp	r3, #0
 8002808:	d004      	beq.n	8002814 <_ZN5L647416L6474_WriteBytesEPhS0_+0x30>
  {
    L6474_ErrorHandler(L6474_ERROR_1);
 800280a:	f248 0101 	movw	r1, #32769	@ 0x8001
 800280e:	68f8      	ldr	r0, [r7, #12]
 8002810:	f7ff fde5 	bl	80023de <_ZN5L647418L6474_ErrorHandlerEt>
  }

  if (isr_flag)
 8002814:	4b05      	ldr	r3, [pc, #20]	@ (800282c <_ZN5L647416L6474_WriteBytesEPhS0_+0x48>)
 8002816:	781b      	ldrb	r3, [r3, #0]
 8002818:	2b00      	cmp	r3, #0
 800281a:	d002      	beq.n	8002822 <_ZN5L647416L6474_WriteBytesEPhS0_+0x3e>
  {
    spi_preemtion_by_isr = TRUE;
 800281c:	4b04      	ldr	r3, [pc, #16]	@ (8002830 <_ZN5L647416L6474_WriteBytesEPhS0_+0x4c>)
 800281e:	2201      	movs	r2, #1
 8002820:	701a      	strb	r2, [r3, #0]
  }
}
 8002822:	bf00      	nop
 8002824:	3710      	adds	r7, #16
 8002826:	46bd      	mov	sp, r7
 8002828:	bd80      	pop	{r7, pc}
 800282a:	bf00      	nop
 800282c:	20000226 	.word	0x20000226
 8002830:	20000225 	.word	0x20000225

08002834 <_ZN5L647419L6474_StartMovementEv>:
  device_prm.direction = FORWARD;
  device_prm.motionState = INACTIVE;
}

void L6474::L6474_StartMovement(void)
{
 8002834:	b580      	push	{r7, lr}
 8002836:	b082      	sub	sp, #8
 8002838:	af00      	add	r7, sp, #0
 800283a:	6078      	str	r0, [r7, #4]
  /* Enable L6474 powerstage */
  L6474_CmdEnable();
 800283c:	6878      	ldr	r0, [r7, #4]
 800283e:	f7ff fa2b 	bl	8001c98 <_ZN5L647415L6474_CmdEnableEv>
  if (device_prm.endAccPos != 0)
 8002842:	687b      	ldr	r3, [r7, #4]
 8002844:	6b1b      	ldr	r3, [r3, #48]	@ 0x30
 8002846:	2b00      	cmp	r3, #0
 8002848:	bf14      	ite	ne
 800284a:	2301      	movne	r3, #1
 800284c:	2300      	moveq	r3, #0
 800284e:	b2db      	uxtb	r3, r3
 8002850:	2b00      	cmp	r3, #0
 8002852:	d004      	beq.n	800285e <_ZN5L647419L6474_StartMovementEv+0x2a>
  {
    device_prm.motionState = ACCELERATING;
 8002854:	687b      	ldr	r3, [r7, #4]
 8002856:	2200      	movs	r2, #0
 8002858:	f883 204c 	strb.w	r2, [r3, #76]	@ 0x4c
 800285c:	e003      	b.n	8002866 <_ZN5L647419L6474_StartMovementEv+0x32>
  }
  else
  {
    device_prm.motionState = DECELERATING;
 800285e:	687b      	ldr	r3, [r7, #4]
 8002860:	2201      	movs	r2, #1
 8002862:	f883 204c 	strb.w	r2, [r3, #76]	@ 0x4c
  }
  device_prm.accu = 0;
 8002866:	687b      	ldr	r3, [r7, #4]
 8002868:	2200      	movs	r2, #0
 800286a:	629a      	str	r2, [r3, #40]	@ 0x28
  device_prm.relativePos = 0;
 800286c:	687b      	ldr	r3, [r7, #4]
 800286e:	2200      	movs	r2, #0
 8002870:	635a      	str	r2, [r3, #52]	@ 0x34
  L6474_ApplySpeed(device_prm.minSpeed);
 8002872:	687b      	ldr	r3, [r7, #4]
 8002874:	f8b3 3046 	ldrh.w	r3, [r3, #70]	@ 0x46
 8002878:	b29b      	uxth	r3, r3
 800287a:	4619      	mov	r1, r3
 800287c:	6878      	ldr	r0, [r7, #4]
 800287e:	f7ff fcfa 	bl	8002276 <_ZN5L647416L6474_ApplySpeedEt>
}
 8002882:	bf00      	nop
 8002884:	3708      	adds	r7, #8
 8002886:	46bd      	mov	sp, r7
 8002888:	bd80      	pop	{r7, pc}
	...

0800288c <_ZN5L647422L6474_StepClockHandlerEv>:

void L6474::L6474_StepClockHandler(void)
{
 800288c:	b580      	push	{r7, lr}
 800288e:	b08c      	sub	sp, #48	@ 0x30
 8002890:	af00      	add	r7, sp, #0
 8002892:	6078      	str	r0, [r7, #4]
  /* Set isr flag */
  isr_flag = TRUE;
 8002894:	4b9a      	ldr	r3, [pc, #616]	@ (8002b00 <_ZN5L647422L6474_StepClockHandlerEv+0x274>)
 8002896:	2201      	movs	r2, #1
 8002898:	701a      	strb	r2, [r3, #0]

  /* Incrementation of the relative position */
  device_prm.relativePos++;
 800289a:	687b      	ldr	r3, [r7, #4]
 800289c:	6b5b      	ldr	r3, [r3, #52]	@ 0x34
 800289e:	1c5a      	adds	r2, r3, #1
 80028a0:	687b      	ldr	r3, [r7, #4]
 80028a2:	635a      	str	r2, [r3, #52]	@ 0x34

  switch (device_prm.motionState)
 80028a4:	687b      	ldr	r3, [r7, #4]
 80028a6:	f893 304c 	ldrb.w	r3, [r3, #76]	@ 0x4c
 80028aa:	b2db      	uxtb	r3, r3
 80028ac:	2b02      	cmp	r3, #2
 80028ae:	f000 809d 	beq.w	80029ec <_ZN5L647422L6474_StepClockHandlerEv+0x160>
 80028b2:	2b02      	cmp	r3, #2
 80028b4:	f300 8187 	bgt.w	8002bc6 <_ZN5L647422L6474_StepClockHandlerEv+0x33a>
 80028b8:	2b00      	cmp	r3, #0
 80028ba:	d003      	beq.n	80028c4 <_ZN5L647422L6474_StepClockHandlerEv+0x38>
 80028bc:	2b01      	cmp	r3, #1
 80028be:	f000 80e2 	beq.w	8002a86 <_ZN5L647422L6474_StepClockHandlerEv+0x1fa>
      }
      break;
    }
    default:
    {
      break;
 80028c2:	e180      	b.n	8002bc6 <_ZN5L647422L6474_StepClockHandlerEv+0x33a>
        uint32_t relPos = device_prm.relativePos;
 80028c4:	687b      	ldr	r3, [r7, #4]
 80028c6:	6b5b      	ldr	r3, [r3, #52]	@ 0x34
 80028c8:	617b      	str	r3, [r7, #20]
        uint32_t endAccPos = device_prm.endAccPos;
 80028ca:	687b      	ldr	r3, [r7, #4]
 80028cc:	6b1b      	ldr	r3, [r3, #48]	@ 0x30
 80028ce:	613b      	str	r3, [r7, #16]
        uint16_t speed = device_prm.speed;
 80028d0:	687b      	ldr	r3, [r7, #4]
 80028d2:	f8b3 3048 	ldrh.w	r3, [r3, #72]	@ 0x48
 80028d6:	85fb      	strh	r3, [r7, #46]	@ 0x2e
        uint32_t acc = ((uint32_t)device_prm.acceleration << 16);
 80028d8:	687b      	ldr	r3, [r7, #4]
 80028da:	f8b3 3040 	ldrh.w	r3, [r3, #64]	@ 0x40
 80028de:	b29b      	uxth	r3, r3
 80028e0:	041b      	lsls	r3, r3, #16
 80028e2:	60fb      	str	r3, [r7, #12]
        if ((device_prm.commandExecuted == SOFT_STOP_CMD)||
 80028e4:	687b      	ldr	r3, [r7, #4]
 80028e6:	f893 304a 	ldrb.w	r3, [r3, #74]	@ 0x4a
 80028ea:	b2db      	uxtb	r3, r3
 80028ec:	2b02      	cmp	r3, #2
 80028ee:	d00a      	beq.n	8002906 <_ZN5L647422L6474_StepClockHandlerEv+0x7a>
            ((device_prm.commandExecuted != RUN_CMD)&&
 80028f0:	687b      	ldr	r3, [r7, #4]
 80028f2:	f893 304a 	ldrb.w	r3, [r3, #74]	@ 0x4a
 80028f6:	b2db      	uxtb	r3, r3
        if ((device_prm.commandExecuted == SOFT_STOP_CMD)||
 80028f8:	2b00      	cmp	r3, #0
 80028fa:	d006      	beq.n	800290a <_ZN5L647422L6474_StepClockHandlerEv+0x7e>
             (relPos == device_prm.startDecPos)))
 80028fc:	687b      	ldr	r3, [r7, #4]
 80028fe:	6b9b      	ldr	r3, [r3, #56]	@ 0x38
            ((device_prm.commandExecuted != RUN_CMD)&&
 8002900:	697a      	ldr	r2, [r7, #20]
 8002902:	429a      	cmp	r2, r3
 8002904:	d101      	bne.n	800290a <_ZN5L647422L6474_StepClockHandlerEv+0x7e>
        if ((device_prm.commandExecuted == SOFT_STOP_CMD)||
 8002906:	2301      	movs	r3, #1
 8002908:	e000      	b.n	800290c <_ZN5L647422L6474_StepClockHandlerEv+0x80>
 800290a:	2300      	movs	r3, #0
 800290c:	2b00      	cmp	r3, #0
 800290e:	d007      	beq.n	8002920 <_ZN5L647422L6474_StepClockHandlerEv+0x94>
          device_prm.motionState = DECELERATING;
 8002910:	687b      	ldr	r3, [r7, #4]
 8002912:	2201      	movs	r2, #1
 8002914:	f883 204c 	strb.w	r2, [r3, #76]	@ 0x4c
          device_prm.accu = 0;
 8002918:	687b      	ldr	r3, [r7, #4]
 800291a:	2200      	movs	r2, #0
 800291c:	629a      	str	r2, [r3, #40]	@ 0x28
        break;
 800291e:	e154      	b.n	8002bca <_ZN5L647422L6474_StepClockHandlerEv+0x33e>
        else if ((speed >= device_prm.maxSpeed)||
 8002920:	687b      	ldr	r3, [r7, #4]
 8002922:	f8b3 3044 	ldrh.w	r3, [r3, #68]	@ 0x44
 8002926:	b29b      	uxth	r3, r3
 8002928:	8dfa      	ldrh	r2, [r7, #46]	@ 0x2e
 800292a:	429a      	cmp	r2, r3
 800292c:	d209      	bcs.n	8002942 <_ZN5L647422L6474_StepClockHandlerEv+0xb6>
                 ((device_prm.commandExecuted != RUN_CMD)&&
 800292e:	687b      	ldr	r3, [r7, #4]
 8002930:	f893 304a 	ldrb.w	r3, [r3, #74]	@ 0x4a
 8002934:	b2db      	uxtb	r3, r3
        else if ((speed >= device_prm.maxSpeed)||
 8002936:	2b00      	cmp	r3, #0
 8002938:	d005      	beq.n	8002946 <_ZN5L647422L6474_StepClockHandlerEv+0xba>
                 ((device_prm.commandExecuted != RUN_CMD)&&
 800293a:	697a      	ldr	r2, [r7, #20]
 800293c:	693b      	ldr	r3, [r7, #16]
 800293e:	429a      	cmp	r2, r3
 8002940:	d101      	bne.n	8002946 <_ZN5L647422L6474_StepClockHandlerEv+0xba>
        else if ((speed >= device_prm.maxSpeed)||
 8002942:	2301      	movs	r3, #1
 8002944:	e000      	b.n	8002948 <_ZN5L647422L6474_StepClockHandlerEv+0xbc>
 8002946:	2300      	movs	r3, #0
 8002948:	2b00      	cmp	r3, #0
 800294a:	d004      	beq.n	8002956 <_ZN5L647422L6474_StepClockHandlerEv+0xca>
          device_prm.motionState = STEADY;
 800294c:	687b      	ldr	r3, [r7, #4]
 800294e:	2202      	movs	r2, #2
 8002950:	f883 204c 	strb.w	r2, [r3, #76]	@ 0x4c
        break;
 8002954:	e139      	b.n	8002bca <_ZN5L647422L6474_StepClockHandlerEv+0x33e>
          bool speedUpdated = FALSE;
 8002956:	2300      	movs	r3, #0
 8002958:	f887 302d 	strb.w	r3, [r7, #45]	@ 0x2d
          if (speed == 0) speed =1;
 800295c:	8dfb      	ldrh	r3, [r7, #46]	@ 0x2e
 800295e:	2b00      	cmp	r3, #0
 8002960:	d101      	bne.n	8002966 <_ZN5L647422L6474_StepClockHandlerEv+0xda>
 8002962:	2301      	movs	r3, #1
 8002964:	85fb      	strh	r3, [r7, #46]	@ 0x2e
          device_prm.accu += acc / speed;
 8002966:	687b      	ldr	r3, [r7, #4]
 8002968:	6a9a      	ldr	r2, [r3, #40]	@ 0x28
 800296a:	8dfb      	ldrh	r3, [r7, #46]	@ 0x2e
 800296c:	68f9      	ldr	r1, [r7, #12]
 800296e:	fbb1 f3f3 	udiv	r3, r1, r3
 8002972:	441a      	add	r2, r3
 8002974:	687b      	ldr	r3, [r7, #4]
 8002976:	629a      	str	r2, [r3, #40]	@ 0x28
          while (device_prm.accu >= (0X10000L))
 8002978:	e00b      	b.n	8002992 <_ZN5L647422L6474_StepClockHandlerEv+0x106>
            device_prm.accu -= (0X10000L);
 800297a:	687b      	ldr	r3, [r7, #4]
 800297c:	6a9b      	ldr	r3, [r3, #40]	@ 0x28
 800297e:	f5a3 3280 	sub.w	r2, r3, #65536	@ 0x10000
 8002982:	687b      	ldr	r3, [r7, #4]
 8002984:	629a      	str	r2, [r3, #40]	@ 0x28
            speed +=1;
 8002986:	8dfb      	ldrh	r3, [r7, #46]	@ 0x2e
 8002988:	3301      	adds	r3, #1
 800298a:	85fb      	strh	r3, [r7, #46]	@ 0x2e
            speedUpdated = TRUE;
 800298c:	2301      	movs	r3, #1
 800298e:	f887 302d 	strb.w	r3, [r7, #45]	@ 0x2d
          while (device_prm.accu >= (0X10000L))
 8002992:	687b      	ldr	r3, [r7, #4]
 8002994:	6a9b      	ldr	r3, [r3, #40]	@ 0x28
 8002996:	f64f 72ff 	movw	r2, #65535	@ 0xffff
 800299a:	4293      	cmp	r3, r2
 800299c:	bf8c      	ite	hi
 800299e:	2301      	movhi	r3, #1
 80029a0:	2300      	movls	r3, #0
 80029a2:	b2db      	uxtb	r3, r3
 80029a4:	2b00      	cmp	r3, #0
 80029a6:	d1e8      	bne.n	800297a <_ZN5L647422L6474_StepClockHandlerEv+0xee>
          if (speedUpdated)
 80029a8:	f897 302d 	ldrb.w	r3, [r7, #45]	@ 0x2d
 80029ac:	2b00      	cmp	r3, #0
 80029ae:	f000 810c 	beq.w	8002bca <_ZN5L647422L6474_StepClockHandlerEv+0x33e>
            if (speed > device_prm.maxSpeed)
 80029b2:	687b      	ldr	r3, [r7, #4]
 80029b4:	f8b3 3044 	ldrh.w	r3, [r3, #68]	@ 0x44
 80029b8:	b29b      	uxth	r3, r3
 80029ba:	8dfa      	ldrh	r2, [r7, #46]	@ 0x2e
 80029bc:	429a      	cmp	r2, r3
 80029be:	bf8c      	ite	hi
 80029c0:	2301      	movhi	r3, #1
 80029c2:	2300      	movls	r3, #0
 80029c4:	b2db      	uxtb	r3, r3
 80029c6:	2b00      	cmp	r3, #0
 80029c8:	d003      	beq.n	80029d2 <_ZN5L647422L6474_StepClockHandlerEv+0x146>
              speed = device_prm.maxSpeed;
 80029ca:	687b      	ldr	r3, [r7, #4]
 80029cc:	f8b3 3044 	ldrh.w	r3, [r3, #68]	@ 0x44
 80029d0:	85fb      	strh	r3, [r7, #46]	@ 0x2e
            device_prm.speed = speed;
 80029d2:	687b      	ldr	r3, [r7, #4]
 80029d4:	8dfa      	ldrh	r2, [r7, #46]	@ 0x2e
 80029d6:	f8a3 2048 	strh.w	r2, [r3, #72]	@ 0x48
            L6474_ApplySpeed(device_prm.speed);
 80029da:	687b      	ldr	r3, [r7, #4]
 80029dc:	f8b3 3048 	ldrh.w	r3, [r3, #72]	@ 0x48
 80029e0:	b29b      	uxth	r3, r3
 80029e2:	4619      	mov	r1, r3
 80029e4:	6878      	ldr	r0, [r7, #4]
 80029e6:	f7ff fc46 	bl	8002276 <_ZN5L647416L6474_ApplySpeedEt>
        break;
 80029ea:	e0ee      	b.n	8002bca <_ZN5L647422L6474_StepClockHandlerEv+0x33e>
      uint16_t maxSpeed = device_prm.maxSpeed;
 80029ec:	687b      	ldr	r3, [r7, #4]
 80029ee:	f8b3 3044 	ldrh.w	r3, [r3, #68]	@ 0x44
 80029f2:	84fb      	strh	r3, [r7, #38]	@ 0x26
      uint32_t relativePos = device_prm.relativePos;
 80029f4:	687b      	ldr	r3, [r7, #4]
 80029f6:	6b5b      	ldr	r3, [r3, #52]	@ 0x34
 80029f8:	623b      	str	r3, [r7, #32]
      if  ((device_prm.commandExecuted == SOFT_STOP_CMD)||
 80029fa:	687b      	ldr	r3, [r7, #4]
 80029fc:	f893 304a 	ldrb.w	r3, [r3, #74]	@ 0x4a
 8002a00:	b2db      	uxtb	r3, r3
            (relativePos >= (device_prm.startDecPos))) ||
 8002a02:	2b02      	cmp	r3, #2
 8002a04:	d017      	beq.n	8002a36 <_ZN5L647422L6474_StepClockHandlerEv+0x1aa>
           ((device_prm.commandExecuted != RUN_CMD)&&
 8002a06:	687b      	ldr	r3, [r7, #4]
 8002a08:	f893 304a 	ldrb.w	r3, [r3, #74]	@ 0x4a
 8002a0c:	b2db      	uxtb	r3, r3
      if  ((device_prm.commandExecuted == SOFT_STOP_CMD)||
 8002a0e:	2b00      	cmp	r3, #0
 8002a10:	d004      	beq.n	8002a1c <_ZN5L647422L6474_StepClockHandlerEv+0x190>
            (relativePos >= (device_prm.startDecPos))) ||
 8002a12:	687b      	ldr	r3, [r7, #4]
 8002a14:	6b9b      	ldr	r3, [r3, #56]	@ 0x38
           ((device_prm.commandExecuted != RUN_CMD)&&
 8002a16:	6a3a      	ldr	r2, [r7, #32]
 8002a18:	429a      	cmp	r2, r3
 8002a1a:	d20c      	bcs.n	8002a36 <_ZN5L647422L6474_StepClockHandlerEv+0x1aa>
           ((device_prm.commandExecuted == RUN_CMD)&&
 8002a1c:	687b      	ldr	r3, [r7, #4]
 8002a1e:	f893 304a 	ldrb.w	r3, [r3, #74]	@ 0x4a
 8002a22:	b2db      	uxtb	r3, r3
            (relativePos >= (device_prm.startDecPos))) ||
 8002a24:	2b00      	cmp	r3, #0
 8002a26:	d108      	bne.n	8002a3a <_ZN5L647422L6474_StepClockHandlerEv+0x1ae>
            (device_prm.speed > maxSpeed)))
 8002a28:	687b      	ldr	r3, [r7, #4]
 8002a2a:	f8b3 3048 	ldrh.w	r3, [r3, #72]	@ 0x48
 8002a2e:	b29b      	uxth	r3, r3
           ((device_prm.commandExecuted == RUN_CMD)&&
 8002a30:	8cfa      	ldrh	r2, [r7, #38]	@ 0x26
 8002a32:	429a      	cmp	r2, r3
 8002a34:	d201      	bcs.n	8002a3a <_ZN5L647422L6474_StepClockHandlerEv+0x1ae>
            (relativePos >= (device_prm.startDecPos))) ||
 8002a36:	2301      	movs	r3, #1
 8002a38:	e000      	b.n	8002a3c <_ZN5L647422L6474_StepClockHandlerEv+0x1b0>
 8002a3a:	2300      	movs	r3, #0
      if  ((device_prm.commandExecuted == SOFT_STOP_CMD)||
 8002a3c:	2b00      	cmp	r3, #0
 8002a3e:	d007      	beq.n	8002a50 <_ZN5L647422L6474_StepClockHandlerEv+0x1c4>
        device_prm.motionState = DECELERATING;
 8002a40:	687b      	ldr	r3, [r7, #4]
 8002a42:	2201      	movs	r2, #1
 8002a44:	f883 204c 	strb.w	r2, [r3, #76]	@ 0x4c
        device_prm.accu = 0;
 8002a48:	687b      	ldr	r3, [r7, #4]
 8002a4a:	2200      	movs	r2, #0
 8002a4c:	629a      	str	r2, [r3, #40]	@ 0x28
      break;
 8002a4e:	e0be      	b.n	8002bce <_ZN5L647422L6474_StepClockHandlerEv+0x342>
      else if ((device_prm.commandExecuted == RUN_CMD)&&
 8002a50:	687b      	ldr	r3, [r7, #4]
 8002a52:	f893 304a 	ldrb.w	r3, [r3, #74]	@ 0x4a
 8002a56:	b2db      	uxtb	r3, r3
 8002a58:	2b00      	cmp	r3, #0
 8002a5a:	d108      	bne.n	8002a6e <_ZN5L647422L6474_StepClockHandlerEv+0x1e2>
               (device_prm.speed < maxSpeed))
 8002a5c:	687b      	ldr	r3, [r7, #4]
 8002a5e:	f8b3 3048 	ldrh.w	r3, [r3, #72]	@ 0x48
 8002a62:	b29b      	uxth	r3, r3
      else if ((device_prm.commandExecuted == RUN_CMD)&&
 8002a64:	8cfa      	ldrh	r2, [r7, #38]	@ 0x26
 8002a66:	429a      	cmp	r2, r3
 8002a68:	d901      	bls.n	8002a6e <_ZN5L647422L6474_StepClockHandlerEv+0x1e2>
 8002a6a:	2301      	movs	r3, #1
 8002a6c:	e000      	b.n	8002a70 <_ZN5L647422L6474_StepClockHandlerEv+0x1e4>
 8002a6e:	2300      	movs	r3, #0
 8002a70:	2b00      	cmp	r3, #0
 8002a72:	f000 80ac 	beq.w	8002bce <_ZN5L647422L6474_StepClockHandlerEv+0x342>
        device_prm.motionState = ACCELERATING;
 8002a76:	687b      	ldr	r3, [r7, #4]
 8002a78:	2200      	movs	r2, #0
 8002a7a:	f883 204c 	strb.w	r2, [r3, #76]	@ 0x4c
        device_prm.accu = 0;
 8002a7e:	687b      	ldr	r3, [r7, #4]
 8002a80:	2200      	movs	r2, #0
 8002a82:	629a      	str	r2, [r3, #40]	@ 0x28
      break;
 8002a84:	e0a3      	b.n	8002bce <_ZN5L647422L6474_StepClockHandlerEv+0x342>
      uint32_t relativePos = device_prm.relativePos;
 8002a86:	687b      	ldr	r3, [r7, #4]
 8002a88:	6b5b      	ldr	r3, [r3, #52]	@ 0x34
 8002a8a:	61fb      	str	r3, [r7, #28]
      uint16_t speed = device_prm.speed;
 8002a8c:	687b      	ldr	r3, [r7, #4]
 8002a8e:	f8b3 3048 	ldrh.w	r3, [r3, #72]	@ 0x48
 8002a92:	857b      	strh	r3, [r7, #42]	@ 0x2a
      uint32_t deceleration = ((uint32_t)device_prm.deceleration << 16);
 8002a94:	687b      	ldr	r3, [r7, #4]
 8002a96:	f8b3 3042 	ldrh.w	r3, [r3, #66]	@ 0x42
 8002a9a:	b29b      	uxth	r3, r3
 8002a9c:	041b      	lsls	r3, r3, #16
 8002a9e:	61bb      	str	r3, [r7, #24]
      if (((device_prm.commandExecuted == SOFT_STOP_CMD)&&(speed <=  device_prm.minSpeed))||
 8002aa0:	687b      	ldr	r3, [r7, #4]
 8002aa2:	f893 304a 	ldrb.w	r3, [r3, #74]	@ 0x4a
 8002aa6:	b2db      	uxtb	r3, r3
 8002aa8:	2b02      	cmp	r3, #2
 8002aaa:	d106      	bne.n	8002aba <_ZN5L647422L6474_StepClockHandlerEv+0x22e>
 8002aac:	687b      	ldr	r3, [r7, #4]
 8002aae:	f8b3 3046 	ldrh.w	r3, [r3, #70]	@ 0x46
 8002ab2:	b29b      	uxth	r3, r3
 8002ab4:	8d7a      	ldrh	r2, [r7, #42]	@ 0x2a
 8002ab6:	429a      	cmp	r2, r3
 8002ab8:	d90a      	bls.n	8002ad0 <_ZN5L647422L6474_StepClockHandlerEv+0x244>
          ((device_prm.commandExecuted != RUN_CMD)&&
 8002aba:	687b      	ldr	r3, [r7, #4]
 8002abc:	f893 304a 	ldrb.w	r3, [r3, #74]	@ 0x4a
 8002ac0:	b2db      	uxtb	r3, r3
      if (((device_prm.commandExecuted == SOFT_STOP_CMD)&&(speed <=  device_prm.minSpeed))||
 8002ac2:	2b00      	cmp	r3, #0
 8002ac4:	d006      	beq.n	8002ad4 <_ZN5L647422L6474_StepClockHandlerEv+0x248>
           (relativePos >= device_prm.stepsToTake)))
 8002ac6:	687b      	ldr	r3, [r7, #4]
 8002ac8:	6bdb      	ldr	r3, [r3, #60]	@ 0x3c
          ((device_prm.commandExecuted != RUN_CMD)&&
 8002aca:	69fa      	ldr	r2, [r7, #28]
 8002acc:	429a      	cmp	r2, r3
 8002ace:	d301      	bcc.n	8002ad4 <_ZN5L647422L6474_StepClockHandlerEv+0x248>
      if (((device_prm.commandExecuted == SOFT_STOP_CMD)&&(speed <=  device_prm.minSpeed))||
 8002ad0:	2301      	movs	r3, #1
 8002ad2:	e000      	b.n	8002ad6 <_ZN5L647422L6474_StepClockHandlerEv+0x24a>
 8002ad4:	2300      	movs	r3, #0
 8002ad6:	2b00      	cmp	r3, #0
 8002ad8:	d003      	beq.n	8002ae2 <_ZN5L647422L6474_StepClockHandlerEv+0x256>
        L6474_HardStop();
 8002ada:	6878      	ldr	r0, [r7, #4]
 8002adc:	f7fe ff51 	bl	8001982 <_ZN5L647414L6474_HardStopEv>
      break;
 8002ae0:	e077      	b.n	8002bd2 <_ZN5L647422L6474_StepClockHandlerEv+0x346>
      else if ((device_prm.commandExecuted == RUN_CMD)&&
 8002ae2:	687b      	ldr	r3, [r7, #4]
 8002ae4:	f893 304a 	ldrb.w	r3, [r3, #74]	@ 0x4a
 8002ae8:	b2db      	uxtb	r3, r3
 8002aea:	2b00      	cmp	r3, #0
 8002aec:	d10a      	bne.n	8002b04 <_ZN5L647422L6474_StepClockHandlerEv+0x278>
               (speed <= device_prm.maxSpeed))
 8002aee:	687b      	ldr	r3, [r7, #4]
 8002af0:	f8b3 3044 	ldrh.w	r3, [r3, #68]	@ 0x44
 8002af4:	b29b      	uxth	r3, r3
      else if ((device_prm.commandExecuted == RUN_CMD)&&
 8002af6:	8d7a      	ldrh	r2, [r7, #42]	@ 0x2a
 8002af8:	429a      	cmp	r2, r3
 8002afa:	d803      	bhi.n	8002b04 <_ZN5L647422L6474_StepClockHandlerEv+0x278>
 8002afc:	2301      	movs	r3, #1
 8002afe:	e002      	b.n	8002b06 <_ZN5L647422L6474_StepClockHandlerEv+0x27a>
 8002b00:	20000226 	.word	0x20000226
 8002b04:	2300      	movs	r3, #0
 8002b06:	2b00      	cmp	r3, #0
 8002b08:	d004      	beq.n	8002b14 <_ZN5L647422L6474_StepClockHandlerEv+0x288>
        device_prm.motionState = STEADY;
 8002b0a:	687b      	ldr	r3, [r7, #4]
 8002b0c:	2202      	movs	r2, #2
 8002b0e:	f883 204c 	strb.w	r2, [r3, #76]	@ 0x4c
      break;
 8002b12:	e05e      	b.n	8002bd2 <_ZN5L647422L6474_StepClockHandlerEv+0x346>
        if (speed > device_prm.minSpeed)
 8002b14:	687b      	ldr	r3, [r7, #4]
 8002b16:	f8b3 3046 	ldrh.w	r3, [r3, #70]	@ 0x46
 8002b1a:	b29b      	uxth	r3, r3
 8002b1c:	8d7a      	ldrh	r2, [r7, #42]	@ 0x2a
 8002b1e:	429a      	cmp	r2, r3
 8002b20:	bf8c      	ite	hi
 8002b22:	2301      	movhi	r3, #1
 8002b24:	2300      	movls	r3, #0
 8002b26:	b2db      	uxtb	r3, r3
 8002b28:	2b00      	cmp	r3, #0
 8002b2a:	d052      	beq.n	8002bd2 <_ZN5L647422L6474_StepClockHandlerEv+0x346>
          bool speedUpdated = FALSE;
 8002b2c:	2300      	movs	r3, #0
 8002b2e:	f887 3029 	strb.w	r3, [r7, #41]	@ 0x29
          if (speed == 0) speed =1;
 8002b32:	8d7b      	ldrh	r3, [r7, #42]	@ 0x2a
 8002b34:	2b00      	cmp	r3, #0
 8002b36:	d101      	bne.n	8002b3c <_ZN5L647422L6474_StepClockHandlerEv+0x2b0>
 8002b38:	2301      	movs	r3, #1
 8002b3a:	857b      	strh	r3, [r7, #42]	@ 0x2a
          device_prm.accu += deceleration / speed;
 8002b3c:	687b      	ldr	r3, [r7, #4]
 8002b3e:	6a9a      	ldr	r2, [r3, #40]	@ 0x28
 8002b40:	8d7b      	ldrh	r3, [r7, #42]	@ 0x2a
 8002b42:	69b9      	ldr	r1, [r7, #24]
 8002b44:	fbb1 f3f3 	udiv	r3, r1, r3
 8002b48:	441a      	add	r2, r3
 8002b4a:	687b      	ldr	r3, [r7, #4]
 8002b4c:	629a      	str	r2, [r3, #40]	@ 0x28
          while (device_prm.accu >= (0X10000L))
 8002b4e:	e00e      	b.n	8002b6e <_ZN5L647422L6474_StepClockHandlerEv+0x2e2>
            device_prm.accu -= (0X10000L);
 8002b50:	687b      	ldr	r3, [r7, #4]
 8002b52:	6a9b      	ldr	r3, [r3, #40]	@ 0x28
 8002b54:	f5a3 3280 	sub.w	r2, r3, #65536	@ 0x10000
 8002b58:	687b      	ldr	r3, [r7, #4]
 8002b5a:	629a      	str	r2, [r3, #40]	@ 0x28
            if (speed > 1)
 8002b5c:	8d7b      	ldrh	r3, [r7, #42]	@ 0x2a
 8002b5e:	2b01      	cmp	r3, #1
 8002b60:	d902      	bls.n	8002b68 <_ZN5L647422L6474_StepClockHandlerEv+0x2dc>
              speed -=1;
 8002b62:	8d7b      	ldrh	r3, [r7, #42]	@ 0x2a
 8002b64:	3b01      	subs	r3, #1
 8002b66:	857b      	strh	r3, [r7, #42]	@ 0x2a
            speedUpdated = TRUE;
 8002b68:	2301      	movs	r3, #1
 8002b6a:	f887 3029 	strb.w	r3, [r7, #41]	@ 0x29
          while (device_prm.accu >= (0X10000L))
 8002b6e:	687b      	ldr	r3, [r7, #4]
 8002b70:	6a9b      	ldr	r3, [r3, #40]	@ 0x28
 8002b72:	f64f 72ff 	movw	r2, #65535	@ 0xffff
 8002b76:	4293      	cmp	r3, r2
 8002b78:	bf8c      	ite	hi
 8002b7a:	2301      	movhi	r3, #1
 8002b7c:	2300      	movls	r3, #0
 8002b7e:	b2db      	uxtb	r3, r3
 8002b80:	2b00      	cmp	r3, #0
 8002b82:	d1e5      	bne.n	8002b50 <_ZN5L647422L6474_StepClockHandlerEv+0x2c4>
          if (speedUpdated)
 8002b84:	f897 3029 	ldrb.w	r3, [r7, #41]	@ 0x29
 8002b88:	2b00      	cmp	r3, #0
 8002b8a:	d022      	beq.n	8002bd2 <_ZN5L647422L6474_StepClockHandlerEv+0x346>
            if (speed < device_prm.minSpeed)
 8002b8c:	687b      	ldr	r3, [r7, #4]
 8002b8e:	f8b3 3046 	ldrh.w	r3, [r3, #70]	@ 0x46
 8002b92:	b29b      	uxth	r3, r3
 8002b94:	8d7a      	ldrh	r2, [r7, #42]	@ 0x2a
 8002b96:	429a      	cmp	r2, r3
 8002b98:	bf34      	ite	cc
 8002b9a:	2301      	movcc	r3, #1
 8002b9c:	2300      	movcs	r3, #0
 8002b9e:	b2db      	uxtb	r3, r3
 8002ba0:	2b00      	cmp	r3, #0
 8002ba2:	d003      	beq.n	8002bac <_ZN5L647422L6474_StepClockHandlerEv+0x320>
              speed = device_prm.minSpeed;
 8002ba4:	687b      	ldr	r3, [r7, #4]
 8002ba6:	f8b3 3046 	ldrh.w	r3, [r3, #70]	@ 0x46
 8002baa:	857b      	strh	r3, [r7, #42]	@ 0x2a
            device_prm.speed = speed;
 8002bac:	687b      	ldr	r3, [r7, #4]
 8002bae:	8d7a      	ldrh	r2, [r7, #42]	@ 0x2a
 8002bb0:	f8a3 2048 	strh.w	r2, [r3, #72]	@ 0x48
            L6474_ApplySpeed(device_prm.speed);
 8002bb4:	687b      	ldr	r3, [r7, #4]
 8002bb6:	f8b3 3048 	ldrh.w	r3, [r3, #72]	@ 0x48
 8002bba:	b29b      	uxth	r3, r3
 8002bbc:	4619      	mov	r1, r3
 8002bbe:	6878      	ldr	r0, [r7, #4]
 8002bc0:	f7ff fb59 	bl	8002276 <_ZN5L647416L6474_ApplySpeedEt>
      break;
 8002bc4:	e005      	b.n	8002bd2 <_ZN5L647422L6474_StepClockHandlerEv+0x346>
      break;
 8002bc6:	bf00      	nop
 8002bc8:	e004      	b.n	8002bd4 <_ZN5L647422L6474_StepClockHandlerEv+0x348>
        break;
 8002bca:	bf00      	nop
 8002bcc:	e002      	b.n	8002bd4 <_ZN5L647422L6474_StepClockHandlerEv+0x348>
      break;
 8002bce:	bf00      	nop
 8002bd0:	e000      	b.n	8002bd4 <_ZN5L647422L6474_StepClockHandlerEv+0x348>
      break;
 8002bd2:	bf00      	nop
    }
  }
  /* Set isr flag */
  isr_flag = FALSE;
 8002bd4:	4b03      	ldr	r3, [pc, #12]	@ (8002be4 <_ZN5L647422L6474_StepClockHandlerEv+0x358>)
 8002bd6:	2200      	movs	r2, #0
 8002bd8:	701a      	strb	r2, [r3, #0]
}
 8002bda:	bf00      	nop
 8002bdc:	3730      	adds	r7, #48	@ 0x30
 8002bde:	46bd      	mov	sp, r7
 8002be0:	bd80      	pop	{r7, pc}
 8002be2:	bf00      	nop
 8002be4:	20000226 	.word	0x20000226

08002be8 <_ZN5L647425L6474_Tval_Current_to_ParEf>:

float L6474::L6474_Tval_Current_to_Par(float current_mA)
{
 8002be8:	b580      	push	{r7, lr}
 8002bea:	b082      	sub	sp, #8
 8002bec:	af00      	add	r7, sp, #0
 8002bee:	6078      	str	r0, [r7, #4]
 8002bf0:	6039      	str	r1, [r7, #0]
  return ((float)(((current_mA - 31.25f) / 31.25f) + 0.5f));
 8002bf2:	490a      	ldr	r1, [pc, #40]	@ (8002c1c <_ZN5L647425L6474_Tval_Current_to_ParEf+0x34>)
 8002bf4:	6838      	ldr	r0, [r7, #0]
 8002bf6:	f7fd ff9b 	bl	8000b30 <__aeabi_fsub>
 8002bfa:	4603      	mov	r3, r0
 8002bfc:	4907      	ldr	r1, [pc, #28]	@ (8002c1c <_ZN5L647425L6474_Tval_Current_to_ParEf+0x34>)
 8002bfe:	4618      	mov	r0, r3
 8002c00:	f7fe f954 	bl	8000eac <__aeabi_fdiv>
 8002c04:	4603      	mov	r3, r0
 8002c06:	f04f 517c 	mov.w	r1, #1056964608	@ 0x3f000000
 8002c0a:	4618      	mov	r0, r3
 8002c0c:	f7fd ff92 	bl	8000b34 <__addsf3>
 8002c10:	4603      	mov	r3, r0
}
 8002c12:	4618      	mov	r0, r3
 8002c14:	3708      	adds	r7, #8
 8002c16:	46bd      	mov	sp, r7
 8002c18:	bd80      	pop	{r7, pc}
 8002c1a:	bf00      	nop
 8002c1c:	41fa0000 	.word	0x41fa0000

08002c20 <_ZN5L647425L6474_Par_to_Tval_CurrentEf>:

float L6474::L6474_Par_to_Tval_Current(float Tval)
{
 8002c20:	b580      	push	{r7, lr}
 8002c22:	b082      	sub	sp, #8
 8002c24:	af00      	add	r7, sp, #0
 8002c26:	6078      	str	r0, [r7, #4]
 8002c28:	6039      	str	r1, [r7, #0]
  return ((float)((Tval - 0.5f) * 31.25f + 31.25f));
 8002c2a:	f04f 517c 	mov.w	r1, #1056964608	@ 0x3f000000
 8002c2e:	6838      	ldr	r0, [r7, #0]
 8002c30:	f7fd ff7e 	bl	8000b30 <__aeabi_fsub>
 8002c34:	4603      	mov	r3, r0
 8002c36:	4907      	ldr	r1, [pc, #28]	@ (8002c54 <_ZN5L647425L6474_Par_to_Tval_CurrentEf+0x34>)
 8002c38:	4618      	mov	r0, r3
 8002c3a:	f7fe f883 	bl	8000d44 <__aeabi_fmul>
 8002c3e:	4603      	mov	r3, r0
 8002c40:	4904      	ldr	r1, [pc, #16]	@ (8002c54 <_ZN5L647425L6474_Par_to_Tval_CurrentEf+0x34>)
 8002c42:	4618      	mov	r0, r3
 8002c44:	f7fd ff76 	bl	8000b34 <__addsf3>
 8002c48:	4603      	mov	r3, r0
}
 8002c4a:	4618      	mov	r0, r3
 8002c4c:	3708      	adds	r7, #8
 8002c4e:	46bd      	mov	sp, r7
 8002c50:	bd80      	pop	{r7, pc}
 8002c52:	bf00      	nop
 8002c54:	41fa0000 	.word	0x41fa0000

08002c58 <_ZN5L647422L6474_Tmin_Time_to_ParEf>:

float L6474::L6474_Tmin_Time_to_Par(float ton_min_us)
{
 8002c58:	b580      	push	{r7, lr}
 8002c5a:	b082      	sub	sp, #8
 8002c5c:	af00      	add	r7, sp, #0
 8002c5e:	6078      	str	r0, [r7, #4]
 8002c60:	6039      	str	r1, [r7, #0]
  return ((float)(((ton_min_us - 0.5f) * 2.0f) + 0.5f));
 8002c62:	f04f 517c 	mov.w	r1, #1056964608	@ 0x3f000000
 8002c66:	6838      	ldr	r0, [r7, #0]
 8002c68:	f7fd ff62 	bl	8000b30 <__aeabi_fsub>
 8002c6c:	4603      	mov	r3, r0
 8002c6e:	4619      	mov	r1, r3
 8002c70:	4618      	mov	r0, r3
 8002c72:	f7fd ff5f 	bl	8000b34 <__addsf3>
 8002c76:	4603      	mov	r3, r0
 8002c78:	f04f 517c 	mov.w	r1, #1056964608	@ 0x3f000000
 8002c7c:	4618      	mov	r0, r3
 8002c7e:	f7fd ff59 	bl	8000b34 <__addsf3>
 8002c82:	4603      	mov	r3, r0
}
 8002c84:	4618      	mov	r0, r3
 8002c86:	3708      	adds	r7, #8
 8002c88:	46bd      	mov	sp, r7
 8002c8a:	bd80      	pop	{r7, pc}

08002c8c <_ZN5L647422L6474_Par_to_Tmin_TimeEf>:

float L6474::L6474_Par_to_Tmin_Time(float Tmin)
{
 8002c8c:	b580      	push	{r7, lr}
 8002c8e:	b082      	sub	sp, #8
 8002c90:	af00      	add	r7, sp, #0
 8002c92:	6078      	str	r0, [r7, #4]
 8002c94:	6039      	str	r1, [r7, #0]
  return ((float)(((Tmin - 0.5f) / 2.0f) + 0.5f));
 8002c96:	f04f 517c 	mov.w	r1, #1056964608	@ 0x3f000000
 8002c9a:	6838      	ldr	r0, [r7, #0]
 8002c9c:	f7fd ff48 	bl	8000b30 <__aeabi_fsub>
 8002ca0:	4603      	mov	r3, r0
 8002ca2:	f04f 4180 	mov.w	r1, #1073741824	@ 0x40000000
 8002ca6:	4618      	mov	r0, r3
 8002ca8:	f7fe f900 	bl	8000eac <__aeabi_fdiv>
 8002cac:	4603      	mov	r3, r0
 8002cae:	f04f 517c 	mov.w	r1, #1056964608	@ 0x3f000000
 8002cb2:	4618      	mov	r0, r3
 8002cb4:	f7fd ff3e 	bl	8000b34 <__addsf3>
 8002cb8:	4603      	mov	r3, r0
}
 8002cba:	4618      	mov	r0, r3
 8002cbc:	3708      	adds	r7, #8
 8002cbe:	46bd      	mov	sp, r7
 8002cc0:	bd80      	pop	{r7, pc}
	...

08002cc4 <_ZN5L64749ReadWriteEPhS0_t>:
	}
}


status_t L6474::ReadWrite(uint8_t* pBufferToRead, uint8_t* pBufferToWrite, uint16_t NumBytes)
{
 8002cc4:	b580      	push	{r7, lr}
 8002cc6:	b088      	sub	sp, #32
 8002cc8:	af02      	add	r7, sp, #8
 8002cca:	60f8      	str	r0, [r7, #12]
 8002ccc:	60b9      	str	r1, [r7, #8]
 8002cce:	607a      	str	r2, [r7, #4]
 8002cd0:	807b      	strh	r3, [r7, #2]

	HAL_GPIO_WritePin(GPIOB, GPIO_PIN_6, GPIO_PIN_RESET);
 8002cd2:	2200      	movs	r2, #0
 8002cd4:	2140      	movs	r1, #64	@ 0x40
 8002cd6:	480f      	ldr	r0, [pc, #60]	@ (8002d14 <_ZN5L64749ReadWriteEPhS0_t+0x50>)
 8002cd8:	f001 fb8e 	bl	80043f8 <HAL_GPIO_WritePin>
	HAL_StatusTypeDef result = HAL_OK;
 8002cdc:	2300      	movs	r3, #0
 8002cde:	75fb      	strb	r3, [r7, #23]

	//if(result == HAL_OK)
	//{
	//	result = HAL_SPI_Receive_DMA(&hspi1, pBufferToWrite, NumBytes);
	//}
	result = HAL_SPI_TransmitReceive(&hspi1, pBufferToWrite, pBufferToRead, NumBytes,100);
 8002ce0:	887b      	ldrh	r3, [r7, #2]
 8002ce2:	2264      	movs	r2, #100	@ 0x64
 8002ce4:	9200      	str	r2, [sp, #0]
 8002ce6:	68ba      	ldr	r2, [r7, #8]
 8002ce8:	6879      	ldr	r1, [r7, #4]
 8002cea:	480b      	ldr	r0, [pc, #44]	@ (8002d18 <_ZN5L64749ReadWriteEPhS0_t+0x54>)
 8002cec:	f002 f820 	bl	8004d30 <HAL_SPI_TransmitReceive>
 8002cf0:	4603      	mov	r3, r0
 8002cf2:	75fb      	strb	r3, [r7, #23]
	HAL_GPIO_WritePin(GPIOB, GPIO_PIN_6, GPIO_PIN_SET);
 8002cf4:	2201      	movs	r2, #1
 8002cf6:	2140      	movs	r1, #64	@ 0x40
 8002cf8:	4806      	ldr	r0, [pc, #24]	@ (8002d14 <_ZN5L64749ReadWriteEPhS0_t+0x50>)
 8002cfa:	f001 fb7d 	bl	80043f8 <HAL_GPIO_WritePin>

	//while(wTransferState == TRANSFER_WAIT) {}



	if(result != HAL_OK)
 8002cfe:	7dfb      	ldrb	r3, [r7, #23]
 8002d00:	2b00      	cmp	r3, #0
 8002d02:	d001      	beq.n	8002d08 <_ZN5L64749ReadWriteEPhS0_t+0x44>
	{
		return COMPONENT_ERROR;
 8002d04:	2301      	movs	r3, #1
 8002d06:	e000      	b.n	8002d0a <_ZN5L64749ReadWriteEPhS0_t+0x46>
	}
	else
	{
		return COMPONENT_OK;
 8002d08:	2300      	movs	r3, #0
	}

}
 8002d0a:	4618      	mov	r0, r3
 8002d0c:	3718      	adds	r7, #24
 8002d0e:	46bd      	mov	sp, r7
 8002d10:	bd80      	pop	{r7, pc}
 8002d12:	bf00      	nop
 8002d14:	40010c00 	.word	0x40010c00
 8002d18:	2000024c 	.word	0x2000024c

08002d1c <_ZZN5L647416L6474_PwmSetFreqEtENKUlPvE_clES0_>:
    //ticker.attach(Callback<void()>(this, &L6474::L6474_StepClockHandler), period);



    irqHandlers.tim3.userptr=this;
	irqHandlers.tim3.func = [](void *userData)
 8002d1c:	b580      	push	{r7, lr}
 8002d1e:	b082      	sub	sp, #8
 8002d20:	af00      	add	r7, sp, #0
 8002d22:	6078      	str	r0, [r7, #4]
 8002d24:	6039      	str	r1, [r7, #0]
	{
		((L6474*)userData)->L6474_StepClockHandler();
 8002d26:	6838      	ldr	r0, [r7, #0]
 8002d28:	f7ff fdb0 	bl	800288c <_ZN5L647422L6474_StepClockHandlerEv>
	};
 8002d2c:	bf00      	nop
 8002d2e:	3708      	adds	r7, #8
 8002d30:	46bd      	mov	sp, r7
 8002d32:	bd80      	pop	{r7, pc}

08002d34 <_ZZN5L647416L6474_PwmSetFreqEtENUlPvE_4_FUNES0_>:
	irqHandlers.tim3.func = [](void *userData)
 8002d34:	b580      	push	{r7, lr}
 8002d36:	b082      	sub	sp, #8
 8002d38:	af00      	add	r7, sp, #0
 8002d3a:	6078      	str	r0, [r7, #4]
	};
 8002d3c:	6879      	ldr	r1, [r7, #4]
 8002d3e:	2000      	movs	r0, #0
 8002d40:	f7ff ffec 	bl	8002d1c <_ZZN5L647416L6474_PwmSetFreqEtENKUlPvE_clES0_>
 8002d44:	3708      	adds	r7, #8
 8002d46:	46bd      	mov	sp, r7
 8002d48:	bd80      	pop	{r7, pc}
	...

08002d4c <_ZZN5L647416L6474_PwmSetFreqEtENKUlPvE_cvPFvS0_EEv>:
	irqHandlers.tim3.func = [](void *userData)
 8002d4c:	b480      	push	{r7}
 8002d4e:	b083      	sub	sp, #12
 8002d50:	af00      	add	r7, sp, #0
 8002d52:	6078      	str	r0, [r7, #4]
	};
 8002d54:	4b02      	ldr	r3, [pc, #8]	@ (8002d60 <_ZZN5L647416L6474_PwmSetFreqEtENKUlPvE_cvPFvS0_EEv+0x14>)
 8002d56:	4618      	mov	r0, r3
 8002d58:	370c      	adds	r7, #12
 8002d5a:	46bd      	mov	sp, r7
 8002d5c:	bc80      	pop	{r7}
 8002d5e:	4770      	bx	lr
 8002d60:	08002d35 	.word	0x08002d35

08002d64 <_ZN5L647416L6474_PwmSetFreqEt>:
{
 8002d64:	b590      	push	{r4, r7, lr}
 8002d66:	b087      	sub	sp, #28
 8002d68:	af00      	add	r7, sp, #0
 8002d6a:	6078      	str	r0, [r7, #4]
 8002d6c:	460b      	mov	r3, r1
 8002d6e:	807b      	strh	r3, [r7, #2]
    double period = 1.0f / frequency;
 8002d70:	887b      	ldrh	r3, [r7, #2]
 8002d72:	4618      	mov	r0, r3
 8002d74:	f7fd ff92 	bl	8000c9c <__aeabi_i2f>
 8002d78:	4603      	mov	r3, r0
 8002d7a:	4619      	mov	r1, r3
 8002d7c:	f04f 507e 	mov.w	r0, #1065353216	@ 0x3f800000
 8002d80:	f7fe f894 	bl	8000eac <__aeabi_fdiv>
 8002d84:	4603      	mov	r3, r0
 8002d86:	4618      	mov	r0, r3
 8002d88:	f7fd fb4e 	bl	8000428 <__aeabi_f2d>
 8002d8c:	4602      	mov	r2, r0
 8002d8e:	460b      	mov	r3, r1
 8002d90:	e9c7 2304 	strd	r2, r3, [r7, #16]
    printf("frequency: %i, period: %f\n", frequency, period);
 8002d94:	8879      	ldrh	r1, [r7, #2]
 8002d96:	e9d7 2304 	ldrd	r2, r3, [r7, #16]
 8002d9a:	4812      	ldr	r0, [pc, #72]	@ (8002de4 <_ZN5L647416L6474_PwmSetFreqEt+0x80>)
 8002d9c:	f003 fee0 	bl	8006b60 <iprintf>
    pwm.period(period);
 8002da0:	687b      	ldr	r3, [r7, #4]
 8002da2:	1d1c      	adds	r4, r3, #4
 8002da4:	e9d7 0104 	ldrd	r0, r1, [r7, #16]
 8002da8:	f7fd fe6e 	bl	8000a88 <__aeabi_d2f>
 8002dac:	4603      	mov	r3, r0
 8002dae:	4619      	mov	r1, r3
 8002db0:	4620      	mov	r0, r4
 8002db2:	f000 f89b 	bl	8002eec <_ZN3Pwm6periodEf>
    pwm.write(0.5f);
 8002db6:	687b      	ldr	r3, [r7, #4]
 8002db8:	3304      	adds	r3, #4
 8002dba:	f04f 517c 	mov.w	r1, #1056964608	@ 0x3f000000
 8002dbe:	4618      	mov	r0, r3
 8002dc0:	f000 f86c 	bl	8002e9c <_ZN3Pwm5writeEf>
    irqHandlers.tim3.userptr=this;
 8002dc4:	4a08      	ldr	r2, [pc, #32]	@ (8002de8 <_ZN5L647416L6474_PwmSetFreqEt+0x84>)
 8002dc6:	687b      	ldr	r3, [r7, #4]
 8002dc8:	6053      	str	r3, [r2, #4]
	irqHandlers.tim3.func = [](void *userData)
 8002dca:	f107 030c 	add.w	r3, r7, #12
 8002dce:	4618      	mov	r0, r3
 8002dd0:	f7ff ffbc 	bl	8002d4c <_ZZN5L647416L6474_PwmSetFreqEtENKUlPvE_cvPFvS0_EEv>
 8002dd4:	4603      	mov	r3, r0
 8002dd6:	4a04      	ldr	r2, [pc, #16]	@ (8002de8 <_ZN5L647416L6474_PwmSetFreqEt+0x84>)
 8002dd8:	6013      	str	r3, [r2, #0]


}
 8002dda:	bf00      	nop
 8002ddc:	371c      	adds	r7, #28
 8002dde:	46bd      	mov	sp, r7
 8002de0:	bd90      	pop	{r4, r7, pc}
 8002de2:	bf00      	nop
 8002de4:	08008a0c 	.word	0x08008a0c
 8002de8:	20000374 	.word	0x20000374

08002dec <_ZN5L647413L6474_PwmStopEv>:
void L6474::L6474_PwmStop(void)
{
 8002dec:	b580      	push	{r7, lr}
 8002dee:	b082      	sub	sp, #8
 8002df0:	af00      	add	r7, sp, #0
 8002df2:	6078      	str	r0, [r7, #4]
	pwm.write(0.0f);
 8002df4:	687b      	ldr	r3, [r7, #4]
 8002df6:	3304      	adds	r3, #4
 8002df8:	f04f 0100 	mov.w	r1, #0
 8002dfc:	4618      	mov	r0, r3
 8002dfe:	f000 f84d 	bl	8002e9c <_ZN3Pwm5writeEf>
	irqHandlers.tim3.func = NULL;
 8002e02:	4b05      	ldr	r3, [pc, #20]	@ (8002e18 <_ZN5L647413L6474_PwmStopEv+0x2c>)
 8002e04:	2200      	movs	r2, #0
 8002e06:	601a      	str	r2, [r3, #0]
	irqHandlers.tim3.userptr = NULL;
 8002e08:	4b03      	ldr	r3, [pc, #12]	@ (8002e18 <_ZN5L647413L6474_PwmStopEv+0x2c>)
 8002e0a:	2200      	movs	r2, #0
 8002e0c:	605a      	str	r2, [r3, #4]
}
 8002e0e:	bf00      	nop
 8002e10:	3708      	adds	r7, #8
 8002e12:	46bd      	mov	sp, r7
 8002e14:	bd80      	pop	{r7, pc}
 8002e16:	bf00      	nop
 8002e18:	20000374 	.word	0x20000374

08002e1c <_ZN3PwmC1Ev>:

extern TIM_HandleTypeDef htim3;

extern "C" void Error_Handler(void);

Pwm::Pwm()
 8002e1c:	b580      	push	{r7, lr}
 8002e1e:	b082      	sub	sp, #8
 8002e20:	af00      	add	r7, sp, #0
 8002e22:	6078      	str	r0, [r7, #4]
	 :sConfigOC{0}
 8002e24:	687b      	ldr	r3, [r7, #4]
 8002e26:	461a      	mov	r2, r3
 8002e28:	2300      	movs	r3, #0
 8002e2a:	6013      	str	r3, [r2, #0]
 8002e2c:	6053      	str	r3, [r2, #4]
 8002e2e:	6093      	str	r3, [r2, #8]
 8002e30:	60d3      	str	r3, [r2, #12]
 8002e32:	6113      	str	r3, [r2, #16]
 8002e34:	6153      	str	r3, [r2, #20]
 8002e36:	6193      	str	r3, [r2, #24]
{
	htim3.Init.Prescaler = (CPU_FREQUENCY / (1 * (COUNTER_PERIOD+1))) - 1;
 8002e38:	4b17      	ldr	r3, [pc, #92]	@ (8002e98 <_ZN3PwmC1Ev+0x7c>)
 8002e3a:	2205      	movs	r2, #5
 8002e3c:	605a      	str	r2, [r3, #4]
	htim3.Init.Period = COUNTER_PERIOD;
 8002e3e:	4b16      	ldr	r3, [pc, #88]	@ (8002e98 <_ZN3PwmC1Ev+0x7c>)
 8002e40:	f64f 72ff 	movw	r2, #65535	@ 0xffff
 8002e44:	60da      	str	r2, [r3, #12]
	sConfigOC.OCMode = TIM_OCMODE_PWM1;
 8002e46:	687b      	ldr	r3, [r7, #4]
 8002e48:	2260      	movs	r2, #96	@ 0x60
 8002e4a:	601a      	str	r2, [r3, #0]
	sConfigOC.Pulse = 1.0 * COUNTER_PERIOD;
 8002e4c:	687b      	ldr	r3, [r7, #4]
 8002e4e:	f64f 72ff 	movw	r2, #65535	@ 0xffff
 8002e52:	605a      	str	r2, [r3, #4]
	sConfigOC.OCPolarity = TIM_OCPOLARITY_HIGH;
 8002e54:	687b      	ldr	r3, [r7, #4]
 8002e56:	2200      	movs	r2, #0
 8002e58:	609a      	str	r2, [r3, #8]
	sConfigOC.OCFastMode = TIM_OCFAST_DISABLE;
 8002e5a:	687b      	ldr	r3, [r7, #4]
 8002e5c:	2200      	movs	r2, #0
 8002e5e:	611a      	str	r2, [r3, #16]

	 if (HAL_TIM_PWM_ConfigChannel(&htim3, &sConfigOC, TIM_CHANNEL_2) != HAL_OK)
 8002e60:	687b      	ldr	r3, [r7, #4]
 8002e62:	2204      	movs	r2, #4
 8002e64:	4619      	mov	r1, r3
 8002e66:	480c      	ldr	r0, [pc, #48]	@ (8002e98 <_ZN3PwmC1Ev+0x7c>)
 8002e68:	f002 fcec 	bl	8005844 <HAL_TIM_PWM_ConfigChannel>
 8002e6c:	4603      	mov	r3, r0
 8002e6e:	2b00      	cmp	r3, #0
 8002e70:	bf14      	ite	ne
 8002e72:	2301      	movne	r3, #1
 8002e74:	2300      	moveq	r3, #0
 8002e76:	b2db      	uxtb	r3, r3
 8002e78:	2b00      	cmp	r3, #0
 8002e7a:	d001      	beq.n	8002e80 <_ZN3PwmC1Ev+0x64>
	 {
	     Error_Handler();
 8002e7c:	f000 faf4 	bl	8003468 <Error_Handler>
	 }

	 HAL_TIM_PWM_Start(&htim3, TIM_CHANNEL_2);
 8002e80:	2104      	movs	r1, #4
 8002e82:	4805      	ldr	r0, [pc, #20]	@ (8002e98 <_ZN3PwmC1Ev+0x7c>)
 8002e84:	f002 fb4c 	bl	8005520 <HAL_TIM_PWM_Start>
	 HAL_TIM_Base_Start_IT(&htim3);
 8002e88:	4803      	ldr	r0, [pc, #12]	@ (8002e98 <_ZN3PwmC1Ev+0x7c>)
 8002e8a:	f002 faa7 	bl	80053dc <HAL_TIM_Base_Start_IT>
}
 8002e8e:	687b      	ldr	r3, [r7, #4]
 8002e90:	4618      	mov	r0, r3
 8002e92:	3708      	adds	r7, #8
 8002e94:	46bd      	mov	sp, r7
 8002e96:	bd80      	pop	{r7, pc}
 8002e98:	2000032c 	.word	0x2000032c

08002e9c <_ZN3Pwm5writeEf>:

void Pwm::write(float value)
{
 8002e9c:	b580      	push	{r7, lr}
 8002e9e:	b082      	sub	sp, #8
 8002ea0:	af00      	add	r7, sp, #0
 8002ea2:	6078      	str	r0, [r7, #4]
 8002ea4:	6039      	str	r1, [r7, #0]
		//pulse = value * counter period;
	  sConfigOC.Pulse = value * COUNTER_PERIOD;
 8002ea6:	490f      	ldr	r1, [pc, #60]	@ (8002ee4 <_ZN3Pwm5writeEf+0x48>)
 8002ea8:	6838      	ldr	r0, [r7, #0]
 8002eaa:	f7fd ff4b 	bl	8000d44 <__aeabi_fmul>
 8002eae:	4603      	mov	r3, r0
 8002eb0:	4618      	mov	r0, r3
 8002eb2:	f7fe f897 	bl	8000fe4 <__aeabi_f2uiz>
 8002eb6:	4602      	mov	r2, r0
 8002eb8:	687b      	ldr	r3, [r7, #4]
 8002eba:	605a      	str	r2, [r3, #4]
	  if (HAL_TIM_PWM_ConfigChannel(&htim3, &sConfigOC, TIM_CHANNEL_2) != HAL_OK)
 8002ebc:	687b      	ldr	r3, [r7, #4]
 8002ebe:	2204      	movs	r2, #4
 8002ec0:	4619      	mov	r1, r3
 8002ec2:	4809      	ldr	r0, [pc, #36]	@ (8002ee8 <_ZN3Pwm5writeEf+0x4c>)
 8002ec4:	f002 fcbe 	bl	8005844 <HAL_TIM_PWM_ConfigChannel>
 8002ec8:	4603      	mov	r3, r0
 8002eca:	2b00      	cmp	r3, #0
 8002ecc:	bf14      	ite	ne
 8002ece:	2301      	movne	r3, #1
 8002ed0:	2300      	moveq	r3, #0
 8002ed2:	b2db      	uxtb	r3, r3
 8002ed4:	2b00      	cmp	r3, #0
 8002ed6:	d001      	beq.n	8002edc <_ZN3Pwm5writeEf+0x40>
	  {
		  Error_Handler();
 8002ed8:	f000 fac6 	bl	8003468 <Error_Handler>
	  }

}
 8002edc:	bf00      	nop
 8002ede:	3708      	adds	r7, #8
 8002ee0:	46bd      	mov	sp, r7
 8002ee2:	bd80      	pop	{r7, pc}
 8002ee4:	477fff00 	.word	0x477fff00
 8002ee8:	2000032c 	.word	0x2000032c

08002eec <_ZN3Pwm6periodEf>:

void Pwm::period(float seconds)
{
 8002eec:	b580      	push	{r7, lr}
 8002eee:	b082      	sub	sp, #8
 8002ef0:	af00      	add	r7, sp, #0
 8002ef2:	6078      	str	r0, [r7, #4]
 8002ef4:	6039      	str	r1, [r7, #0]
	htim3.Init.Prescaler = (CPU_FREQUENCY / (seconds * (COUNTER_PERIOD+1))) - 1;
 8002ef6:	f04f 418f 	mov.w	r1, #1199570944	@ 0x47800000
 8002efa:	6838      	ldr	r0, [r7, #0]
 8002efc:	f7fd ff22 	bl	8000d44 <__aeabi_fmul>
 8002f00:	4603      	mov	r3, r0
 8002f02:	4619      	mov	r1, r3
 8002f04:	4811      	ldr	r0, [pc, #68]	@ (8002f4c <_ZN3Pwm6periodEf+0x60>)
 8002f06:	f7fd ffd1 	bl	8000eac <__aeabi_fdiv>
 8002f0a:	4603      	mov	r3, r0
 8002f0c:	f04f 517e 	mov.w	r1, #1065353216	@ 0x3f800000
 8002f10:	4618      	mov	r0, r3
 8002f12:	f7fd fe0d 	bl	8000b30 <__aeabi_fsub>
 8002f16:	4603      	mov	r3, r0
 8002f18:	4618      	mov	r0, r3
 8002f1a:	f7fe f863 	bl	8000fe4 <__aeabi_f2uiz>
 8002f1e:	4603      	mov	r3, r0
 8002f20:	4a0b      	ldr	r2, [pc, #44]	@ (8002f50 <_ZN3Pwm6periodEf+0x64>)
 8002f22:	6053      	str	r3, [r2, #4]
	if (HAL_TIM_PWM_ConfigChannel(&htim3, &sConfigOC, TIM_CHANNEL_2) != HAL_OK)
 8002f24:	687b      	ldr	r3, [r7, #4]
 8002f26:	2204      	movs	r2, #4
 8002f28:	4619      	mov	r1, r3
 8002f2a:	4809      	ldr	r0, [pc, #36]	@ (8002f50 <_ZN3Pwm6periodEf+0x64>)
 8002f2c:	f002 fc8a 	bl	8005844 <HAL_TIM_PWM_ConfigChannel>
 8002f30:	4603      	mov	r3, r0
 8002f32:	2b00      	cmp	r3, #0
 8002f34:	bf14      	ite	ne
 8002f36:	2301      	movne	r3, #1
 8002f38:	2300      	moveq	r3, #0
 8002f3a:	b2db      	uxtb	r3, r3
 8002f3c:	2b00      	cmp	r3, #0
 8002f3e:	d001      	beq.n	8002f44 <_ZN3Pwm6periodEf+0x58>
	{
		Error_Handler();
 8002f40:	f000 fa92 	bl	8003468 <Error_Handler>
	}

}
 8002f44:	bf00      	nop
 8002f46:	3708      	adds	r7, #8
 8002f48:	46bd      	mov	sp, r7
 8002f4a:	bd80      	pop	{r7, pc}
 8002f4c:	48d1b660 	.word	0x48d1b660
 8002f50:	2000032c 	.word	0x2000032c

08002f54 <L6474_create>:

L6474 *motor;


extern "C" void L6474_create()
{
 8002f54:	b598      	push	{r3, r4, r7, lr}
 8002f56:	af00      	add	r7, sp, #0
	motor = new L6474;
 8002f58:	2054      	movs	r0, #84	@ 0x54
 8002f5a:	f002 ffef 	bl	8005f3c <_Znwj>
 8002f5e:	4603      	mov	r3, r0
 8002f60:	461c      	mov	r4, r3
 8002f62:	4620      	mov	r0, r4
 8002f64:	f7fe fb80 	bl	8001668 <_ZN5L6474C1Ev>
 8002f68:	4b0d      	ldr	r3, [pc, #52]	@ (8002fa0 <L6474_create+0x4c>)
 8002f6a:	601c      	str	r4, [r3, #0]
	if(motor->init(&init) != COMPONENT_OK)
 8002f6c:	4b0c      	ldr	r3, [pc, #48]	@ (8002fa0 <L6474_create+0x4c>)
 8002f6e:	681a      	ldr	r2, [r3, #0]
 8002f70:	4b0b      	ldr	r3, [pc, #44]	@ (8002fa0 <L6474_create+0x4c>)
 8002f72:	681b      	ldr	r3, [r3, #0]
 8002f74:	681b      	ldr	r3, [r3, #0]
 8002f76:	681b      	ldr	r3, [r3, #0]
 8002f78:	490a      	ldr	r1, [pc, #40]	@ (8002fa4 <L6474_create+0x50>)
 8002f7a:	4610      	mov	r0, r2
 8002f7c:	4798      	blx	r3
 8002f7e:	4603      	mov	r3, r0
 8002f80:	2b00      	cmp	r3, #0
 8002f82:	bf14      	ite	ne
 8002f84:	2301      	movne	r3, #1
 8002f86:	2300      	moveq	r3, #0
 8002f88:	b2db      	uxtb	r3, r3
 8002f8a:	2b00      	cmp	r3, #0
 8002f8c:	d003      	beq.n	8002f96 <L6474_create+0x42>
	{
		printf("failed to initialize\r\n");
 8002f8e:	4806      	ldr	r0, [pc, #24]	@ (8002fa8 <L6474_create+0x54>)
 8002f90:	f003 fe4e 	bl	8006c30 <puts>
	else
	{
		printf("ok\r\n");
	}

}
 8002f94:	e002      	b.n	8002f9c <L6474_create+0x48>
		printf("ok\r\n");
 8002f96:	4805      	ldr	r0, [pc, #20]	@ (8002fac <L6474_create+0x58>)
 8002f98:	f003 fe4a 	bl	8006c30 <puts>
}
 8002f9c:	bf00      	nop
 8002f9e:	bd98      	pop	{r3, r4, r7, pc}
 8002fa0:	20000240 	.word	0x20000240
 8002fa4:	20000000 	.word	0x20000000
 8002fa8:	08008a28 	.word	0x08008a28
 8002fac:	08008a40 	.word	0x08008a40

08002fb0 <_Z16flag_irq_handlerv>:

void flag_irq_handler(void)
{
 8002fb0:	b580      	push	{r7, lr}
 8002fb2:	b082      	sub	sp, #8
 8002fb4:	af00      	add	r7, sp, #0
    /* Set ISR flag. */
    motor->isr_flag = TRUE;
 8002fb6:	4b0e      	ldr	r3, [pc, #56]	@ (8002ff0 <_Z16flag_irq_handlerv+0x40>)
 8002fb8:	2201      	movs	r2, #1
 8002fba:	701a      	strb	r2, [r3, #0]

    /* Get the value of the status register. */
    unsigned int status = motor->get_status();
 8002fbc:	4b0d      	ldr	r3, [pc, #52]	@ (8002ff4 <_Z16flag_irq_handlerv+0x44>)
 8002fbe:	681a      	ldr	r2, [r3, #0]
 8002fc0:	4b0c      	ldr	r3, [pc, #48]	@ (8002ff4 <_Z16flag_irq_handlerv+0x44>)
 8002fc2:	681b      	ldr	r3, [r3, #0]
 8002fc4:	681b      	ldr	r3, [r3, #0]
 8002fc6:	3310      	adds	r3, #16
 8002fc8:	681b      	ldr	r3, [r3, #0]
 8002fca:	4610      	mov	r0, r2
 8002fcc:	4798      	blx	r3
 8002fce:	6078      	str	r0, [r7, #4]

    /* Check NOTPERF_CMD flag: if set, the command received by SPI can't be performed. */
    /* This often occures when a command is sent to the L6474 while it is not in HiZ state. */
    if ((status & L6474_STATUS_NOTPERF_CMD) == L6474_STATUS_NOTPERF_CMD) {
 8002fd0:	687b      	ldr	r3, [r7, #4]
 8002fd2:	f003 0380 	and.w	r3, r3, #128	@ 0x80
 8002fd6:	2b00      	cmp	r3, #0
 8002fd8:	d002      	beq.n	8002fe0 <_Z16flag_irq_handlerv+0x30>
        printf("    WARNING: \"FLAG\" interrupt triggered. Non-performable command detected when updating L6474's registers while not in HiZ state.\r\n");
 8002fda:	4807      	ldr	r0, [pc, #28]	@ (8002ff8 <_Z16flag_irq_handlerv+0x48>)
 8002fdc:	f003 fe28 	bl	8006c30 <puts>
    }

    /* Reset ISR flag. */
    motor->isr_flag = FALSE;
 8002fe0:	4b03      	ldr	r3, [pc, #12]	@ (8002ff0 <_Z16flag_irq_handlerv+0x40>)
 8002fe2:	2200      	movs	r2, #0
 8002fe4:	701a      	strb	r2, [r3, #0]
}
 8002fe6:	bf00      	nop
 8002fe8:	3708      	adds	r7, #8
 8002fea:	46bd      	mov	sp, r7
 8002fec:	bd80      	pop	{r7, pc}
 8002fee:	bf00      	nop
 8002ff0:	20000226 	.word	0x20000226
 8002ff4:	20000240 	.word	0x20000240
 8002ff8:	08008a44 	.word	0x08008a44

08002ffc <L6474_move>:

int position = 0;
int diff = 0;

extern "C" void L6474_move()
{
 8002ffc:	b580      	push	{r7, lr}
 8002ffe:	af00      	add	r7, sp, #0

    /* Attaching and enabling interrupt handlers. */
    motor->attach_flag_irq(&flag_irq_handler);
 8003000:	4b33      	ldr	r3, [pc, #204]	@ (80030d0 <L6474_move+0xd4>)
 8003002:	681b      	ldr	r3, [r3, #0]
 8003004:	4933      	ldr	r1, [pc, #204]	@ (80030d4 <L6474_move+0xd8>)
 8003006:	4618      	mov	r0, r3
 8003008:	f7fe fb6e 	bl	80016e8 <_ZN5L647415attach_flag_irqEPFvvE>
    motor->enable_flag_irq();
 800300c:	4b30      	ldr	r3, [pc, #192]	@ (80030d0 <L6474_move+0xd4>)
 800300e:	681b      	ldr	r3, [r3, #0]
 8003010:	4618      	mov	r0, r3
 8003012:	f7fe fb79 	bl	8001708 <_ZN5L647415enable_flag_irqEv>

    motor->set_parameter(L6474_TVAL, 500);
 8003016:	4b2e      	ldr	r3, [pc, #184]	@ (80030d0 <L6474_move+0xd4>)
 8003018:	6818      	ldr	r0, [r3, #0]
 800301a:	4b2d      	ldr	r3, [pc, #180]	@ (80030d0 <L6474_move+0xd4>)
 800301c:	681b      	ldr	r3, [r3, #0]
 800301e:	681b      	ldr	r3, [r3, #0]
 8003020:	337c      	adds	r3, #124	@ 0x7c
 8003022:	681b      	ldr	r3, [r3, #0]
 8003024:	4a2c      	ldr	r2, [pc, #176]	@ (80030d8 <L6474_move+0xdc>)
 8003026:	2109      	movs	r1, #9
 8003028:	4798      	blx	r3



    position = motor->get_position();
 800302a:	4b29      	ldr	r3, [pc, #164]	@ (80030d0 <L6474_move+0xd4>)
 800302c:	681a      	ldr	r2, [r3, #0]
 800302e:	4b28      	ldr	r3, [pc, #160]	@ (80030d0 <L6474_move+0xd4>)
 8003030:	681b      	ldr	r3, [r3, #0]
 8003032:	681b      	ldr	r3, [r3, #0]
 8003034:	3314      	adds	r3, #20
 8003036:	681b      	ldr	r3, [r3, #0]
 8003038:	4610      	mov	r0, r2
 800303a:	4798      	blx	r3
 800303c:	4603      	mov	r3, r0
 800303e:	4a27      	ldr	r2, [pc, #156]	@ (80030dc <L6474_move+0xe0>)
 8003040:	6013      	str	r3, [r2, #0]

    motor->move(StepperMotor::FWD, STEPS_1 / 8);
 8003042:	4b23      	ldr	r3, [pc, #140]	@ (80030d0 <L6474_move+0xd4>)
 8003044:	6818      	ldr	r0, [r3, #0]
 8003046:	4b22      	ldr	r3, [pc, #136]	@ (80030d0 <L6474_move+0xd4>)
 8003048:	681b      	ldr	r3, [r3, #0]
 800304a:	681b      	ldr	r3, [r3, #0]
 800304c:	3360      	adds	r3, #96	@ 0x60
 800304e:	681b      	ldr	r3, [r3, #0]
 8003050:	f44f 72c8 	mov.w	r2, #400	@ 0x190
 8003054:	2101      	movs	r1, #1
 8003056:	4798      	blx	r3
    motor->wait_while_active();
 8003058:	4b1d      	ldr	r3, [pc, #116]	@ (80030d0 <L6474_move+0xd4>)
 800305a:	681a      	ldr	r2, [r3, #0]
 800305c:	4b1c      	ldr	r3, [pc, #112]	@ (80030d0 <L6474_move+0xd4>)
 800305e:	681b      	ldr	r3, [r3, #0]
 8003060:	681b      	ldr	r3, [r3, #0]
 8003062:	3374      	adds	r3, #116	@ 0x74
 8003064:	681b      	ldr	r3, [r3, #0]
 8003066:	4610      	mov	r0, r2
 8003068:	4798      	blx	r3

    diff = motor->get_position() - position;
 800306a:	4b19      	ldr	r3, [pc, #100]	@ (80030d0 <L6474_move+0xd4>)
 800306c:	681a      	ldr	r2, [r3, #0]
 800306e:	4b18      	ldr	r3, [pc, #96]	@ (80030d0 <L6474_move+0xd4>)
 8003070:	681b      	ldr	r3, [r3, #0]
 8003072:	681b      	ldr	r3, [r3, #0]
 8003074:	3314      	adds	r3, #20
 8003076:	681b      	ldr	r3, [r3, #0]
 8003078:	4610      	mov	r0, r2
 800307a:	4798      	blx	r3
 800307c:	4602      	mov	r2, r0
 800307e:	4b17      	ldr	r3, [pc, #92]	@ (80030dc <L6474_move+0xe0>)
 8003080:	681b      	ldr	r3, [r3, #0]
 8003082:	1ad3      	subs	r3, r2, r3
 8003084:	4a16      	ldr	r2, [pc, #88]	@ (80030e0 <L6474_move+0xe4>)
 8003086:	6013      	str	r3, [r2, #0]
    position = motor->get_position();
 8003088:	4b11      	ldr	r3, [pc, #68]	@ (80030d0 <L6474_move+0xd4>)
 800308a:	681a      	ldr	r2, [r3, #0]
 800308c:	4b10      	ldr	r3, [pc, #64]	@ (80030d0 <L6474_move+0xd4>)
 800308e:	681b      	ldr	r3, [r3, #0]
 8003090:	681b      	ldr	r3, [r3, #0]
 8003092:	3314      	adds	r3, #20
 8003094:	681b      	ldr	r3, [r3, #0]
 8003096:	4610      	mov	r0, r2
 8003098:	4798      	blx	r3
 800309a:	4603      	mov	r3, r0
 800309c:	4a0f      	ldr	r2, [pc, #60]	@ (80030dc <L6474_move+0xe0>)
 800309e:	6013      	str	r3, [r2, #0]

    //motor->move(StepperMotor::BWD, STEPS_1 / 8);
    //motor->wait_while_active();
    //position = motor->get_position();

    motor->set_max_speed(10000);
 80030a0:	4b0b      	ldr	r3, [pc, #44]	@ (80030d0 <L6474_move+0xd4>)
 80030a2:	681a      	ldr	r2, [r3, #0]
 80030a4:	4b0a      	ldr	r3, [pc, #40]	@ (80030d0 <L6474_move+0xd4>)
 80030a6:	681b      	ldr	r3, [r3, #0]
 80030a8:	681b      	ldr	r3, [r3, #0]
 80030aa:	333c      	adds	r3, #60	@ 0x3c
 80030ac:	681b      	ldr	r3, [r3, #0]
 80030ae:	f242 7110 	movw	r1, #10000	@ 0x2710
 80030b2:	4610      	mov	r0, r2
 80030b4:	4798      	blx	r3
    motor->set_min_speed(8000);
 80030b6:	4b06      	ldr	r3, [pc, #24]	@ (80030d0 <L6474_move+0xd4>)
 80030b8:	681a      	ldr	r2, [r3, #0]
 80030ba:	4b05      	ldr	r3, [pc, #20]	@ (80030d0 <L6474_move+0xd4>)
 80030bc:	681b      	ldr	r3, [r3, #0]
 80030be:	681b      	ldr	r3, [r3, #0]
 80030c0:	3340      	adds	r3, #64	@ 0x40
 80030c2:	681b      	ldr	r3, [r3, #0]
 80030c4:	f44f 51fa 	mov.w	r1, #8000	@ 0x1f40
 80030c8:	4610      	mov	r0, r2
 80030ca:	4798      	blx	r3

}
 80030cc:	bf00      	nop
 80030ce:	bd80      	pop	{r7, pc}
 80030d0:	20000240 	.word	0x20000240
 80030d4:	08002fb1 	.word	0x08002fb1
 80030d8:	43fa0000 	.word	0x43fa0000
 80030dc:	20000244 	.word	0x20000244
 80030e0:	20000248 	.word	0x20000248

080030e4 <L6474_run>:

extern "C" void L6474_run()
{
 80030e4:	b580      	push	{r7, lr}
 80030e6:	af00      	add	r7, sp, #0
	 while(true)
	 {
		 motor->move(StepperMotor::FWD, STEPS_1 / 8);
 80030e8:	4b0a      	ldr	r3, [pc, #40]	@ (8003114 <L6474_run+0x30>)
 80030ea:	6818      	ldr	r0, [r3, #0]
 80030ec:	4b09      	ldr	r3, [pc, #36]	@ (8003114 <L6474_run+0x30>)
 80030ee:	681b      	ldr	r3, [r3, #0]
 80030f0:	681b      	ldr	r3, [r3, #0]
 80030f2:	3360      	adds	r3, #96	@ 0x60
 80030f4:	681b      	ldr	r3, [r3, #0]
 80030f6:	f44f 72c8 	mov.w	r2, #400	@ 0x190
 80030fa:	2101      	movs	r1, #1
 80030fc:	4798      	blx	r3
		 motor->wait_while_active();
 80030fe:	4b05      	ldr	r3, [pc, #20]	@ (8003114 <L6474_run+0x30>)
 8003100:	681a      	ldr	r2, [r3, #0]
 8003102:	4b04      	ldr	r3, [pc, #16]	@ (8003114 <L6474_run+0x30>)
 8003104:	681b      	ldr	r3, [r3, #0]
 8003106:	681b      	ldr	r3, [r3, #0]
 8003108:	3374      	adds	r3, #116	@ 0x74
 800310a:	681b      	ldr	r3, [r3, #0]
 800310c:	4610      	mov	r0, r2
 800310e:	4798      	blx	r3
		 motor->move(StepperMotor::FWD, STEPS_1 / 8);
 8003110:	bf00      	nop
 8003112:	e7e9      	b.n	80030e8 <L6474_run+0x4>
 8003114:	20000240 	.word	0x20000240

08003118 <main>:
/**
  * @brief  The application entry point.
  * @retval int
  */
int main(void)
{
 8003118:	b580      	push	{r7, lr}
 800311a:	af00      	add	r7, sp, #0
  /* USER CODE END 1 */

  /* MCU Configuration--------------------------------------------------------*/

  /* Reset of all peripherals, Initializes the Flash interface and the Systick. */
  HAL_Init();
 800311c:	f000 fc7c 	bl	8003a18 <HAL_Init>

  /* USER CODE BEGIN Init */
  /* USER CODE END Init */

  /* Configure the system clock */
  SystemClock_Config();
 8003120:	f000 f826 	bl	8003170 <SystemClock_Config>
  /* USER CODE BEGIN SysInit */

  /* USER CODE END SysInit */

  /* Initialize all configured peripherals */
  MX_GPIO_Init();
 8003124:	f000 f91a 	bl	800335c <MX_GPIO_Init>
  MX_DMA_Init();
 8003128:	f000 f8f2 	bl	8003310 <MX_DMA_Init>
  MX_TIM3_Init();
 800312c:	f000 f896 	bl	800325c <MX_TIM3_Init>
  MX_SPI1_Init();
 8003130:	f000 f85e 	bl	80031f0 <MX_SPI1_Init>

  //irqHandlers.irq_handlers[0].func=dummy;
  //timIrqHandlers.irq_handlers[0].userptr=NULL;


  irqHandlers.tim3.func = NULL;
 8003134:	4b0c      	ldr	r3, [pc, #48]	@ (8003168 <main+0x50>)
 8003136:	2200      	movs	r2, #0
 8003138:	601a      	str	r2, [r3, #0]
  irqHandlers.tim3.userptr = NULL;
 800313a:	4b0b      	ldr	r3, [pc, #44]	@ (8003168 <main+0x50>)
 800313c:	2200      	movs	r2, #0
 800313e:	605a      	str	r2, [r3, #4]

  irqHandlers.irq.func = NULL;
 8003140:	4b09      	ldr	r3, [pc, #36]	@ (8003168 <main+0x50>)
 8003142:	2200      	movs	r2, #0
 8003144:	609a      	str	r2, [r3, #8]
  irqHandlers.irq.enabled = 0;
 8003146:	4b08      	ldr	r3, [pc, #32]	@ (8003168 <main+0x50>)
 8003148:	2200      	movs	r2, #0
 800314a:	60da      	str	r2, [r3, #12]

  HAL_GPIO_WritePin(GPIOB, GPIO_PIN_6, GPIO_PIN_SET);
 800314c:	2201      	movs	r2, #1
 800314e:	2140      	movs	r1, #64	@ 0x40
 8003150:	4806      	ldr	r0, [pc, #24]	@ (800316c <main+0x54>)
 8003152:	f001 f951 	bl	80043f8 <HAL_GPIO_WritePin>


  L6474_create();
 8003156:	f7ff fefd 	bl	8002f54 <L6474_create>
  L6474_move();
 800315a:	f7ff ff4f 	bl	8002ffc <L6474_move>
  L6474_run();
 800315e:	f7ff ffc1 	bl	80030e4 <L6474_run>
 8003162:	2300      	movs	r3, #0

    /* USER CODE END WHILE */

    /* USER CODE BEGIN 3 */
  /* USER CODE END 3 */
}
 8003164:	4618      	mov	r0, r3
 8003166:	bd80      	pop	{r7, pc}
 8003168:	20000374 	.word	0x20000374
 800316c:	40010c00 	.word	0x40010c00

08003170 <SystemClock_Config>:
/**
  * @brief System Clock Configuration
  * @retval None
  */
void SystemClock_Config(void)
{
 8003170:	b580      	push	{r7, lr}
 8003172:	b090      	sub	sp, #64	@ 0x40
 8003174:	af00      	add	r7, sp, #0
  RCC_OscInitTypeDef RCC_OscInitStruct = {0};
 8003176:	f107 0318 	add.w	r3, r7, #24
 800317a:	2228      	movs	r2, #40	@ 0x28
 800317c:	2100      	movs	r1, #0
 800317e:	4618      	mov	r0, r3
 8003180:	f003 fd5e 	bl	8006c40 <memset>
  RCC_ClkInitTypeDef RCC_ClkInitStruct = {0};
 8003184:	1d3b      	adds	r3, r7, #4
 8003186:	2200      	movs	r2, #0
 8003188:	601a      	str	r2, [r3, #0]
 800318a:	605a      	str	r2, [r3, #4]
 800318c:	609a      	str	r2, [r3, #8]
 800318e:	60da      	str	r2, [r3, #12]
 8003190:	611a      	str	r2, [r3, #16]

  /** Initializes the RCC Oscillators according to the specified parameters
  * in the RCC_OscInitTypeDef structure.
  */
  RCC_OscInitStruct.OscillatorType = RCC_OSCILLATORTYPE_HSI;
 8003192:	2302      	movs	r3, #2
 8003194:	61bb      	str	r3, [r7, #24]
  RCC_OscInitStruct.HSIState = RCC_HSI_ON;
 8003196:	2301      	movs	r3, #1
 8003198:	62bb      	str	r3, [r7, #40]	@ 0x28
  RCC_OscInitStruct.HSICalibrationValue = RCC_HSICALIBRATION_DEFAULT;
 800319a:	2310      	movs	r3, #16
 800319c:	62fb      	str	r3, [r7, #44]	@ 0x2c
  RCC_OscInitStruct.PLL.PLLState = RCC_PLL_ON;
 800319e:	2302      	movs	r3, #2
 80031a0:	637b      	str	r3, [r7, #52]	@ 0x34
  RCC_OscInitStruct.PLL.PLLSource = RCC_PLLSOURCE_HSI_DIV2;
 80031a2:	2300      	movs	r3, #0
 80031a4:	63bb      	str	r3, [r7, #56]	@ 0x38
  RCC_OscInitStruct.PLL.PLLMUL = RCC_PLL_MUL8;
 80031a6:	f44f 13c0 	mov.w	r3, #1572864	@ 0x180000
 80031aa:	63fb      	str	r3, [r7, #60]	@ 0x3c
  if (HAL_RCC_OscConfig(&RCC_OscInitStruct) != HAL_OK)
 80031ac:	f107 0318 	add.w	r3, r7, #24
 80031b0:	4618      	mov	r0, r3
 80031b2:	f001 f95b 	bl	800446c <HAL_RCC_OscConfig>
 80031b6:	4603      	mov	r3, r0
 80031b8:	2b00      	cmp	r3, #0
 80031ba:	d001      	beq.n	80031c0 <SystemClock_Config+0x50>
  {
    Error_Handler();
 80031bc:	f000 f954 	bl	8003468 <Error_Handler>
  }

  /** Initializes the CPU, AHB and APB buses clocks
  */
  RCC_ClkInitStruct.ClockType = RCC_CLOCKTYPE_HCLK|RCC_CLOCKTYPE_SYSCLK
 80031c0:	230f      	movs	r3, #15
 80031c2:	607b      	str	r3, [r7, #4]
                              |RCC_CLOCKTYPE_PCLK1|RCC_CLOCKTYPE_PCLK2;
  RCC_ClkInitStruct.SYSCLKSource = RCC_SYSCLKSOURCE_PLLCLK;
 80031c4:	2302      	movs	r3, #2
 80031c6:	60bb      	str	r3, [r7, #8]
  RCC_ClkInitStruct.AHBCLKDivider = RCC_SYSCLK_DIV1;
 80031c8:	2300      	movs	r3, #0
 80031ca:	60fb      	str	r3, [r7, #12]
  RCC_ClkInitStruct.APB1CLKDivider = RCC_HCLK_DIV1;
 80031cc:	2300      	movs	r3, #0
 80031ce:	613b      	str	r3, [r7, #16]
  RCC_ClkInitStruct.APB2CLKDivider = RCC_HCLK_DIV1;
 80031d0:	2300      	movs	r3, #0
 80031d2:	617b      	str	r3, [r7, #20]

  if (HAL_RCC_ClockConfig(&RCC_ClkInitStruct, FLASH_LATENCY_1) != HAL_OK)
 80031d4:	1d3b      	adds	r3, r7, #4
 80031d6:	2101      	movs	r1, #1
 80031d8:	4618      	mov	r0, r3
 80031da:	f001 fbc9 	bl	8004970 <HAL_RCC_ClockConfig>
 80031de:	4603      	mov	r3, r0
 80031e0:	2b00      	cmp	r3, #0
 80031e2:	d001      	beq.n	80031e8 <SystemClock_Config+0x78>
  {
    Error_Handler();
 80031e4:	f000 f940 	bl	8003468 <Error_Handler>
  }
}
 80031e8:	bf00      	nop
 80031ea:	3740      	adds	r7, #64	@ 0x40
 80031ec:	46bd      	mov	sp, r7
 80031ee:	bd80      	pop	{r7, pc}

080031f0 <MX_SPI1_Init>:
  * @brief SPI1 Initialization Function
  * @param None
  * @retval None
  */
static void MX_SPI1_Init(void)
{
 80031f0:	b580      	push	{r7, lr}
 80031f2:	af00      	add	r7, sp, #0

  /* USER CODE BEGIN SPI1_Init 1 */

  /* USER CODE END SPI1_Init 1 */
  /* SPI1 parameter configuration*/
  hspi1.Instance = SPI1;
 80031f4:	4b17      	ldr	r3, [pc, #92]	@ (8003254 <MX_SPI1_Init+0x64>)
 80031f6:	4a18      	ldr	r2, [pc, #96]	@ (8003258 <MX_SPI1_Init+0x68>)
 80031f8:	601a      	str	r2, [r3, #0]
  hspi1.Init.Mode = SPI_MODE_MASTER;
 80031fa:	4b16      	ldr	r3, [pc, #88]	@ (8003254 <MX_SPI1_Init+0x64>)
 80031fc:	f44f 7282 	mov.w	r2, #260	@ 0x104
 8003200:	605a      	str	r2, [r3, #4]
  hspi1.Init.Direction = SPI_DIRECTION_2LINES;
 8003202:	4b14      	ldr	r3, [pc, #80]	@ (8003254 <MX_SPI1_Init+0x64>)
 8003204:	2200      	movs	r2, #0
 8003206:	609a      	str	r2, [r3, #8]
  hspi1.Init.DataSize = SPI_DATASIZE_8BIT;
 8003208:	4b12      	ldr	r3, [pc, #72]	@ (8003254 <MX_SPI1_Init+0x64>)
 800320a:	2200      	movs	r2, #0
 800320c:	60da      	str	r2, [r3, #12]
  hspi1.Init.CLKPolarity = SPI_POLARITY_LOW;
 800320e:	4b11      	ldr	r3, [pc, #68]	@ (8003254 <MX_SPI1_Init+0x64>)
 8003210:	2200      	movs	r2, #0
 8003212:	611a      	str	r2, [r3, #16]
  hspi1.Init.CLKPhase = SPI_PHASE_1EDGE;
 8003214:	4b0f      	ldr	r3, [pc, #60]	@ (8003254 <MX_SPI1_Init+0x64>)
 8003216:	2200      	movs	r2, #0
 8003218:	615a      	str	r2, [r3, #20]
  hspi1.Init.NSS = SPI_NSS_SOFT;
 800321a:	4b0e      	ldr	r3, [pc, #56]	@ (8003254 <MX_SPI1_Init+0x64>)
 800321c:	f44f 7200 	mov.w	r2, #512	@ 0x200
 8003220:	619a      	str	r2, [r3, #24]
  hspi1.Init.BaudRatePrescaler = SPI_BAUDRATEPRESCALER_2;
 8003222:	4b0c      	ldr	r3, [pc, #48]	@ (8003254 <MX_SPI1_Init+0x64>)
 8003224:	2200      	movs	r2, #0
 8003226:	61da      	str	r2, [r3, #28]
  hspi1.Init.FirstBit = SPI_FIRSTBIT_MSB;
 8003228:	4b0a      	ldr	r3, [pc, #40]	@ (8003254 <MX_SPI1_Init+0x64>)
 800322a:	2200      	movs	r2, #0
 800322c:	621a      	str	r2, [r3, #32]
  hspi1.Init.TIMode = SPI_TIMODE_DISABLE;
 800322e:	4b09      	ldr	r3, [pc, #36]	@ (8003254 <MX_SPI1_Init+0x64>)
 8003230:	2200      	movs	r2, #0
 8003232:	625a      	str	r2, [r3, #36]	@ 0x24
  hspi1.Init.CRCCalculation = SPI_CRCCALCULATION_DISABLE;
 8003234:	4b07      	ldr	r3, [pc, #28]	@ (8003254 <MX_SPI1_Init+0x64>)
 8003236:	2200      	movs	r2, #0
 8003238:	629a      	str	r2, [r3, #40]	@ 0x28
  hspi1.Init.CRCPolynomial = 10;
 800323a:	4b06      	ldr	r3, [pc, #24]	@ (8003254 <MX_SPI1_Init+0x64>)
 800323c:	220a      	movs	r2, #10
 800323e:	62da      	str	r2, [r3, #44]	@ 0x2c
  if (HAL_SPI_Init(&hspi1) != HAL_OK)
 8003240:	4804      	ldr	r0, [pc, #16]	@ (8003254 <MX_SPI1_Init+0x64>)
 8003242:	f001 fcf1 	bl	8004c28 <HAL_SPI_Init>
 8003246:	4603      	mov	r3, r0
 8003248:	2b00      	cmp	r3, #0
 800324a:	d001      	beq.n	8003250 <MX_SPI1_Init+0x60>
  {
    Error_Handler();
 800324c:	f000 f90c 	bl	8003468 <Error_Handler>
  }
  /* USER CODE BEGIN SPI1_Init 2 */

  /* USER CODE END SPI1_Init 2 */

}
 8003250:	bf00      	nop
 8003252:	bd80      	pop	{r7, pc}
 8003254:	2000024c 	.word	0x2000024c
 8003258:	40013000 	.word	0x40013000

0800325c <MX_TIM3_Init>:
  * @brief TIM3 Initialization Function
  * @param None
  * @retval None
  */
static void MX_TIM3_Init(void)
{
 800325c:	b580      	push	{r7, lr}
 800325e:	b08a      	sub	sp, #40	@ 0x28
 8003260:	af00      	add	r7, sp, #0

  /* USER CODE BEGIN TIM3_Init 0 */

  /* USER CODE END TIM3_Init 0 */

  TIM_MasterConfigTypeDef sMasterConfig = {0};
 8003262:	f107 0320 	add.w	r3, r7, #32
 8003266:	2200      	movs	r2, #0
 8003268:	601a      	str	r2, [r3, #0]
 800326a:	605a      	str	r2, [r3, #4]
  TIM_OC_InitTypeDef sConfigOC = {0};
 800326c:	1d3b      	adds	r3, r7, #4
 800326e:	2200      	movs	r2, #0
 8003270:	601a      	str	r2, [r3, #0]
 8003272:	605a      	str	r2, [r3, #4]
 8003274:	609a      	str	r2, [r3, #8]
 8003276:	60da      	str	r2, [r3, #12]
 8003278:	611a      	str	r2, [r3, #16]
 800327a:	615a      	str	r2, [r3, #20]
 800327c:	619a      	str	r2, [r3, #24]

  /* USER CODE BEGIN TIM3_Init 1 */

  /* USER CODE END TIM3_Init 1 */
  htim3.Instance = TIM3;
 800327e:	4b22      	ldr	r3, [pc, #136]	@ (8003308 <MX_TIM3_Init+0xac>)
 8003280:	4a22      	ldr	r2, [pc, #136]	@ (800330c <MX_TIM3_Init+0xb0>)
 8003282:	601a      	str	r2, [r3, #0]
  htim3.Init.Prescaler = 0;
 8003284:	4b20      	ldr	r3, [pc, #128]	@ (8003308 <MX_TIM3_Init+0xac>)
 8003286:	2200      	movs	r2, #0
 8003288:	605a      	str	r2, [r3, #4]
  htim3.Init.CounterMode = TIM_COUNTERMODE_UP;
 800328a:	4b1f      	ldr	r3, [pc, #124]	@ (8003308 <MX_TIM3_Init+0xac>)
 800328c:	2200      	movs	r2, #0
 800328e:	609a      	str	r2, [r3, #8]
  htim3.Init.Period = 65535;
 8003290:	4b1d      	ldr	r3, [pc, #116]	@ (8003308 <MX_TIM3_Init+0xac>)
 8003292:	f64f 72ff 	movw	r2, #65535	@ 0xffff
 8003296:	60da      	str	r2, [r3, #12]
  htim3.Init.ClockDivision = TIM_CLOCKDIVISION_DIV1;
 8003298:	4b1b      	ldr	r3, [pc, #108]	@ (8003308 <MX_TIM3_Init+0xac>)
 800329a:	2200      	movs	r2, #0
 800329c:	611a      	str	r2, [r3, #16]
  htim3.Init.AutoReloadPreload = TIM_AUTORELOAD_PRELOAD_DISABLE;
 800329e:	4b1a      	ldr	r3, [pc, #104]	@ (8003308 <MX_TIM3_Init+0xac>)
 80032a0:	2200      	movs	r2, #0
 80032a2:	619a      	str	r2, [r3, #24]
  if (HAL_TIM_PWM_Init(&htim3) != HAL_OK)
 80032a4:	4818      	ldr	r0, [pc, #96]	@ (8003308 <MX_TIM3_Init+0xac>)
 80032a6:	f002 f8eb 	bl	8005480 <HAL_TIM_PWM_Init>
 80032aa:	4603      	mov	r3, r0
 80032ac:	2b00      	cmp	r3, #0
 80032ae:	d001      	beq.n	80032b4 <MX_TIM3_Init+0x58>
  {
    Error_Handler();
 80032b0:	f000 f8da 	bl	8003468 <Error_Handler>
  }
  sMasterConfig.MasterOutputTrigger = TIM_TRGO_RESET;
 80032b4:	2300      	movs	r3, #0
 80032b6:	623b      	str	r3, [r7, #32]
  sMasterConfig.MasterSlaveMode = TIM_MASTERSLAVEMODE_DISABLE;
 80032b8:	2300      	movs	r3, #0
 80032ba:	627b      	str	r3, [r7, #36]	@ 0x24
  if (HAL_TIMEx_MasterConfigSynchronization(&htim3, &sMasterConfig) != HAL_OK)
 80032bc:	f107 0320 	add.w	r3, r7, #32
 80032c0:	4619      	mov	r1, r3
 80032c2:	4811      	ldr	r0, [pc, #68]	@ (8003308 <MX_TIM3_Init+0xac>)
 80032c4:	f002 fdc8 	bl	8005e58 <HAL_TIMEx_MasterConfigSynchronization>
 80032c8:	4603      	mov	r3, r0
 80032ca:	2b00      	cmp	r3, #0
 80032cc:	d001      	beq.n	80032d2 <MX_TIM3_Init+0x76>
  {
    Error_Handler();
 80032ce:	f000 f8cb 	bl	8003468 <Error_Handler>
  }
  sConfigOC.OCMode = TIM_OCMODE_PWM1;
 80032d2:	2360      	movs	r3, #96	@ 0x60
 80032d4:	607b      	str	r3, [r7, #4]
  sConfigOC.Pulse = 0;
 80032d6:	2300      	movs	r3, #0
 80032d8:	60bb      	str	r3, [r7, #8]
  sConfigOC.OCPolarity = TIM_OCPOLARITY_HIGH;
 80032da:	2300      	movs	r3, #0
 80032dc:	60fb      	str	r3, [r7, #12]
  sConfigOC.OCFastMode = TIM_OCFAST_DISABLE;
 80032de:	2300      	movs	r3, #0
 80032e0:	617b      	str	r3, [r7, #20]
  if (HAL_TIM_PWM_ConfigChannel(&htim3, &sConfigOC, TIM_CHANNEL_2) != HAL_OK)
 80032e2:	1d3b      	adds	r3, r7, #4
 80032e4:	2204      	movs	r2, #4
 80032e6:	4619      	mov	r1, r3
 80032e8:	4807      	ldr	r0, [pc, #28]	@ (8003308 <MX_TIM3_Init+0xac>)
 80032ea:	f002 faab 	bl	8005844 <HAL_TIM_PWM_ConfigChannel>
 80032ee:	4603      	mov	r3, r0
 80032f0:	2b00      	cmp	r3, #0
 80032f2:	d001      	beq.n	80032f8 <MX_TIM3_Init+0x9c>
  {
    Error_Handler();
 80032f4:	f000 f8b8 	bl	8003468 <Error_Handler>
  }
  /* USER CODE BEGIN TIM3_Init 2 */

  /* USER CODE END TIM3_Init 2 */
  HAL_TIM_MspPostInit(&htim3);
 80032f8:	4803      	ldr	r0, [pc, #12]	@ (8003308 <MX_TIM3_Init+0xac>)
 80032fa:	f000 f9bd 	bl	8003678 <HAL_TIM_MspPostInit>

}
 80032fe:	bf00      	nop
 8003300:	3728      	adds	r7, #40	@ 0x28
 8003302:	46bd      	mov	sp, r7
 8003304:	bd80      	pop	{r7, pc}
 8003306:	bf00      	nop
 8003308:	2000032c 	.word	0x2000032c
 800330c:	40000400 	.word	0x40000400

08003310 <MX_DMA_Init>:

/**
  * Enable DMA controller clock
  */
static void MX_DMA_Init(void)
{
 8003310:	b580      	push	{r7, lr}
 8003312:	b082      	sub	sp, #8
 8003314:	af00      	add	r7, sp, #0

  /* DMA controller clock enable */
  __HAL_RCC_DMA1_CLK_ENABLE();
 8003316:	4b10      	ldr	r3, [pc, #64]	@ (8003358 <MX_DMA_Init+0x48>)
 8003318:	695b      	ldr	r3, [r3, #20]
 800331a:	4a0f      	ldr	r2, [pc, #60]	@ (8003358 <MX_DMA_Init+0x48>)
 800331c:	f043 0301 	orr.w	r3, r3, #1
 8003320:	6153      	str	r3, [r2, #20]
 8003322:	4b0d      	ldr	r3, [pc, #52]	@ (8003358 <MX_DMA_Init+0x48>)
 8003324:	695b      	ldr	r3, [r3, #20]
 8003326:	f003 0301 	and.w	r3, r3, #1
 800332a:	607b      	str	r3, [r7, #4]
 800332c:	687b      	ldr	r3, [r7, #4]

  /* DMA interrupt init */
  /* DMA1_Channel2_IRQn interrupt configuration */
  HAL_NVIC_SetPriority(DMA1_Channel2_IRQn, 0, 0);
 800332e:	2200      	movs	r2, #0
 8003330:	2100      	movs	r1, #0
 8003332:	200c      	movs	r0, #12
 8003334:	f000 fccd 	bl	8003cd2 <HAL_NVIC_SetPriority>
  HAL_NVIC_EnableIRQ(DMA1_Channel2_IRQn);
 8003338:	200c      	movs	r0, #12
 800333a:	f000 fce6 	bl	8003d0a <HAL_NVIC_EnableIRQ>
  /* DMA1_Channel3_IRQn interrupt configuration */
  HAL_NVIC_SetPriority(DMA1_Channel3_IRQn, 0, 0);
 800333e:	2200      	movs	r2, #0
 8003340:	2100      	movs	r1, #0
 8003342:	200d      	movs	r0, #13
 8003344:	f000 fcc5 	bl	8003cd2 <HAL_NVIC_SetPriority>
  HAL_NVIC_EnableIRQ(DMA1_Channel3_IRQn);
 8003348:	200d      	movs	r0, #13
 800334a:	f000 fcde 	bl	8003d0a <HAL_NVIC_EnableIRQ>

}
 800334e:	bf00      	nop
 8003350:	3708      	adds	r7, #8
 8003352:	46bd      	mov	sp, r7
 8003354:	bd80      	pop	{r7, pc}
 8003356:	bf00      	nop
 8003358:	40021000 	.word	0x40021000

0800335c <MX_GPIO_Init>:
  * @brief GPIO Initialization Function
  * @param None
  * @retval None
  */
static void MX_GPIO_Init(void)
{
 800335c:	b580      	push	{r7, lr}
 800335e:	b088      	sub	sp, #32
 8003360:	af00      	add	r7, sp, #0
  GPIO_InitTypeDef GPIO_InitStruct = {0};
 8003362:	f107 0310 	add.w	r3, r7, #16
 8003366:	2200      	movs	r2, #0
 8003368:	601a      	str	r2, [r3, #0]
 800336a:	605a      	str	r2, [r3, #4]
 800336c:	609a      	str	r2, [r3, #8]
 800336e:	60da      	str	r2, [r3, #12]
/* USER CODE BEGIN MX_GPIO_Init_1 */
/* USER CODE END MX_GPIO_Init_1 */

  /* GPIO Ports Clock Enable */
  __HAL_RCC_GPIOA_CLK_ENABLE();
 8003370:	4b32      	ldr	r3, [pc, #200]	@ (800343c <MX_GPIO_Init+0xe0>)
 8003372:	699b      	ldr	r3, [r3, #24]
 8003374:	4a31      	ldr	r2, [pc, #196]	@ (800343c <MX_GPIO_Init+0xe0>)
 8003376:	f043 0304 	orr.w	r3, r3, #4
 800337a:	6193      	str	r3, [r2, #24]
 800337c:	4b2f      	ldr	r3, [pc, #188]	@ (800343c <MX_GPIO_Init+0xe0>)
 800337e:	699b      	ldr	r3, [r3, #24]
 8003380:	f003 0304 	and.w	r3, r3, #4
 8003384:	60fb      	str	r3, [r7, #12]
 8003386:	68fb      	ldr	r3, [r7, #12]
  __HAL_RCC_GPIOC_CLK_ENABLE();
 8003388:	4b2c      	ldr	r3, [pc, #176]	@ (800343c <MX_GPIO_Init+0xe0>)
 800338a:	699b      	ldr	r3, [r3, #24]
 800338c:	4a2b      	ldr	r2, [pc, #172]	@ (800343c <MX_GPIO_Init+0xe0>)
 800338e:	f043 0310 	orr.w	r3, r3, #16
 8003392:	6193      	str	r3, [r2, #24]
 8003394:	4b29      	ldr	r3, [pc, #164]	@ (800343c <MX_GPIO_Init+0xe0>)
 8003396:	699b      	ldr	r3, [r3, #24]
 8003398:	f003 0310 	and.w	r3, r3, #16
 800339c:	60bb      	str	r3, [r7, #8]
 800339e:	68bb      	ldr	r3, [r7, #8]
  __HAL_RCC_GPIOB_CLK_ENABLE();
 80033a0:	4b26      	ldr	r3, [pc, #152]	@ (800343c <MX_GPIO_Init+0xe0>)
 80033a2:	699b      	ldr	r3, [r3, #24]
 80033a4:	4a25      	ldr	r2, [pc, #148]	@ (800343c <MX_GPIO_Init+0xe0>)
 80033a6:	f043 0308 	orr.w	r3, r3, #8
 80033aa:	6193      	str	r3, [r2, #24]
 80033ac:	4b23      	ldr	r3, [pc, #140]	@ (800343c <MX_GPIO_Init+0xe0>)
 80033ae:	699b      	ldr	r3, [r3, #24]
 80033b0:	f003 0308 	and.w	r3, r3, #8
 80033b4:	607b      	str	r3, [r7, #4]
 80033b6:	687b      	ldr	r3, [r7, #4]

  /*Configure GPIO pin Output Level */
  HAL_GPIO_WritePin(GPIOA, GPIO_PIN_8|GPIO_PIN_9, GPIO_PIN_RESET);
 80033b8:	2200      	movs	r2, #0
 80033ba:	f44f 7140 	mov.w	r1, #768	@ 0x300
 80033be:	4820      	ldr	r0, [pc, #128]	@ (8003440 <MX_GPIO_Init+0xe4>)
 80033c0:	f001 f81a 	bl	80043f8 <HAL_GPIO_WritePin>

  /*Configure GPIO pin Output Level */
  HAL_GPIO_WritePin(GPIOB, GPIO_PIN_6, GPIO_PIN_RESET);
 80033c4:	2200      	movs	r2, #0
 80033c6:	2140      	movs	r1, #64	@ 0x40
 80033c8:	481e      	ldr	r0, [pc, #120]	@ (8003444 <MX_GPIO_Init+0xe8>)
 80033ca:	f001 f815 	bl	80043f8 <HAL_GPIO_WritePin>

  /*Configure GPIO pins : PA8 PA9 */
  GPIO_InitStruct.Pin = GPIO_PIN_8|GPIO_PIN_9;
 80033ce:	f44f 7340 	mov.w	r3, #768	@ 0x300
 80033d2:	613b      	str	r3, [r7, #16]
  GPIO_InitStruct.Mode = GPIO_MODE_OUTPUT_PP;
 80033d4:	2301      	movs	r3, #1
 80033d6:	617b      	str	r3, [r7, #20]
  GPIO_InitStruct.Pull = GPIO_NOPULL;
 80033d8:	2300      	movs	r3, #0
 80033da:	61bb      	str	r3, [r7, #24]
  GPIO_InitStruct.Speed = GPIO_SPEED_FREQ_LOW;
 80033dc:	2302      	movs	r3, #2
 80033de:	61fb      	str	r3, [r7, #28]
  HAL_GPIO_Init(GPIOA, &GPIO_InitStruct);
 80033e0:	f107 0310 	add.w	r3, r7, #16
 80033e4:	4619      	mov	r1, r3
 80033e6:	4816      	ldr	r0, [pc, #88]	@ (8003440 <MX_GPIO_Init+0xe4>)
 80033e8:	f000 fe82 	bl	80040f0 <HAL_GPIO_Init>

  /*Configure GPIO pin : PA10 */
  GPIO_InitStruct.Pin = GPIO_PIN_10;
 80033ec:	f44f 6380 	mov.w	r3, #1024	@ 0x400
 80033f0:	613b      	str	r3, [r7, #16]
  GPIO_InitStruct.Mode = GPIO_MODE_IT_FALLING;
 80033f2:	4b15      	ldr	r3, [pc, #84]	@ (8003448 <MX_GPIO_Init+0xec>)
 80033f4:	617b      	str	r3, [r7, #20]
  GPIO_InitStruct.Pull = GPIO_NOPULL;
 80033f6:	2300      	movs	r3, #0
 80033f8:	61bb      	str	r3, [r7, #24]
  HAL_GPIO_Init(GPIOA, &GPIO_InitStruct);
 80033fa:	f107 0310 	add.w	r3, r7, #16
 80033fe:	4619      	mov	r1, r3
 8003400:	480f      	ldr	r0, [pc, #60]	@ (8003440 <MX_GPIO_Init+0xe4>)
 8003402:	f000 fe75 	bl	80040f0 <HAL_GPIO_Init>

  /*Configure GPIO pin : PB6 */
  GPIO_InitStruct.Pin = GPIO_PIN_6;
 8003406:	2340      	movs	r3, #64	@ 0x40
 8003408:	613b      	str	r3, [r7, #16]
  GPIO_InitStruct.Mode = GPIO_MODE_OUTPUT_PP;
 800340a:	2301      	movs	r3, #1
 800340c:	617b      	str	r3, [r7, #20]
  GPIO_InitStruct.Pull = GPIO_NOPULL;
 800340e:	2300      	movs	r3, #0
 8003410:	61bb      	str	r3, [r7, #24]
  GPIO_InitStruct.Speed = GPIO_SPEED_FREQ_LOW;
 8003412:	2302      	movs	r3, #2
 8003414:	61fb      	str	r3, [r7, #28]
  HAL_GPIO_Init(GPIOB, &GPIO_InitStruct);
 8003416:	f107 0310 	add.w	r3, r7, #16
 800341a:	4619      	mov	r1, r3
 800341c:	4809      	ldr	r0, [pc, #36]	@ (8003444 <MX_GPIO_Init+0xe8>)
 800341e:	f000 fe67 	bl	80040f0 <HAL_GPIO_Init>

  /* EXTI interrupt init*/
  HAL_NVIC_SetPriority(EXTI15_10_IRQn, 0, 0);
 8003422:	2200      	movs	r2, #0
 8003424:	2100      	movs	r1, #0
 8003426:	2028      	movs	r0, #40	@ 0x28
 8003428:	f000 fc53 	bl	8003cd2 <HAL_NVIC_SetPriority>
  HAL_NVIC_EnableIRQ(EXTI15_10_IRQn);
 800342c:	2028      	movs	r0, #40	@ 0x28
 800342e:	f000 fc6c 	bl	8003d0a <HAL_NVIC_EnableIRQ>

/* USER CODE BEGIN MX_GPIO_Init_2 */
/* USER CODE END MX_GPIO_Init_2 */
}
 8003432:	bf00      	nop
 8003434:	3720      	adds	r7, #32
 8003436:	46bd      	mov	sp, r7
 8003438:	bd80      	pop	{r7, pc}
 800343a:	bf00      	nop
 800343c:	40021000 	.word	0x40021000
 8003440:	40010800 	.word	0x40010800
 8003444:	40010c00 	.word	0x40010c00
 8003448:	10210000 	.word	0x10210000

0800344c <HAL_SPI_ErrorCallback>:
void HAL_SPI_TxRxCpltCallback(SPI_HandleTypeDef *hspi)
{
  wTransferState = TRANSFER_COMPLETE;
}
void HAL_SPI_ErrorCallback(SPI_HandleTypeDef *hspi)
{
 800344c:	b480      	push	{r7}
 800344e:	b083      	sub	sp, #12
 8003450:	af00      	add	r7, sp, #0
 8003452:	6078      	str	r0, [r7, #4]
  wTransferState = TRANSFER_ERROR;
 8003454:	4b03      	ldr	r3, [pc, #12]	@ (8003464 <HAL_SPI_ErrorCallback+0x18>)
 8003456:	2202      	movs	r2, #2
 8003458:	601a      	str	r2, [r3, #0]
}
 800345a:	bf00      	nop
 800345c:	370c      	adds	r7, #12
 800345e:	46bd      	mov	sp, r7
 8003460:	bc80      	pop	{r7}
 8003462:	4770      	bx	lr
 8003464:	20000030 	.word	0x20000030

08003468 <Error_Handler>:
/**
  * @brief  This function is executed in case of error occurrence.
  * @retval None
  */
void Error_Handler(void)
{
 8003468:	b480      	push	{r7}
 800346a:	af00      	add	r7, sp, #0
  __ASM volatile ("cpsid i" : : : "memory");
 800346c:	b672      	cpsid	i
}
 800346e:	bf00      	nop
  /* USER CODE BEGIN Error_Handler_Debug */
  /* User can add his own implementation to report the HAL error return state */
  __disable_irq();
  while (1)
 8003470:	bf00      	nop
 8003472:	e7fd      	b.n	8003470 <Error_Handler+0x8>

08003474 <HAL_MspInit>:
void HAL_TIM_MspPostInit(TIM_HandleTypeDef *htim);
                    /**
  * Initializes the Global MSP.
  */
void HAL_MspInit(void)
{
 8003474:	b480      	push	{r7}
 8003476:	b085      	sub	sp, #20
 8003478:	af00      	add	r7, sp, #0

  /* USER CODE BEGIN MspInit 0 */

  /* USER CODE END MspInit 0 */

  __HAL_RCC_AFIO_CLK_ENABLE();
 800347a:	4b15      	ldr	r3, [pc, #84]	@ (80034d0 <HAL_MspInit+0x5c>)
 800347c:	699b      	ldr	r3, [r3, #24]
 800347e:	4a14      	ldr	r2, [pc, #80]	@ (80034d0 <HAL_MspInit+0x5c>)
 8003480:	f043 0301 	orr.w	r3, r3, #1
 8003484:	6193      	str	r3, [r2, #24]
 8003486:	4b12      	ldr	r3, [pc, #72]	@ (80034d0 <HAL_MspInit+0x5c>)
 8003488:	699b      	ldr	r3, [r3, #24]
 800348a:	f003 0301 	and.w	r3, r3, #1
 800348e:	60bb      	str	r3, [r7, #8]
 8003490:	68bb      	ldr	r3, [r7, #8]
  __HAL_RCC_PWR_CLK_ENABLE();
 8003492:	4b0f      	ldr	r3, [pc, #60]	@ (80034d0 <HAL_MspInit+0x5c>)
 8003494:	69db      	ldr	r3, [r3, #28]
 8003496:	4a0e      	ldr	r2, [pc, #56]	@ (80034d0 <HAL_MspInit+0x5c>)
 8003498:	f043 5380 	orr.w	r3, r3, #268435456	@ 0x10000000
 800349c:	61d3      	str	r3, [r2, #28]
 800349e:	4b0c      	ldr	r3, [pc, #48]	@ (80034d0 <HAL_MspInit+0x5c>)
 80034a0:	69db      	ldr	r3, [r3, #28]
 80034a2:	f003 5380 	and.w	r3, r3, #268435456	@ 0x10000000
 80034a6:	607b      	str	r3, [r7, #4]
 80034a8:	687b      	ldr	r3, [r7, #4]

  /* System interrupt init*/

  /** NOJTAG: JTAG-DP Disabled and SW-DP Enabled
  */
  __HAL_AFIO_REMAP_SWJ_NOJTAG();
 80034aa:	4b0a      	ldr	r3, [pc, #40]	@ (80034d4 <HAL_MspInit+0x60>)
 80034ac:	685b      	ldr	r3, [r3, #4]
 80034ae:	60fb      	str	r3, [r7, #12]
 80034b0:	68fb      	ldr	r3, [r7, #12]
 80034b2:	f023 63e0 	bic.w	r3, r3, #117440512	@ 0x7000000
 80034b6:	60fb      	str	r3, [r7, #12]
 80034b8:	68fb      	ldr	r3, [r7, #12]
 80034ba:	f043 7300 	orr.w	r3, r3, #33554432	@ 0x2000000
 80034be:	60fb      	str	r3, [r7, #12]
 80034c0:	4a04      	ldr	r2, [pc, #16]	@ (80034d4 <HAL_MspInit+0x60>)
 80034c2:	68fb      	ldr	r3, [r7, #12]
 80034c4:	6053      	str	r3, [r2, #4]

  /* USER CODE BEGIN MspInit 1 */

  /* USER CODE END MspInit 1 */
}
 80034c6:	bf00      	nop
 80034c8:	3714      	adds	r7, #20
 80034ca:	46bd      	mov	sp, r7
 80034cc:	bc80      	pop	{r7}
 80034ce:	4770      	bx	lr
 80034d0:	40021000 	.word	0x40021000
 80034d4:	40010000 	.word	0x40010000

080034d8 <HAL_SPI_MspInit>:
* This function configures the hardware resources used in this example
* @param hspi: SPI handle pointer
* @retval None
*/
void HAL_SPI_MspInit(SPI_HandleTypeDef* hspi)
{
 80034d8:	b580      	push	{r7, lr}
 80034da:	b088      	sub	sp, #32
 80034dc:	af00      	add	r7, sp, #0
 80034de:	6078      	str	r0, [r7, #4]
  GPIO_InitTypeDef GPIO_InitStruct = {0};
 80034e0:	f107 0310 	add.w	r3, r7, #16
 80034e4:	2200      	movs	r2, #0
 80034e6:	601a      	str	r2, [r3, #0]
 80034e8:	605a      	str	r2, [r3, #4]
 80034ea:	609a      	str	r2, [r3, #8]
 80034ec:	60da      	str	r2, [r3, #12]
  if(hspi->Instance==SPI1)
 80034ee:	687b      	ldr	r3, [r7, #4]
 80034f0:	681b      	ldr	r3, [r3, #0]
 80034f2:	4a47      	ldr	r2, [pc, #284]	@ (8003610 <HAL_SPI_MspInit+0x138>)
 80034f4:	4293      	cmp	r3, r2
 80034f6:	f040 8086 	bne.w	8003606 <HAL_SPI_MspInit+0x12e>
  {
  /* USER CODE BEGIN SPI1_MspInit 0 */

  /* USER CODE END SPI1_MspInit 0 */
    /* Peripheral clock enable */
    __HAL_RCC_SPI1_CLK_ENABLE();
 80034fa:	4b46      	ldr	r3, [pc, #280]	@ (8003614 <HAL_SPI_MspInit+0x13c>)
 80034fc:	699b      	ldr	r3, [r3, #24]
 80034fe:	4a45      	ldr	r2, [pc, #276]	@ (8003614 <HAL_SPI_MspInit+0x13c>)
 8003500:	f443 5380 	orr.w	r3, r3, #4096	@ 0x1000
 8003504:	6193      	str	r3, [r2, #24]
 8003506:	4b43      	ldr	r3, [pc, #268]	@ (8003614 <HAL_SPI_MspInit+0x13c>)
 8003508:	699b      	ldr	r3, [r3, #24]
 800350a:	f403 5380 	and.w	r3, r3, #4096	@ 0x1000
 800350e:	60fb      	str	r3, [r7, #12]
 8003510:	68fb      	ldr	r3, [r7, #12]

    __HAL_RCC_GPIOA_CLK_ENABLE();
 8003512:	4b40      	ldr	r3, [pc, #256]	@ (8003614 <HAL_SPI_MspInit+0x13c>)
 8003514:	699b      	ldr	r3, [r3, #24]
 8003516:	4a3f      	ldr	r2, [pc, #252]	@ (8003614 <HAL_SPI_MspInit+0x13c>)
 8003518:	f043 0304 	orr.w	r3, r3, #4
 800351c:	6193      	str	r3, [r2, #24]
 800351e:	4b3d      	ldr	r3, [pc, #244]	@ (8003614 <HAL_SPI_MspInit+0x13c>)
 8003520:	699b      	ldr	r3, [r3, #24]
 8003522:	f003 0304 	and.w	r3, r3, #4
 8003526:	60bb      	str	r3, [r7, #8]
 8003528:	68bb      	ldr	r3, [r7, #8]
    /**SPI1 GPIO Configuration
    PA5     ------> SPI1_SCK
    PA6     ------> SPI1_MISO
    PA7     ------> SPI1_MOSI
    */
    GPIO_InitStruct.Pin = GPIO_PIN_5|GPIO_PIN_7;
 800352a:	23a0      	movs	r3, #160	@ 0xa0
 800352c:	613b      	str	r3, [r7, #16]
    GPIO_InitStruct.Mode = GPIO_MODE_AF_PP;
 800352e:	2302      	movs	r3, #2
 8003530:	617b      	str	r3, [r7, #20]
    GPIO_InitStruct.Speed = GPIO_SPEED_FREQ_HIGH;
 8003532:	2303      	movs	r3, #3
 8003534:	61fb      	str	r3, [r7, #28]
    HAL_GPIO_Init(GPIOA, &GPIO_InitStruct);
 8003536:	f107 0310 	add.w	r3, r7, #16
 800353a:	4619      	mov	r1, r3
 800353c:	4836      	ldr	r0, [pc, #216]	@ (8003618 <HAL_SPI_MspInit+0x140>)
 800353e:	f000 fdd7 	bl	80040f0 <HAL_GPIO_Init>

    GPIO_InitStruct.Pin = GPIO_PIN_6;
 8003542:	2340      	movs	r3, #64	@ 0x40
 8003544:	613b      	str	r3, [r7, #16]
    GPIO_InitStruct.Mode = GPIO_MODE_INPUT;
 8003546:	2300      	movs	r3, #0
 8003548:	617b      	str	r3, [r7, #20]
    GPIO_InitStruct.Pull = GPIO_NOPULL;
 800354a:	2300      	movs	r3, #0
 800354c:	61bb      	str	r3, [r7, #24]
    HAL_GPIO_Init(GPIOA, &GPIO_InitStruct);
 800354e:	f107 0310 	add.w	r3, r7, #16
 8003552:	4619      	mov	r1, r3
 8003554:	4830      	ldr	r0, [pc, #192]	@ (8003618 <HAL_SPI_MspInit+0x140>)
 8003556:	f000 fdcb 	bl	80040f0 <HAL_GPIO_Init>

    /* SPI1 DMA Init */
    /* SPI1_RX Init */
    hdma_spi1_rx.Instance = DMA1_Channel2;
 800355a:	4b30      	ldr	r3, [pc, #192]	@ (800361c <HAL_SPI_MspInit+0x144>)
 800355c:	4a30      	ldr	r2, [pc, #192]	@ (8003620 <HAL_SPI_MspInit+0x148>)
 800355e:	601a      	str	r2, [r3, #0]
    hdma_spi1_rx.Init.Direction = DMA_PERIPH_TO_MEMORY;
 8003560:	4b2e      	ldr	r3, [pc, #184]	@ (800361c <HAL_SPI_MspInit+0x144>)
 8003562:	2200      	movs	r2, #0
 8003564:	605a      	str	r2, [r3, #4]
    hdma_spi1_rx.Init.PeriphInc = DMA_PINC_DISABLE;
 8003566:	4b2d      	ldr	r3, [pc, #180]	@ (800361c <HAL_SPI_MspInit+0x144>)
 8003568:	2200      	movs	r2, #0
 800356a:	609a      	str	r2, [r3, #8]
    hdma_spi1_rx.Init.MemInc = DMA_MINC_ENABLE;
 800356c:	4b2b      	ldr	r3, [pc, #172]	@ (800361c <HAL_SPI_MspInit+0x144>)
 800356e:	2280      	movs	r2, #128	@ 0x80
 8003570:	60da      	str	r2, [r3, #12]
    hdma_spi1_rx.Init.PeriphDataAlignment = DMA_PDATAALIGN_BYTE;
 8003572:	4b2a      	ldr	r3, [pc, #168]	@ (800361c <HAL_SPI_MspInit+0x144>)
 8003574:	2200      	movs	r2, #0
 8003576:	611a      	str	r2, [r3, #16]
    hdma_spi1_rx.Init.MemDataAlignment = DMA_MDATAALIGN_BYTE;
 8003578:	4b28      	ldr	r3, [pc, #160]	@ (800361c <HAL_SPI_MspInit+0x144>)
 800357a:	2200      	movs	r2, #0
 800357c:	615a      	str	r2, [r3, #20]
    hdma_spi1_rx.Init.Mode = DMA_NORMAL;
 800357e:	4b27      	ldr	r3, [pc, #156]	@ (800361c <HAL_SPI_MspInit+0x144>)
 8003580:	2200      	movs	r2, #0
 8003582:	619a      	str	r2, [r3, #24]
    hdma_spi1_rx.Init.Priority = DMA_PRIORITY_HIGH;
 8003584:	4b25      	ldr	r3, [pc, #148]	@ (800361c <HAL_SPI_MspInit+0x144>)
 8003586:	f44f 5200 	mov.w	r2, #8192	@ 0x2000
 800358a:	61da      	str	r2, [r3, #28]
    if (HAL_DMA_Init(&hdma_spi1_rx) != HAL_OK)
 800358c:	4823      	ldr	r0, [pc, #140]	@ (800361c <HAL_SPI_MspInit+0x144>)
 800358e:	f000 fbd7 	bl	8003d40 <HAL_DMA_Init>
 8003592:	4603      	mov	r3, r0
 8003594:	2b00      	cmp	r3, #0
 8003596:	d001      	beq.n	800359c <HAL_SPI_MspInit+0xc4>
    {
      Error_Handler();
 8003598:	f7ff ff66 	bl	8003468 <Error_Handler>
    }

    __HAL_LINKDMA(hspi,hdmarx,hdma_spi1_rx);
 800359c:	687b      	ldr	r3, [r7, #4]
 800359e:	4a1f      	ldr	r2, [pc, #124]	@ (800361c <HAL_SPI_MspInit+0x144>)
 80035a0:	64da      	str	r2, [r3, #76]	@ 0x4c
 80035a2:	4a1e      	ldr	r2, [pc, #120]	@ (800361c <HAL_SPI_MspInit+0x144>)
 80035a4:	687b      	ldr	r3, [r7, #4]
 80035a6:	6253      	str	r3, [r2, #36]	@ 0x24

    /* SPI1_TX Init */
    hdma_spi1_tx.Instance = DMA1_Channel3;
 80035a8:	4b1e      	ldr	r3, [pc, #120]	@ (8003624 <HAL_SPI_MspInit+0x14c>)
 80035aa:	4a1f      	ldr	r2, [pc, #124]	@ (8003628 <HAL_SPI_MspInit+0x150>)
 80035ac:	601a      	str	r2, [r3, #0]
    hdma_spi1_tx.Init.Direction = DMA_MEMORY_TO_PERIPH;
 80035ae:	4b1d      	ldr	r3, [pc, #116]	@ (8003624 <HAL_SPI_MspInit+0x14c>)
 80035b0:	2210      	movs	r2, #16
 80035b2:	605a      	str	r2, [r3, #4]
    hdma_spi1_tx.Init.PeriphInc = DMA_PINC_DISABLE;
 80035b4:	4b1b      	ldr	r3, [pc, #108]	@ (8003624 <HAL_SPI_MspInit+0x14c>)
 80035b6:	2200      	movs	r2, #0
 80035b8:	609a      	str	r2, [r3, #8]
    hdma_spi1_tx.Init.MemInc = DMA_MINC_ENABLE;
 80035ba:	4b1a      	ldr	r3, [pc, #104]	@ (8003624 <HAL_SPI_MspInit+0x14c>)
 80035bc:	2280      	movs	r2, #128	@ 0x80
 80035be:	60da      	str	r2, [r3, #12]
    hdma_spi1_tx.Init.PeriphDataAlignment = DMA_PDATAALIGN_BYTE;
 80035c0:	4b18      	ldr	r3, [pc, #96]	@ (8003624 <HAL_SPI_MspInit+0x14c>)
 80035c2:	2200      	movs	r2, #0
 80035c4:	611a      	str	r2, [r3, #16]
    hdma_spi1_tx.Init.MemDataAlignment = DMA_MDATAALIGN_BYTE;
 80035c6:	4b17      	ldr	r3, [pc, #92]	@ (8003624 <HAL_SPI_MspInit+0x14c>)
 80035c8:	2200      	movs	r2, #0
 80035ca:	615a      	str	r2, [r3, #20]
    hdma_spi1_tx.Init.Mode = DMA_NORMAL;
 80035cc:	4b15      	ldr	r3, [pc, #84]	@ (8003624 <HAL_SPI_MspInit+0x14c>)
 80035ce:	2200      	movs	r2, #0
 80035d0:	619a      	str	r2, [r3, #24]
    hdma_spi1_tx.Init.Priority = DMA_PRIORITY_HIGH;
 80035d2:	4b14      	ldr	r3, [pc, #80]	@ (8003624 <HAL_SPI_MspInit+0x14c>)
 80035d4:	f44f 5200 	mov.w	r2, #8192	@ 0x2000
 80035d8:	61da      	str	r2, [r3, #28]
    if (HAL_DMA_Init(&hdma_spi1_tx) != HAL_OK)
 80035da:	4812      	ldr	r0, [pc, #72]	@ (8003624 <HAL_SPI_MspInit+0x14c>)
 80035dc:	f000 fbb0 	bl	8003d40 <HAL_DMA_Init>
 80035e0:	4603      	mov	r3, r0
 80035e2:	2b00      	cmp	r3, #0
 80035e4:	d001      	beq.n	80035ea <HAL_SPI_MspInit+0x112>
    {
      Error_Handler();
 80035e6:	f7ff ff3f 	bl	8003468 <Error_Handler>
    }

    __HAL_LINKDMA(hspi,hdmatx,hdma_spi1_tx);
 80035ea:	687b      	ldr	r3, [r7, #4]
 80035ec:	4a0d      	ldr	r2, [pc, #52]	@ (8003624 <HAL_SPI_MspInit+0x14c>)
 80035ee:	649a      	str	r2, [r3, #72]	@ 0x48
 80035f0:	4a0c      	ldr	r2, [pc, #48]	@ (8003624 <HAL_SPI_MspInit+0x14c>)
 80035f2:	687b      	ldr	r3, [r7, #4]
 80035f4:	6253      	str	r3, [r2, #36]	@ 0x24

    /* SPI1 interrupt Init */
    HAL_NVIC_SetPriority(SPI1_IRQn, 0, 0);
 80035f6:	2200      	movs	r2, #0
 80035f8:	2100      	movs	r1, #0
 80035fa:	2023      	movs	r0, #35	@ 0x23
 80035fc:	f000 fb69 	bl	8003cd2 <HAL_NVIC_SetPriority>
    HAL_NVIC_EnableIRQ(SPI1_IRQn);
 8003600:	2023      	movs	r0, #35	@ 0x23
 8003602:	f000 fb82 	bl	8003d0a <HAL_NVIC_EnableIRQ>

  /* USER CODE END SPI1_MspInit 1 */

  }

}
 8003606:	bf00      	nop
 8003608:	3720      	adds	r7, #32
 800360a:	46bd      	mov	sp, r7
 800360c:	bd80      	pop	{r7, pc}
 800360e:	bf00      	nop
 8003610:	40013000 	.word	0x40013000
 8003614:	40021000 	.word	0x40021000
 8003618:	40010800 	.word	0x40010800
 800361c:	200002a4 	.word	0x200002a4
 8003620:	4002001c 	.word	0x4002001c
 8003624:	200002e8 	.word	0x200002e8
 8003628:	40020030 	.word	0x40020030

0800362c <HAL_TIM_PWM_MspInit>:
* This function configures the hardware resources used in this example
* @param htim_pwm: TIM_PWM handle pointer
* @retval None
*/
void HAL_TIM_PWM_MspInit(TIM_HandleTypeDef* htim_pwm)
{
 800362c:	b580      	push	{r7, lr}
 800362e:	b084      	sub	sp, #16
 8003630:	af00      	add	r7, sp, #0
 8003632:	6078      	str	r0, [r7, #4]
  if(htim_pwm->Instance==TIM3)
 8003634:	687b      	ldr	r3, [r7, #4]
 8003636:	681b      	ldr	r3, [r3, #0]
 8003638:	4a0d      	ldr	r2, [pc, #52]	@ (8003670 <HAL_TIM_PWM_MspInit+0x44>)
 800363a:	4293      	cmp	r3, r2
 800363c:	d113      	bne.n	8003666 <HAL_TIM_PWM_MspInit+0x3a>
  {
  /* USER CODE BEGIN TIM3_MspInit 0 */

  /* USER CODE END TIM3_MspInit 0 */
    /* Peripheral clock enable */
    __HAL_RCC_TIM3_CLK_ENABLE();
 800363e:	4b0d      	ldr	r3, [pc, #52]	@ (8003674 <HAL_TIM_PWM_MspInit+0x48>)
 8003640:	69db      	ldr	r3, [r3, #28]
 8003642:	4a0c      	ldr	r2, [pc, #48]	@ (8003674 <HAL_TIM_PWM_MspInit+0x48>)
 8003644:	f043 0302 	orr.w	r3, r3, #2
 8003648:	61d3      	str	r3, [r2, #28]
 800364a:	4b0a      	ldr	r3, [pc, #40]	@ (8003674 <HAL_TIM_PWM_MspInit+0x48>)
 800364c:	69db      	ldr	r3, [r3, #28]
 800364e:	f003 0302 	and.w	r3, r3, #2
 8003652:	60fb      	str	r3, [r7, #12]
 8003654:	68fb      	ldr	r3, [r7, #12]
    /* TIM3 interrupt Init */
    HAL_NVIC_SetPriority(TIM3_IRQn, 0, 0);
 8003656:	2200      	movs	r2, #0
 8003658:	2100      	movs	r1, #0
 800365a:	201d      	movs	r0, #29
 800365c:	f000 fb39 	bl	8003cd2 <HAL_NVIC_SetPriority>
    HAL_NVIC_EnableIRQ(TIM3_IRQn);
 8003660:	201d      	movs	r0, #29
 8003662:	f000 fb52 	bl	8003d0a <HAL_NVIC_EnableIRQ>

  /* USER CODE END TIM3_MspInit 1 */

  }

}
 8003666:	bf00      	nop
 8003668:	3710      	adds	r7, #16
 800366a:	46bd      	mov	sp, r7
 800366c:	bd80      	pop	{r7, pc}
 800366e:	bf00      	nop
 8003670:	40000400 	.word	0x40000400
 8003674:	40021000 	.word	0x40021000

08003678 <HAL_TIM_MspPostInit>:

void HAL_TIM_MspPostInit(TIM_HandleTypeDef* htim)
{
 8003678:	b580      	push	{r7, lr}
 800367a:	b088      	sub	sp, #32
 800367c:	af00      	add	r7, sp, #0
 800367e:	6078      	str	r0, [r7, #4]
  GPIO_InitTypeDef GPIO_InitStruct = {0};
 8003680:	f107 030c 	add.w	r3, r7, #12
 8003684:	2200      	movs	r2, #0
 8003686:	601a      	str	r2, [r3, #0]
 8003688:	605a      	str	r2, [r3, #4]
 800368a:	609a      	str	r2, [r3, #8]
 800368c:	60da      	str	r2, [r3, #12]
  if(htim->Instance==TIM3)
 800368e:	687b      	ldr	r3, [r7, #4]
 8003690:	681b      	ldr	r3, [r3, #0]
 8003692:	4a18      	ldr	r2, [pc, #96]	@ (80036f4 <HAL_TIM_MspPostInit+0x7c>)
 8003694:	4293      	cmp	r3, r2
 8003696:	d129      	bne.n	80036ec <HAL_TIM_MspPostInit+0x74>
  {
  /* USER CODE BEGIN TIM3_MspPostInit 0 */

  /* USER CODE END TIM3_MspPostInit 0 */

    __HAL_RCC_GPIOC_CLK_ENABLE();
 8003698:	4b17      	ldr	r3, [pc, #92]	@ (80036f8 <HAL_TIM_MspPostInit+0x80>)
 800369a:	699b      	ldr	r3, [r3, #24]
 800369c:	4a16      	ldr	r2, [pc, #88]	@ (80036f8 <HAL_TIM_MspPostInit+0x80>)
 800369e:	f043 0310 	orr.w	r3, r3, #16
 80036a2:	6193      	str	r3, [r2, #24]
 80036a4:	4b14      	ldr	r3, [pc, #80]	@ (80036f8 <HAL_TIM_MspPostInit+0x80>)
 80036a6:	699b      	ldr	r3, [r3, #24]
 80036a8:	f003 0310 	and.w	r3, r3, #16
 80036ac:	60bb      	str	r3, [r7, #8]
 80036ae:	68bb      	ldr	r3, [r7, #8]
    /**TIM3 GPIO Configuration
    PC7     ------> TIM3_CH2
    */
    GPIO_InitStruct.Pin = GPIO_PIN_7;
 80036b0:	2380      	movs	r3, #128	@ 0x80
 80036b2:	60fb      	str	r3, [r7, #12]
    GPIO_InitStruct.Mode = GPIO_MODE_AF_PP;
 80036b4:	2302      	movs	r3, #2
 80036b6:	613b      	str	r3, [r7, #16]
    GPIO_InitStruct.Speed = GPIO_SPEED_FREQ_LOW;
 80036b8:	2302      	movs	r3, #2
 80036ba:	61bb      	str	r3, [r7, #24]
    HAL_GPIO_Init(GPIOC, &GPIO_InitStruct);
 80036bc:	f107 030c 	add.w	r3, r7, #12
 80036c0:	4619      	mov	r1, r3
 80036c2:	480e      	ldr	r0, [pc, #56]	@ (80036fc <HAL_TIM_MspPostInit+0x84>)
 80036c4:	f000 fd14 	bl	80040f0 <HAL_GPIO_Init>

    __HAL_AFIO_REMAP_TIM3_ENABLE();
 80036c8:	4b0d      	ldr	r3, [pc, #52]	@ (8003700 <HAL_TIM_MspPostInit+0x88>)
 80036ca:	685b      	ldr	r3, [r3, #4]
 80036cc:	61fb      	str	r3, [r7, #28]
 80036ce:	69fb      	ldr	r3, [r7, #28]
 80036d0:	f423 6340 	bic.w	r3, r3, #3072	@ 0xc00
 80036d4:	61fb      	str	r3, [r7, #28]
 80036d6:	69fb      	ldr	r3, [r7, #28]
 80036d8:	f043 63e0 	orr.w	r3, r3, #117440512	@ 0x7000000
 80036dc:	61fb      	str	r3, [r7, #28]
 80036de:	69fb      	ldr	r3, [r7, #28]
 80036e0:	f443 6340 	orr.w	r3, r3, #3072	@ 0xc00
 80036e4:	61fb      	str	r3, [r7, #28]
 80036e6:	4a06      	ldr	r2, [pc, #24]	@ (8003700 <HAL_TIM_MspPostInit+0x88>)
 80036e8:	69fb      	ldr	r3, [r7, #28]
 80036ea:	6053      	str	r3, [r2, #4]
  /* USER CODE BEGIN TIM3_MspPostInit 1 */

  /* USER CODE END TIM3_MspPostInit 1 */
  }

}
 80036ec:	bf00      	nop
 80036ee:	3720      	adds	r7, #32
 80036f0:	46bd      	mov	sp, r7
 80036f2:	bd80      	pop	{r7, pc}
 80036f4:	40000400 	.word	0x40000400
 80036f8:	40021000 	.word	0x40021000
 80036fc:	40011000 	.word	0x40011000
 8003700:	40010000 	.word	0x40010000

08003704 <NMI_Handler>:
/******************************************************************************/
/**
  * @brief This function handles Non maskable interrupt.
  */
void NMI_Handler(void)
{
 8003704:	b480      	push	{r7}
 8003706:	af00      	add	r7, sp, #0
  /* USER CODE BEGIN NonMaskableInt_IRQn 0 */

  /* USER CODE END NonMaskableInt_IRQn 0 */
  /* USER CODE BEGIN NonMaskableInt_IRQn 1 */
   while (1)
 8003708:	bf00      	nop
 800370a:	e7fd      	b.n	8003708 <NMI_Handler+0x4>

0800370c <HardFault_Handler>:

/**
  * @brief This function handles Hard fault interrupt.
  */
void HardFault_Handler(void)
{
 800370c:	b480      	push	{r7}
 800370e:	af00      	add	r7, sp, #0
  /* USER CODE BEGIN HardFault_IRQn 0 */

  /* USER CODE END HardFault_IRQn 0 */
  while (1)
 8003710:	bf00      	nop
 8003712:	e7fd      	b.n	8003710 <HardFault_Handler+0x4>

08003714 <MemManage_Handler>:

/**
  * @brief This function handles Memory management fault.
  */
void MemManage_Handler(void)
{
 8003714:	b480      	push	{r7}
 8003716:	af00      	add	r7, sp, #0
  /* USER CODE BEGIN MemoryManagement_IRQn 0 */

  /* USER CODE END MemoryManagement_IRQn 0 */
  while (1)
 8003718:	bf00      	nop
 800371a:	e7fd      	b.n	8003718 <MemManage_Handler+0x4>

0800371c <BusFault_Handler>:

/**
  * @brief This function handles Prefetch fault, memory access fault.
  */
void BusFault_Handler(void)
{
 800371c:	b480      	push	{r7}
 800371e:	af00      	add	r7, sp, #0
  /* USER CODE BEGIN BusFault_IRQn 0 */

  /* USER CODE END BusFault_IRQn 0 */
  while (1)
 8003720:	bf00      	nop
 8003722:	e7fd      	b.n	8003720 <BusFault_Handler+0x4>

08003724 <UsageFault_Handler>:

/**
  * @brief This function handles Undefined instruction or illegal state.
  */
void UsageFault_Handler(void)
{
 8003724:	b480      	push	{r7}
 8003726:	af00      	add	r7, sp, #0
  /* USER CODE BEGIN UsageFault_IRQn 0 */

  /* USER CODE END UsageFault_IRQn 0 */
  while (1)
 8003728:	bf00      	nop
 800372a:	e7fd      	b.n	8003728 <UsageFault_Handler+0x4>

0800372c <SVC_Handler>:

/**
  * @brief This function handles System service call via SWI instruction.
  */
void SVC_Handler(void)
{
 800372c:	b480      	push	{r7}
 800372e:	af00      	add	r7, sp, #0

  /* USER CODE END SVCall_IRQn 0 */
  /* USER CODE BEGIN SVCall_IRQn 1 */

  /* USER CODE END SVCall_IRQn 1 */
}
 8003730:	bf00      	nop
 8003732:	46bd      	mov	sp, r7
 8003734:	bc80      	pop	{r7}
 8003736:	4770      	bx	lr

08003738 <DebugMon_Handler>:

/**
  * @brief This function handles Debug monitor.
  */
void DebugMon_Handler(void)
{
 8003738:	b480      	push	{r7}
 800373a:	af00      	add	r7, sp, #0

  /* USER CODE END DebugMonitor_IRQn 0 */
  /* USER CODE BEGIN DebugMonitor_IRQn 1 */

  /* USER CODE END DebugMonitor_IRQn 1 */
}
 800373c:	bf00      	nop
 800373e:	46bd      	mov	sp, r7
 8003740:	bc80      	pop	{r7}
 8003742:	4770      	bx	lr

08003744 <PendSV_Handler>:

/**
  * @brief This function handles Pendable request for system service.
  */
void PendSV_Handler(void)
{
 8003744:	b480      	push	{r7}
 8003746:	af00      	add	r7, sp, #0

  /* USER CODE END PendSV_IRQn 0 */
  /* USER CODE BEGIN PendSV_IRQn 1 */

  /* USER CODE END PendSV_IRQn 1 */
}
 8003748:	bf00      	nop
 800374a:	46bd      	mov	sp, r7
 800374c:	bc80      	pop	{r7}
 800374e:	4770      	bx	lr

08003750 <SysTick_Handler>:

/**
  * @brief This function handles System tick timer.
  */
void SysTick_Handler(void)
{
 8003750:	b580      	push	{r7, lr}
 8003752:	af00      	add	r7, sp, #0
  /* USER CODE BEGIN SysTick_IRQn 0 */

  /* USER CODE END SysTick_IRQn 0 */
  HAL_IncTick();
 8003754:	f000 f9a6 	bl	8003aa4 <HAL_IncTick>
  /* USER CODE BEGIN SysTick_IRQn 1 */

  /* USER CODE END SysTick_IRQn 1 */
}
 8003758:	bf00      	nop
 800375a:	bd80      	pop	{r7, pc}

0800375c <DMA1_Channel2_IRQHandler>:

/**
  * @brief This function handles DMA1 channel2 global interrupt.
  */
void DMA1_Channel2_IRQHandler(void)
{
 800375c:	b580      	push	{r7, lr}
 800375e:	af00      	add	r7, sp, #0
  /* USER CODE BEGIN DMA1_Channel2_IRQn 0 */

  /* USER CODE END DMA1_Channel2_IRQn 0 */
  HAL_DMA_IRQHandler(&hdma_spi1_rx);
 8003760:	4802      	ldr	r0, [pc, #8]	@ (800376c <DMA1_Channel2_IRQHandler+0x10>)
 8003762:	f000 fbbf 	bl	8003ee4 <HAL_DMA_IRQHandler>
  /* USER CODE BEGIN DMA1_Channel2_IRQn 1 */
  /* USER CODE END DMA1_Channel2_IRQn 1 */
}
 8003766:	bf00      	nop
 8003768:	bd80      	pop	{r7, pc}
 800376a:	bf00      	nop
 800376c:	200002a4 	.word	0x200002a4

08003770 <DMA1_Channel3_IRQHandler>:

/**
  * @brief This function handles DMA1 channel3 global interrupt.
  */
void DMA1_Channel3_IRQHandler(void)
{
 8003770:	b580      	push	{r7, lr}
 8003772:	af00      	add	r7, sp, #0
  /* USER CODE BEGIN DMA1_Channel3_IRQn 0 */

  /* USER CODE END DMA1_Channel3_IRQn 0 */
  HAL_DMA_IRQHandler(&hdma_spi1_tx);
 8003774:	4802      	ldr	r0, [pc, #8]	@ (8003780 <DMA1_Channel3_IRQHandler+0x10>)
 8003776:	f000 fbb5 	bl	8003ee4 <HAL_DMA_IRQHandler>
  /* USER CODE BEGIN DMA1_Channel3_IRQn 1 */
  /* USER CODE END DMA1_Channel3_IRQn 1 */
}
 800377a:	bf00      	nop
 800377c:	bd80      	pop	{r7, pc}
 800377e:	bf00      	nop
 8003780:	200002e8 	.word	0x200002e8

08003784 <TIM3_IRQHandler>:

/**
  * @brief This function handles TIM3 global interrupt.
  */
void TIM3_IRQHandler(void)
{
 8003784:	b580      	push	{r7, lr}
 8003786:	af00      	add	r7, sp, #0
  /* USER CODE BEGIN TIM3_IRQn 0 */

  /* USER CODE END TIM3_IRQn 0 */
  HAL_TIM_IRQHandler(&htim3);
 8003788:	4807      	ldr	r0, [pc, #28]	@ (80037a8 <TIM3_IRQHandler+0x24>)
 800378a:	f001 ff6b 	bl	8005664 <HAL_TIM_IRQHandler>
  /* USER CODE BEGIN TIM3_IRQn 1 */
  if(irqHandlers.tim3.func != NULL)
 800378e:	4b07      	ldr	r3, [pc, #28]	@ (80037ac <TIM3_IRQHandler+0x28>)
 8003790:	681b      	ldr	r3, [r3, #0]
 8003792:	2b00      	cmp	r3, #0
 8003794:	d005      	beq.n	80037a2 <TIM3_IRQHandler+0x1e>
  {
	  irqHandlers.tim3.func(irqHandlers.tim3.userptr);
 8003796:	4b05      	ldr	r3, [pc, #20]	@ (80037ac <TIM3_IRQHandler+0x28>)
 8003798:	681b      	ldr	r3, [r3, #0]
 800379a:	4a04      	ldr	r2, [pc, #16]	@ (80037ac <TIM3_IRQHandler+0x28>)
 800379c:	6852      	ldr	r2, [r2, #4]
 800379e:	4610      	mov	r0, r2
 80037a0:	4798      	blx	r3
  }
  //timIrqHandlers.irq_handlers[0].func(timIrqHandlers.irq_handlers[0].userptr);
  /* USER CODE END TIM3_IRQn 1 */
}
 80037a2:	bf00      	nop
 80037a4:	bd80      	pop	{r7, pc}
 80037a6:	bf00      	nop
 80037a8:	2000032c 	.word	0x2000032c
 80037ac:	20000374 	.word	0x20000374

080037b0 <SPI1_IRQHandler>:

/**
  * @brief This function handles SPI1 global interrupt.
  */
void SPI1_IRQHandler(void)
{
 80037b0:	b580      	push	{r7, lr}
 80037b2:	af00      	add	r7, sp, #0
  /* USER CODE BEGIN SPI1_IRQn 0 */

  /* USER CODE END SPI1_IRQn 0 */
  HAL_SPI_IRQHandler(&hspi1);
 80037b4:	4802      	ldr	r0, [pc, #8]	@ (80037c0 <SPI1_IRQHandler+0x10>)
 80037b6:	f001 fc65 	bl	8005084 <HAL_SPI_IRQHandler>
  /* USER CODE BEGIN SPI1_IRQn 1 */

  /* USER CODE END SPI1_IRQn 1 */
}
 80037ba:	bf00      	nop
 80037bc:	bd80      	pop	{r7, pc}
 80037be:	bf00      	nop
 80037c0:	2000024c 	.word	0x2000024c

080037c4 <EXTI15_10_IRQHandler>:

/**
  * @brief This function handles EXTI line[15:10] interrupts.
  */
void EXTI15_10_IRQHandler(void)
{
 80037c4:	b580      	push	{r7, lr}
 80037c6:	af00      	add	r7, sp, #0
  /* USER CODE BEGIN EXTI15_10_IRQn 0 */

  /* USER CODE END EXTI15_10_IRQn 0 */
  HAL_GPIO_EXTI_IRQHandler(GPIO_PIN_10);
 80037c8:	f44f 6080 	mov.w	r0, #1024	@ 0x400
 80037cc:	f000 fe2c 	bl	8004428 <HAL_GPIO_EXTI_IRQHandler>
  /* USER CODE BEGIN EXTI15_10_IRQn 1 */
  if(irqHandlers.irq.func != NULL && irqHandlers.irq.enabled)
 80037d0:	4b06      	ldr	r3, [pc, #24]	@ (80037ec <EXTI15_10_IRQHandler+0x28>)
 80037d2:	689b      	ldr	r3, [r3, #8]
 80037d4:	2b00      	cmp	r3, #0
 80037d6:	d006      	beq.n	80037e6 <EXTI15_10_IRQHandler+0x22>
 80037d8:	4b04      	ldr	r3, [pc, #16]	@ (80037ec <EXTI15_10_IRQHandler+0x28>)
 80037da:	68db      	ldr	r3, [r3, #12]
 80037dc:	2b00      	cmp	r3, #0
 80037de:	d002      	beq.n	80037e6 <EXTI15_10_IRQHandler+0x22>
  {
	  irqHandlers.irq.func();
 80037e0:	4b02      	ldr	r3, [pc, #8]	@ (80037ec <EXTI15_10_IRQHandler+0x28>)
 80037e2:	689b      	ldr	r3, [r3, #8]
 80037e4:	4798      	blx	r3
  }
  /* USER CODE END EXTI15_10_IRQn 1 */
}
 80037e6:	bf00      	nop
 80037e8:	bd80      	pop	{r7, pc}
 80037ea:	bf00      	nop
 80037ec:	20000374 	.word	0x20000374

080037f0 <ITM_SendChar>:
#define ITM_STIMULUS_PORT0  *((volatile uint32_t*) 0xE0000000)
#define ITM_TRACE_EN        *((volatile uint32_t*) 0xE0000E00)


void ITM_SendChar(uint8_t ch)
{
 80037f0:	b480      	push	{r7}
 80037f2:	b083      	sub	sp, #12
 80037f4:	af00      	add	r7, sp, #0
 80037f6:	4603      	mov	r3, r0
 80037f8:	71fb      	strb	r3, [r7, #7]
    DEMCR |=(1<<24);
 80037fa:	4b0e      	ldr	r3, [pc, #56]	@ (8003834 <ITM_SendChar+0x44>)
 80037fc:	681b      	ldr	r3, [r3, #0]
 80037fe:	4a0d      	ldr	r2, [pc, #52]	@ (8003834 <ITM_SendChar+0x44>)
 8003800:	f043 7380 	orr.w	r3, r3, #16777216	@ 0x1000000
 8003804:	6013      	str	r3, [r2, #0]

    ITM_TRACE_EN |= (1<<0);
 8003806:	4b0c      	ldr	r3, [pc, #48]	@ (8003838 <ITM_SendChar+0x48>)
 8003808:	681b      	ldr	r3, [r3, #0]
 800380a:	4a0b      	ldr	r2, [pc, #44]	@ (8003838 <ITM_SendChar+0x48>)
 800380c:	f043 0301 	orr.w	r3, r3, #1
 8003810:	6013      	str	r3, [r2, #0]

    while(!(ITM_STIMULUS_PORT0 & 1));
 8003812:	bf00      	nop
 8003814:	f04f 4360 	mov.w	r3, #3758096384	@ 0xe0000000
 8003818:	681b      	ldr	r3, [r3, #0]
 800381a:	f003 0301 	and.w	r3, r3, #1
 800381e:	2b00      	cmp	r3, #0
 8003820:	d0f8      	beq.n	8003814 <ITM_SendChar+0x24>


    ITM_STIMULUS_PORT0 = ch;
 8003822:	f04f 4260 	mov.w	r2, #3758096384	@ 0xe0000000
 8003826:	79fb      	ldrb	r3, [r7, #7]
 8003828:	6013      	str	r3, [r2, #0]
}
 800382a:	bf00      	nop
 800382c:	370c      	adds	r7, #12
 800382e:	46bd      	mov	sp, r7
 8003830:	bc80      	pop	{r7}
 8003832:	4770      	bx	lr
 8003834:	e000edfc 	.word	0xe000edfc
 8003838:	e0000e00 	.word	0xe0000e00

0800383c <_getpid>:
void initialise_monitor_handles()
{
}

int _getpid(void)
{
 800383c:	b480      	push	{r7}
 800383e:	af00      	add	r7, sp, #0
  return 1;
 8003840:	2301      	movs	r3, #1
}
 8003842:	4618      	mov	r0, r3
 8003844:	46bd      	mov	sp, r7
 8003846:	bc80      	pop	{r7}
 8003848:	4770      	bx	lr

0800384a <_kill>:

int _kill(int pid, int sig)
{
 800384a:	b580      	push	{r7, lr}
 800384c:	b082      	sub	sp, #8
 800384e:	af00      	add	r7, sp, #0
 8003850:	6078      	str	r0, [r7, #4]
 8003852:	6039      	str	r1, [r7, #0]
  (void)pid;
  (void)sig;
  errno = EINVAL;
 8003854:	f003 fa54 	bl	8006d00 <__errno>
 8003858:	4603      	mov	r3, r0
 800385a:	2216      	movs	r2, #22
 800385c:	601a      	str	r2, [r3, #0]
  return -1;
 800385e:	f04f 33ff 	mov.w	r3, #4294967295	@ 0xffffffff
}
 8003862:	4618      	mov	r0, r3
 8003864:	3708      	adds	r7, #8
 8003866:	46bd      	mov	sp, r7
 8003868:	bd80      	pop	{r7, pc}

0800386a <_exit>:

void _exit (int status)
{
 800386a:	b580      	push	{r7, lr}
 800386c:	b082      	sub	sp, #8
 800386e:	af00      	add	r7, sp, #0
 8003870:	6078      	str	r0, [r7, #4]
  _kill(status, -1);
 8003872:	f04f 31ff 	mov.w	r1, #4294967295	@ 0xffffffff
 8003876:	6878      	ldr	r0, [r7, #4]
 8003878:	f7ff ffe7 	bl	800384a <_kill>
  while (1) {}    /* Make sure we hang here */
 800387c:	bf00      	nop
 800387e:	e7fd      	b.n	800387c <_exit+0x12>

08003880 <_read>:
}

__attribute__((weak)) int _read(int file, char *ptr, int len)
{
 8003880:	b580      	push	{r7, lr}
 8003882:	b086      	sub	sp, #24
 8003884:	af00      	add	r7, sp, #0
 8003886:	60f8      	str	r0, [r7, #12]
 8003888:	60b9      	str	r1, [r7, #8]
 800388a:	607a      	str	r2, [r7, #4]
  (void)file;
  int DataIdx;

  for (DataIdx = 0; DataIdx < len; DataIdx++)
 800388c:	2300      	movs	r3, #0
 800388e:	617b      	str	r3, [r7, #20]
 8003890:	e00a      	b.n	80038a8 <_read+0x28>
  {
    *ptr++ = __io_getchar();
 8003892:	f3af 8000 	nop.w
 8003896:	4601      	mov	r1, r0
 8003898:	68bb      	ldr	r3, [r7, #8]
 800389a:	1c5a      	adds	r2, r3, #1
 800389c:	60ba      	str	r2, [r7, #8]
 800389e:	b2ca      	uxtb	r2, r1
 80038a0:	701a      	strb	r2, [r3, #0]
  for (DataIdx = 0; DataIdx < len; DataIdx++)
 80038a2:	697b      	ldr	r3, [r7, #20]
 80038a4:	3301      	adds	r3, #1
 80038a6:	617b      	str	r3, [r7, #20]
 80038a8:	697a      	ldr	r2, [r7, #20]
 80038aa:	687b      	ldr	r3, [r7, #4]
 80038ac:	429a      	cmp	r2, r3
 80038ae:	dbf0      	blt.n	8003892 <_read+0x12>
  }

  return len;
 80038b0:	687b      	ldr	r3, [r7, #4]
}
 80038b2:	4618      	mov	r0, r3
 80038b4:	3718      	adds	r7, #24
 80038b6:	46bd      	mov	sp, r7
 80038b8:	bd80      	pop	{r7, pc}

080038ba <_write>:
    __io_putchar(*ptr++);
  }
  return len;
}
*/
__attribute__((weak)) int _write(int file, char *ptr, int len) {
 80038ba:	b580      	push	{r7, lr}
 80038bc:	b086      	sub	sp, #24
 80038be:	af00      	add	r7, sp, #0
 80038c0:	60f8      	str	r0, [r7, #12]
 80038c2:	60b9      	str	r1, [r7, #8]
 80038c4:	607a      	str	r2, [r7, #4]
    for (int i = 0; i < len; i++) {
 80038c6:	2300      	movs	r3, #0
 80038c8:	617b      	str	r3, [r7, #20]
 80038ca:	e009      	b.n	80038e0 <_write+0x26>
        ITM_SendChar((*ptr++));
 80038cc:	68bb      	ldr	r3, [r7, #8]
 80038ce:	1c5a      	adds	r2, r3, #1
 80038d0:	60ba      	str	r2, [r7, #8]
 80038d2:	781b      	ldrb	r3, [r3, #0]
 80038d4:	4618      	mov	r0, r3
 80038d6:	f7ff ff8b 	bl	80037f0 <ITM_SendChar>
    for (int i = 0; i < len; i++) {
 80038da:	697b      	ldr	r3, [r7, #20]
 80038dc:	3301      	adds	r3, #1
 80038de:	617b      	str	r3, [r7, #20]
 80038e0:	697a      	ldr	r2, [r7, #20]
 80038e2:	687b      	ldr	r3, [r7, #4]
 80038e4:	429a      	cmp	r2, r3
 80038e6:	dbf1      	blt.n	80038cc <_write+0x12>
    }
    return len;
 80038e8:	687b      	ldr	r3, [r7, #4]
}
 80038ea:	4618      	mov	r0, r3
 80038ec:	3718      	adds	r7, #24
 80038ee:	46bd      	mov	sp, r7
 80038f0:	bd80      	pop	{r7, pc}

080038f2 <_close>:

int _close(int file)
{
 80038f2:	b480      	push	{r7}
 80038f4:	b083      	sub	sp, #12
 80038f6:	af00      	add	r7, sp, #0
 80038f8:	6078      	str	r0, [r7, #4]
  (void)file;
  return -1;
 80038fa:	f04f 33ff 	mov.w	r3, #4294967295	@ 0xffffffff
}
 80038fe:	4618      	mov	r0, r3
 8003900:	370c      	adds	r7, #12
 8003902:	46bd      	mov	sp, r7
 8003904:	bc80      	pop	{r7}
 8003906:	4770      	bx	lr

08003908 <_fstat>:


int _fstat(int file, struct stat *st)
{
 8003908:	b480      	push	{r7}
 800390a:	b083      	sub	sp, #12
 800390c:	af00      	add	r7, sp, #0
 800390e:	6078      	str	r0, [r7, #4]
 8003910:	6039      	str	r1, [r7, #0]
  (void)file;
  st->st_mode = S_IFCHR;
 8003912:	683b      	ldr	r3, [r7, #0]
 8003914:	f44f 5200 	mov.w	r2, #8192	@ 0x2000
 8003918:	605a      	str	r2, [r3, #4]
  return 0;
 800391a:	2300      	movs	r3, #0
}
 800391c:	4618      	mov	r0, r3
 800391e:	370c      	adds	r7, #12
 8003920:	46bd      	mov	sp, r7
 8003922:	bc80      	pop	{r7}
 8003924:	4770      	bx	lr

08003926 <_isatty>:

int _isatty(int file)
{
 8003926:	b480      	push	{r7}
 8003928:	b083      	sub	sp, #12
 800392a:	af00      	add	r7, sp, #0
 800392c:	6078      	str	r0, [r7, #4]
  (void)file;
  return 1;
 800392e:	2301      	movs	r3, #1
}
 8003930:	4618      	mov	r0, r3
 8003932:	370c      	adds	r7, #12
 8003934:	46bd      	mov	sp, r7
 8003936:	bc80      	pop	{r7}
 8003938:	4770      	bx	lr

0800393a <_lseek>:

int _lseek(int file, int ptr, int dir)
{
 800393a:	b480      	push	{r7}
 800393c:	b085      	sub	sp, #20
 800393e:	af00      	add	r7, sp, #0
 8003940:	60f8      	str	r0, [r7, #12]
 8003942:	60b9      	str	r1, [r7, #8]
 8003944:	607a      	str	r2, [r7, #4]
  (void)file;
  (void)ptr;
  (void)dir;
  return 0;
 8003946:	2300      	movs	r3, #0
}
 8003948:	4618      	mov	r0, r3
 800394a:	3714      	adds	r7, #20
 800394c:	46bd      	mov	sp, r7
 800394e:	bc80      	pop	{r7}
 8003950:	4770      	bx	lr
	...

08003954 <_sbrk>:
 *
 * @param incr Memory size
 * @return Pointer to allocated memory
 */
void *_sbrk(ptrdiff_t incr)
{
 8003954:	b580      	push	{r7, lr}
 8003956:	b086      	sub	sp, #24
 8003958:	af00      	add	r7, sp, #0
 800395a:	6078      	str	r0, [r7, #4]
  extern uint8_t _end; /* Symbol defined in the linker script */
  extern uint8_t _estack; /* Symbol defined in the linker script */
  extern uint32_t _Min_Stack_Size; /* Symbol defined in the linker script */
  const uint32_t stack_limit = (uint32_t)&_estack - (uint32_t)&_Min_Stack_Size;
 800395c:	4a14      	ldr	r2, [pc, #80]	@ (80039b0 <_sbrk+0x5c>)
 800395e:	4b15      	ldr	r3, [pc, #84]	@ (80039b4 <_sbrk+0x60>)
 8003960:	1ad3      	subs	r3, r2, r3
 8003962:	617b      	str	r3, [r7, #20]
  const uint8_t *max_heap = (uint8_t *)stack_limit;
 8003964:	697b      	ldr	r3, [r7, #20]
 8003966:	613b      	str	r3, [r7, #16]
  uint8_t *prev_heap_end;

  /* Initialize heap end at first call */
  if (NULL == __sbrk_heap_end)
 8003968:	4b13      	ldr	r3, [pc, #76]	@ (80039b8 <_sbrk+0x64>)
 800396a:	681b      	ldr	r3, [r3, #0]
 800396c:	2b00      	cmp	r3, #0
 800396e:	d102      	bne.n	8003976 <_sbrk+0x22>
  {
    __sbrk_heap_end = &_end;
 8003970:	4b11      	ldr	r3, [pc, #68]	@ (80039b8 <_sbrk+0x64>)
 8003972:	4a12      	ldr	r2, [pc, #72]	@ (80039bc <_sbrk+0x68>)
 8003974:	601a      	str	r2, [r3, #0]
  }

  /* Protect heap from growing into the reserved MSP stack */
  if (__sbrk_heap_end + incr > max_heap)
 8003976:	4b10      	ldr	r3, [pc, #64]	@ (80039b8 <_sbrk+0x64>)
 8003978:	681a      	ldr	r2, [r3, #0]
 800397a:	687b      	ldr	r3, [r7, #4]
 800397c:	4413      	add	r3, r2
 800397e:	693a      	ldr	r2, [r7, #16]
 8003980:	429a      	cmp	r2, r3
 8003982:	d207      	bcs.n	8003994 <_sbrk+0x40>
  {
    errno = ENOMEM;
 8003984:	f003 f9bc 	bl	8006d00 <__errno>
 8003988:	4603      	mov	r3, r0
 800398a:	220c      	movs	r2, #12
 800398c:	601a      	str	r2, [r3, #0]
    return (void *)-1;
 800398e:	f04f 33ff 	mov.w	r3, #4294967295	@ 0xffffffff
 8003992:	e009      	b.n	80039a8 <_sbrk+0x54>
  }

  prev_heap_end = __sbrk_heap_end;
 8003994:	4b08      	ldr	r3, [pc, #32]	@ (80039b8 <_sbrk+0x64>)
 8003996:	681b      	ldr	r3, [r3, #0]
 8003998:	60fb      	str	r3, [r7, #12]
  __sbrk_heap_end += incr;
 800399a:	4b07      	ldr	r3, [pc, #28]	@ (80039b8 <_sbrk+0x64>)
 800399c:	681a      	ldr	r2, [r3, #0]
 800399e:	687b      	ldr	r3, [r7, #4]
 80039a0:	4413      	add	r3, r2
 80039a2:	4a05      	ldr	r2, [pc, #20]	@ (80039b8 <_sbrk+0x64>)
 80039a4:	6013      	str	r3, [r2, #0]

  return (void *)prev_heap_end;
 80039a6:	68fb      	ldr	r3, [r7, #12]
}
 80039a8:	4618      	mov	r0, r3
 80039aa:	3718      	adds	r7, #24
 80039ac:	46bd      	mov	sp, r7
 80039ae:	bd80      	pop	{r7, pc}
 80039b0:	20005000 	.word	0x20005000
 80039b4:	00000400 	.word	0x00000400
 80039b8:	20000384 	.word	0x20000384
 80039bc:	200004e0 	.word	0x200004e0

080039c0 <SystemInit>:
  * @note   This function should be used only after reset.
  * @param  None
  * @retval None
  */
void SystemInit (void)
{
 80039c0:	b480      	push	{r7}
 80039c2:	af00      	add	r7, sp, #0

  /* Configure the Vector Table location -------------------------------------*/
#if defined(USER_VECT_TAB_ADDRESS)
  SCB->VTOR = VECT_TAB_BASE_ADDRESS | VECT_TAB_OFFSET; /* Vector Table Relocation in Internal SRAM. */
#endif /* USER_VECT_TAB_ADDRESS */
}
 80039c4:	bf00      	nop
 80039c6:	46bd      	mov	sp, r7
 80039c8:	bc80      	pop	{r7}
 80039ca:	4770      	bx	lr

080039cc <Reset_Handler>:
  .weak Reset_Handler
  .type Reset_Handler, %function
Reset_Handler:

/* Call the clock system initialization function.*/
    bl  SystemInit
 80039cc:	f7ff fff8 	bl	80039c0 <SystemInit>

/* Copy the data segment initializers from flash to SRAM */
  ldr r0, =_sdata
 80039d0:	480b      	ldr	r0, [pc, #44]	@ (8003a00 <LoopFillZerobss+0xe>)
  ldr r1, =_edata
 80039d2:	490c      	ldr	r1, [pc, #48]	@ (8003a04 <LoopFillZerobss+0x12>)
  ldr r2, =_sidata
 80039d4:	4a0c      	ldr	r2, [pc, #48]	@ (8003a08 <LoopFillZerobss+0x16>)
  movs r3, #0
 80039d6:	2300      	movs	r3, #0
  b LoopCopyDataInit
 80039d8:	e002      	b.n	80039e0 <LoopCopyDataInit>

080039da <CopyDataInit>:

CopyDataInit:
  ldr r4, [r2, r3]
 80039da:	58d4      	ldr	r4, [r2, r3]
  str r4, [r0, r3]
 80039dc:	50c4      	str	r4, [r0, r3]
  adds r3, r3, #4
 80039de:	3304      	adds	r3, #4

080039e0 <LoopCopyDataInit>:

LoopCopyDataInit:
  adds r4, r0, r3
 80039e0:	18c4      	adds	r4, r0, r3
  cmp r4, r1
 80039e2:	428c      	cmp	r4, r1
  bcc CopyDataInit
 80039e4:	d3f9      	bcc.n	80039da <CopyDataInit>
  
/* Zero fill the bss segment. */
  ldr r2, =_sbss
 80039e6:	4a09      	ldr	r2, [pc, #36]	@ (8003a0c <LoopFillZerobss+0x1a>)
  ldr r4, =_ebss
 80039e8:	4c09      	ldr	r4, [pc, #36]	@ (8003a10 <LoopFillZerobss+0x1e>)
  movs r3, #0
 80039ea:	2300      	movs	r3, #0
  b LoopFillZerobss
 80039ec:	e001      	b.n	80039f2 <LoopFillZerobss>

080039ee <FillZerobss>:

FillZerobss:
  str  r3, [r2]
 80039ee:	6013      	str	r3, [r2, #0]
  adds r2, r2, #4
 80039f0:	3204      	adds	r2, #4

080039f2 <LoopFillZerobss>:

LoopFillZerobss:
  cmp r2, r4
 80039f2:	42a2      	cmp	r2, r4
  bcc FillZerobss
 80039f4:	d3fb      	bcc.n	80039ee <FillZerobss>

/* Call static constructors */
    bl __libc_init_array
 80039f6:	f003 f989 	bl	8006d0c <__libc_init_array>
/* Call the application's entry point.*/
  bl main
 80039fa:	f7ff fb8d 	bl	8003118 <main>
  bx lr
 80039fe:	4770      	bx	lr
  ldr r0, =_sdata
 8003a00:	20000000 	.word	0x20000000
  ldr r1, =_edata
 8003a04:	20000208 	.word	0x20000208
  ldr r2, =_sidata
 8003a08:	08008fa8 	.word	0x08008fa8
  ldr r2, =_sbss
 8003a0c:	20000208 	.word	0x20000208
  ldr r4, =_ebss
 8003a10:	200004dc 	.word	0x200004dc

08003a14 <ADC1_2_IRQHandler>:
 * @retval : None
*/
    .section .text.Default_Handler,"ax",%progbits
Default_Handler:
Infinite_Loop:
  b Infinite_Loop
 8003a14:	e7fe      	b.n	8003a14 <ADC1_2_IRQHandler>
	...

08003a18 <HAL_Init>:
  *         need to ensure that the SysTick time base is always set to 1 millisecond
  *         to have correct HAL operation.
  * @retval HAL status
  */
HAL_StatusTypeDef HAL_Init(void)
{
 8003a18:	b580      	push	{r7, lr}
 8003a1a:	af00      	add	r7, sp, #0
    defined(STM32F102x6) || defined(STM32F102xB) || \
    defined(STM32F103x6) || defined(STM32F103xB) || defined(STM32F103xE) || defined(STM32F103xG) || \
    defined(STM32F105xC) || defined(STM32F107xC)

  /* Prefetch buffer is not available on value line devices */
  __HAL_FLASH_PREFETCH_BUFFER_ENABLE();
 8003a1c:	4b08      	ldr	r3, [pc, #32]	@ (8003a40 <HAL_Init+0x28>)
 8003a1e:	681b      	ldr	r3, [r3, #0]
 8003a20:	4a07      	ldr	r2, [pc, #28]	@ (8003a40 <HAL_Init+0x28>)
 8003a22:	f043 0310 	orr.w	r3, r3, #16
 8003a26:	6013      	str	r3, [r2, #0]
#endif
#endif /* PREFETCH_ENABLE */

  /* Set Interrupt Group Priority */
  HAL_NVIC_SetPriorityGrouping(NVIC_PRIORITYGROUP_4);
 8003a28:	2003      	movs	r0, #3
 8003a2a:	f000 f947 	bl	8003cbc <HAL_NVIC_SetPriorityGrouping>

  /* Use systick as time base source and configure 1ms tick (default clock after Reset is HSI) */
  HAL_InitTick(TICK_INT_PRIORITY);
 8003a2e:	200f      	movs	r0, #15
 8003a30:	f000 f808 	bl	8003a44 <HAL_InitTick>

  /* Init the low level hardware */
  HAL_MspInit();
 8003a34:	f7ff fd1e 	bl	8003474 <HAL_MspInit>

  /* Return function status */
  return HAL_OK;
 8003a38:	2300      	movs	r3, #0
}
 8003a3a:	4618      	mov	r0, r3
 8003a3c:	bd80      	pop	{r7, pc}
 8003a3e:	bf00      	nop
 8003a40:	40022000 	.word	0x40022000

08003a44 <HAL_InitTick>:
  *       implementation  in user file.
  * @param TickPriority Tick interrupt priority.
  * @retval HAL status
  */
__weak HAL_StatusTypeDef HAL_InitTick(uint32_t TickPriority)
{
 8003a44:	b580      	push	{r7, lr}
 8003a46:	b082      	sub	sp, #8
 8003a48:	af00      	add	r7, sp, #0
 8003a4a:	6078      	str	r0, [r7, #4]
  /* Configure the SysTick to have interrupt in 1ms time basis*/
  if (HAL_SYSTICK_Config(SystemCoreClock / (1000U / uwTickFreq)) > 0U)
 8003a4c:	4b12      	ldr	r3, [pc, #72]	@ (8003a98 <HAL_InitTick+0x54>)
 8003a4e:	681a      	ldr	r2, [r3, #0]
 8003a50:	4b12      	ldr	r3, [pc, #72]	@ (8003a9c <HAL_InitTick+0x58>)
 8003a52:	781b      	ldrb	r3, [r3, #0]
 8003a54:	4619      	mov	r1, r3
 8003a56:	f44f 737a 	mov.w	r3, #1000	@ 0x3e8
 8003a5a:	fbb3 f3f1 	udiv	r3, r3, r1
 8003a5e:	fbb2 f3f3 	udiv	r3, r2, r3
 8003a62:	4618      	mov	r0, r3
 8003a64:	f000 f95f 	bl	8003d26 <HAL_SYSTICK_Config>
 8003a68:	4603      	mov	r3, r0
 8003a6a:	2b00      	cmp	r3, #0
 8003a6c:	d001      	beq.n	8003a72 <HAL_InitTick+0x2e>
  {
    return HAL_ERROR;
 8003a6e:	2301      	movs	r3, #1
 8003a70:	e00e      	b.n	8003a90 <HAL_InitTick+0x4c>
  }

  /* Configure the SysTick IRQ priority */
  if (TickPriority < (1UL << __NVIC_PRIO_BITS))
 8003a72:	687b      	ldr	r3, [r7, #4]
 8003a74:	2b0f      	cmp	r3, #15
 8003a76:	d80a      	bhi.n	8003a8e <HAL_InitTick+0x4a>
  {
    HAL_NVIC_SetPriority(SysTick_IRQn, TickPriority, 0U);
 8003a78:	2200      	movs	r2, #0
 8003a7a:	6879      	ldr	r1, [r7, #4]
 8003a7c:	f04f 30ff 	mov.w	r0, #4294967295	@ 0xffffffff
 8003a80:	f000 f927 	bl	8003cd2 <HAL_NVIC_SetPriority>
    uwTickPrio = TickPriority;
 8003a84:	4a06      	ldr	r2, [pc, #24]	@ (8003aa0 <HAL_InitTick+0x5c>)
 8003a86:	687b      	ldr	r3, [r7, #4]
 8003a88:	6013      	str	r3, [r2, #0]
  {
    return HAL_ERROR;
  }

  /* Return function status */
  return HAL_OK;
 8003a8a:	2300      	movs	r3, #0
 8003a8c:	e000      	b.n	8003a90 <HAL_InitTick+0x4c>
    return HAL_ERROR;
 8003a8e:	2301      	movs	r3, #1
}
 8003a90:	4618      	mov	r0, r3
 8003a92:	3708      	adds	r7, #8
 8003a94:	46bd      	mov	sp, r7
 8003a96:	bd80      	pop	{r7, pc}
 8003a98:	20000034 	.word	0x20000034
 8003a9c:	2000003c 	.word	0x2000003c
 8003aa0:	20000038 	.word	0x20000038

08003aa4 <HAL_IncTick>:
  * @note This function is declared as __weak to be overwritten in case of other
  *      implementations in user file.
  * @retval None
  */
__weak void HAL_IncTick(void)
{
 8003aa4:	b480      	push	{r7}
 8003aa6:	af00      	add	r7, sp, #0
  uwTick += uwTickFreq;
 8003aa8:	4b05      	ldr	r3, [pc, #20]	@ (8003ac0 <HAL_IncTick+0x1c>)
 8003aaa:	781b      	ldrb	r3, [r3, #0]
 8003aac:	461a      	mov	r2, r3
 8003aae:	4b05      	ldr	r3, [pc, #20]	@ (8003ac4 <HAL_IncTick+0x20>)
 8003ab0:	681b      	ldr	r3, [r3, #0]
 8003ab2:	4413      	add	r3, r2
 8003ab4:	4a03      	ldr	r2, [pc, #12]	@ (8003ac4 <HAL_IncTick+0x20>)
 8003ab6:	6013      	str	r3, [r2, #0]
}
 8003ab8:	bf00      	nop
 8003aba:	46bd      	mov	sp, r7
 8003abc:	bc80      	pop	{r7}
 8003abe:	4770      	bx	lr
 8003ac0:	2000003c 	.word	0x2000003c
 8003ac4:	20000388 	.word	0x20000388

08003ac8 <HAL_GetTick>:
  * @note  This function is declared as __weak to be overwritten in case of other
  *       implementations in user file.
  * @retval tick value
  */
__weak uint32_t HAL_GetTick(void)
{
 8003ac8:	b480      	push	{r7}
 8003aca:	af00      	add	r7, sp, #0
  return uwTick;
 8003acc:	4b02      	ldr	r3, [pc, #8]	@ (8003ad8 <HAL_GetTick+0x10>)
 8003ace:	681b      	ldr	r3, [r3, #0]
}
 8003ad0:	4618      	mov	r0, r3
 8003ad2:	46bd      	mov	sp, r7
 8003ad4:	bc80      	pop	{r7}
 8003ad6:	4770      	bx	lr
 8003ad8:	20000388 	.word	0x20000388

08003adc <HAL_Delay>:
  *       implementations in user file.
  * @param Delay specifies the delay time length, in milliseconds.
  * @retval None
  */
__weak void HAL_Delay(uint32_t Delay)
{
 8003adc:	b580      	push	{r7, lr}
 8003ade:	b084      	sub	sp, #16
 8003ae0:	af00      	add	r7, sp, #0
 8003ae2:	6078      	str	r0, [r7, #4]
  uint32_t tickstart = HAL_GetTick();
 8003ae4:	f7ff fff0 	bl	8003ac8 <HAL_GetTick>
 8003ae8:	60b8      	str	r0, [r7, #8]
  uint32_t wait = Delay;
 8003aea:	687b      	ldr	r3, [r7, #4]
 8003aec:	60fb      	str	r3, [r7, #12]

  /* Add a freq to guarantee minimum wait */
  if (wait < HAL_MAX_DELAY)
 8003aee:	68fb      	ldr	r3, [r7, #12]
 8003af0:	f1b3 3fff 	cmp.w	r3, #4294967295	@ 0xffffffff
 8003af4:	d005      	beq.n	8003b02 <HAL_Delay+0x26>
  {
    wait += (uint32_t)(uwTickFreq);
 8003af6:	4b0a      	ldr	r3, [pc, #40]	@ (8003b20 <HAL_Delay+0x44>)
 8003af8:	781b      	ldrb	r3, [r3, #0]
 8003afa:	461a      	mov	r2, r3
 8003afc:	68fb      	ldr	r3, [r7, #12]
 8003afe:	4413      	add	r3, r2
 8003b00:	60fb      	str	r3, [r7, #12]
  }

  while ((HAL_GetTick() - tickstart) < wait)
 8003b02:	bf00      	nop
 8003b04:	f7ff ffe0 	bl	8003ac8 <HAL_GetTick>
 8003b08:	4602      	mov	r2, r0
 8003b0a:	68bb      	ldr	r3, [r7, #8]
 8003b0c:	1ad3      	subs	r3, r2, r3
 8003b0e:	68fa      	ldr	r2, [r7, #12]
 8003b10:	429a      	cmp	r2, r3
 8003b12:	d8f7      	bhi.n	8003b04 <HAL_Delay+0x28>
  {
  }
}
 8003b14:	bf00      	nop
 8003b16:	bf00      	nop
 8003b18:	3710      	adds	r7, #16
 8003b1a:	46bd      	mov	sp, r7
 8003b1c:	bd80      	pop	{r7, pc}
 8003b1e:	bf00      	nop
 8003b20:	2000003c 	.word	0x2000003c

08003b24 <__NVIC_SetPriorityGrouping>:
           In case of a conflict between priority grouping and available
           priority bits (__NVIC_PRIO_BITS), the smallest possible priority group is set.
  \param [in]      PriorityGroup  Priority grouping field.
 */
__STATIC_INLINE void __NVIC_SetPriorityGrouping(uint32_t PriorityGroup)
{
 8003b24:	b480      	push	{r7}
 8003b26:	b085      	sub	sp, #20
 8003b28:	af00      	add	r7, sp, #0
 8003b2a:	6078      	str	r0, [r7, #4]
  uint32_t reg_value;
  uint32_t PriorityGroupTmp = (PriorityGroup & (uint32_t)0x07UL);             /* only values 0..7 are used          */
 8003b2c:	687b      	ldr	r3, [r7, #4]
 8003b2e:	f003 0307 	and.w	r3, r3, #7
 8003b32:	60fb      	str	r3, [r7, #12]

  reg_value  =  SCB->AIRCR;                                                   /* read old register configuration    */
 8003b34:	4b0c      	ldr	r3, [pc, #48]	@ (8003b68 <__NVIC_SetPriorityGrouping+0x44>)
 8003b36:	68db      	ldr	r3, [r3, #12]
 8003b38:	60bb      	str	r3, [r7, #8]
  reg_value &= ~((uint32_t)(SCB_AIRCR_VECTKEY_Msk | SCB_AIRCR_PRIGROUP_Msk)); /* clear bits to change               */
 8003b3a:	68ba      	ldr	r2, [r7, #8]
 8003b3c:	f64f 03ff 	movw	r3, #63743	@ 0xf8ff
 8003b40:	4013      	ands	r3, r2
 8003b42:	60bb      	str	r3, [r7, #8]
  reg_value  =  (reg_value                                   |
                ((uint32_t)0x5FAUL << SCB_AIRCR_VECTKEY_Pos) |
                (PriorityGroupTmp << SCB_AIRCR_PRIGROUP_Pos) );               /* Insert write key and priority group */
 8003b44:	68fb      	ldr	r3, [r7, #12]
 8003b46:	021a      	lsls	r2, r3, #8
                ((uint32_t)0x5FAUL << SCB_AIRCR_VECTKEY_Pos) |
 8003b48:	68bb      	ldr	r3, [r7, #8]
 8003b4a:	4313      	orrs	r3, r2
  reg_value  =  (reg_value                                   |
 8003b4c:	f043 63bf 	orr.w	r3, r3, #100139008	@ 0x5f80000
 8003b50:	f443 3300 	orr.w	r3, r3, #131072	@ 0x20000
 8003b54:	60bb      	str	r3, [r7, #8]
  SCB->AIRCR =  reg_value;
 8003b56:	4a04      	ldr	r2, [pc, #16]	@ (8003b68 <__NVIC_SetPriorityGrouping+0x44>)
 8003b58:	68bb      	ldr	r3, [r7, #8]
 8003b5a:	60d3      	str	r3, [r2, #12]
}
 8003b5c:	bf00      	nop
 8003b5e:	3714      	adds	r7, #20
 8003b60:	46bd      	mov	sp, r7
 8003b62:	bc80      	pop	{r7}
 8003b64:	4770      	bx	lr
 8003b66:	bf00      	nop
 8003b68:	e000ed00 	.word	0xe000ed00

08003b6c <__NVIC_GetPriorityGrouping>:
  \brief   Get Priority Grouping
  \details Reads the priority grouping field from the NVIC Interrupt Controller.
  \return                Priority grouping field (SCB->AIRCR [10:8] PRIGROUP field).
 */
__STATIC_INLINE uint32_t __NVIC_GetPriorityGrouping(void)
{
 8003b6c:	b480      	push	{r7}
 8003b6e:	af00      	add	r7, sp, #0
  return ((uint32_t)((SCB->AIRCR & SCB_AIRCR_PRIGROUP_Msk) >> SCB_AIRCR_PRIGROUP_Pos));
 8003b70:	4b04      	ldr	r3, [pc, #16]	@ (8003b84 <__NVIC_GetPriorityGrouping+0x18>)
 8003b72:	68db      	ldr	r3, [r3, #12]
 8003b74:	0a1b      	lsrs	r3, r3, #8
 8003b76:	f003 0307 	and.w	r3, r3, #7
}
 8003b7a:	4618      	mov	r0, r3
 8003b7c:	46bd      	mov	sp, r7
 8003b7e:	bc80      	pop	{r7}
 8003b80:	4770      	bx	lr
 8003b82:	bf00      	nop
 8003b84:	e000ed00 	.word	0xe000ed00

08003b88 <__NVIC_EnableIRQ>:
  \details Enables a device specific interrupt in the NVIC interrupt controller.
  \param [in]      IRQn  Device specific interrupt number.
  \note    IRQn must not be negative.
 */
__STATIC_INLINE void __NVIC_EnableIRQ(IRQn_Type IRQn)
{
 8003b88:	b480      	push	{r7}
 8003b8a:	b083      	sub	sp, #12
 8003b8c:	af00      	add	r7, sp, #0
 8003b8e:	4603      	mov	r3, r0
 8003b90:	71fb      	strb	r3, [r7, #7]
  if ((int32_t)(IRQn) >= 0)
 8003b92:	f997 3007 	ldrsb.w	r3, [r7, #7]
 8003b96:	2b00      	cmp	r3, #0
 8003b98:	db0b      	blt.n	8003bb2 <__NVIC_EnableIRQ+0x2a>
  {
    NVIC->ISER[(((uint32_t)IRQn) >> 5UL)] = (uint32_t)(1UL << (((uint32_t)IRQn) & 0x1FUL));
 8003b9a:	79fb      	ldrb	r3, [r7, #7]
 8003b9c:	f003 021f 	and.w	r2, r3, #31
 8003ba0:	4906      	ldr	r1, [pc, #24]	@ (8003bbc <__NVIC_EnableIRQ+0x34>)
 8003ba2:	f997 3007 	ldrsb.w	r3, [r7, #7]
 8003ba6:	095b      	lsrs	r3, r3, #5
 8003ba8:	2001      	movs	r0, #1
 8003baa:	fa00 f202 	lsl.w	r2, r0, r2
 8003bae:	f841 2023 	str.w	r2, [r1, r3, lsl #2]
  }
}
 8003bb2:	bf00      	nop
 8003bb4:	370c      	adds	r7, #12
 8003bb6:	46bd      	mov	sp, r7
 8003bb8:	bc80      	pop	{r7}
 8003bba:	4770      	bx	lr
 8003bbc:	e000e100 	.word	0xe000e100

08003bc0 <__NVIC_SetPriority>:
  \param [in]      IRQn  Interrupt number.
  \param [in]  priority  Priority to set.
  \note    The priority cannot be set for every processor exception.
 */
__STATIC_INLINE void __NVIC_SetPriority(IRQn_Type IRQn, uint32_t priority)
{
 8003bc0:	b480      	push	{r7}
 8003bc2:	b083      	sub	sp, #12
 8003bc4:	af00      	add	r7, sp, #0
 8003bc6:	4603      	mov	r3, r0
 8003bc8:	6039      	str	r1, [r7, #0]
 8003bca:	71fb      	strb	r3, [r7, #7]
  if ((int32_t)(IRQn) >= 0)
 8003bcc:	f997 3007 	ldrsb.w	r3, [r7, #7]
 8003bd0:	2b00      	cmp	r3, #0
 8003bd2:	db0a      	blt.n	8003bea <__NVIC_SetPriority+0x2a>
  {
    NVIC->IP[((uint32_t)IRQn)]               = (uint8_t)((priority << (8U - __NVIC_PRIO_BITS)) & (uint32_t)0xFFUL);
 8003bd4:	683b      	ldr	r3, [r7, #0]
 8003bd6:	b2da      	uxtb	r2, r3
 8003bd8:	490c      	ldr	r1, [pc, #48]	@ (8003c0c <__NVIC_SetPriority+0x4c>)
 8003bda:	f997 3007 	ldrsb.w	r3, [r7, #7]
 8003bde:	0112      	lsls	r2, r2, #4
 8003be0:	b2d2      	uxtb	r2, r2
 8003be2:	440b      	add	r3, r1
 8003be4:	f883 2300 	strb.w	r2, [r3, #768]	@ 0x300
  }
  else
  {
    SCB->SHP[(((uint32_t)IRQn) & 0xFUL)-4UL] = (uint8_t)((priority << (8U - __NVIC_PRIO_BITS)) & (uint32_t)0xFFUL);
  }
}
 8003be8:	e00a      	b.n	8003c00 <__NVIC_SetPriority+0x40>
    SCB->SHP[(((uint32_t)IRQn) & 0xFUL)-4UL] = (uint8_t)((priority << (8U - __NVIC_PRIO_BITS)) & (uint32_t)0xFFUL);
 8003bea:	683b      	ldr	r3, [r7, #0]
 8003bec:	b2da      	uxtb	r2, r3
 8003bee:	4908      	ldr	r1, [pc, #32]	@ (8003c10 <__NVIC_SetPriority+0x50>)
 8003bf0:	79fb      	ldrb	r3, [r7, #7]
 8003bf2:	f003 030f 	and.w	r3, r3, #15
 8003bf6:	3b04      	subs	r3, #4
 8003bf8:	0112      	lsls	r2, r2, #4
 8003bfa:	b2d2      	uxtb	r2, r2
 8003bfc:	440b      	add	r3, r1
 8003bfe:	761a      	strb	r2, [r3, #24]
}
 8003c00:	bf00      	nop
 8003c02:	370c      	adds	r7, #12
 8003c04:	46bd      	mov	sp, r7
 8003c06:	bc80      	pop	{r7}
 8003c08:	4770      	bx	lr
 8003c0a:	bf00      	nop
 8003c0c:	e000e100 	.word	0xe000e100
 8003c10:	e000ed00 	.word	0xe000ed00

08003c14 <NVIC_EncodePriority>:
  \param [in]   PreemptPriority  Preemptive priority value (starting from 0).
  \param [in]       SubPriority  Subpriority value (starting from 0).
  \return                        Encoded priority. Value can be used in the function \ref NVIC_SetPriority().
 */
__STATIC_INLINE uint32_t NVIC_EncodePriority (uint32_t PriorityGroup, uint32_t PreemptPriority, uint32_t SubPriority)
{
 8003c14:	b480      	push	{r7}
 8003c16:	b089      	sub	sp, #36	@ 0x24
 8003c18:	af00      	add	r7, sp, #0
 8003c1a:	60f8      	str	r0, [r7, #12]
 8003c1c:	60b9      	str	r1, [r7, #8]
 8003c1e:	607a      	str	r2, [r7, #4]
  uint32_t PriorityGroupTmp = (PriorityGroup & (uint32_t)0x07UL);   /* only values 0..7 are used          */
 8003c20:	68fb      	ldr	r3, [r7, #12]
 8003c22:	f003 0307 	and.w	r3, r3, #7
 8003c26:	61fb      	str	r3, [r7, #28]
  uint32_t PreemptPriorityBits;
  uint32_t SubPriorityBits;

  PreemptPriorityBits = ((7UL - PriorityGroupTmp) > (uint32_t)(__NVIC_PRIO_BITS)) ? (uint32_t)(__NVIC_PRIO_BITS) : (uint32_t)(7UL - PriorityGroupTmp);
 8003c28:	69fb      	ldr	r3, [r7, #28]
 8003c2a:	f1c3 0307 	rsb	r3, r3, #7
 8003c2e:	2b04      	cmp	r3, #4
 8003c30:	bf28      	it	cs
 8003c32:	2304      	movcs	r3, #4
 8003c34:	61bb      	str	r3, [r7, #24]
  SubPriorityBits     = ((PriorityGroupTmp + (uint32_t)(__NVIC_PRIO_BITS)) < (uint32_t)7UL) ? (uint32_t)0UL : (uint32_t)((PriorityGroupTmp - 7UL) + (uint32_t)(__NVIC_PRIO_BITS));
 8003c36:	69fb      	ldr	r3, [r7, #28]
 8003c38:	3304      	adds	r3, #4
 8003c3a:	2b06      	cmp	r3, #6
 8003c3c:	d902      	bls.n	8003c44 <NVIC_EncodePriority+0x30>
 8003c3e:	69fb      	ldr	r3, [r7, #28]
 8003c40:	3b03      	subs	r3, #3
 8003c42:	e000      	b.n	8003c46 <NVIC_EncodePriority+0x32>
 8003c44:	2300      	movs	r3, #0
 8003c46:	617b      	str	r3, [r7, #20]

  return (
           ((PreemptPriority & (uint32_t)((1UL << (PreemptPriorityBits)) - 1UL)) << SubPriorityBits) |
 8003c48:	f04f 32ff 	mov.w	r2, #4294967295	@ 0xffffffff
 8003c4c:	69bb      	ldr	r3, [r7, #24]
 8003c4e:	fa02 f303 	lsl.w	r3, r2, r3
 8003c52:	43da      	mvns	r2, r3
 8003c54:	68bb      	ldr	r3, [r7, #8]
 8003c56:	401a      	ands	r2, r3
 8003c58:	697b      	ldr	r3, [r7, #20]
 8003c5a:	409a      	lsls	r2, r3
           ((SubPriority     & (uint32_t)((1UL << (SubPriorityBits    )) - 1UL)))
 8003c5c:	f04f 31ff 	mov.w	r1, #4294967295	@ 0xffffffff
 8003c60:	697b      	ldr	r3, [r7, #20]
 8003c62:	fa01 f303 	lsl.w	r3, r1, r3
 8003c66:	43d9      	mvns	r1, r3
 8003c68:	687b      	ldr	r3, [r7, #4]
 8003c6a:	400b      	ands	r3, r1
           ((PreemptPriority & (uint32_t)((1UL << (PreemptPriorityBits)) - 1UL)) << SubPriorityBits) |
 8003c6c:	4313      	orrs	r3, r2
         );
}
 8003c6e:	4618      	mov	r0, r3
 8003c70:	3724      	adds	r7, #36	@ 0x24
 8003c72:	46bd      	mov	sp, r7
 8003c74:	bc80      	pop	{r7}
 8003c76:	4770      	bx	lr

08003c78 <SysTick_Config>:
  \note    When the variable <b>__Vendor_SysTickConfig</b> is set to 1, then the
           function <b>SysTick_Config</b> is not included. In this case, the file <b><i>device</i>.h</b>
           must contain a vendor-specific implementation of this function.
 */
__STATIC_INLINE uint32_t SysTick_Config(uint32_t ticks)
{
 8003c78:	b580      	push	{r7, lr}
 8003c7a:	b082      	sub	sp, #8
 8003c7c:	af00      	add	r7, sp, #0
 8003c7e:	6078      	str	r0, [r7, #4]
  if ((ticks - 1UL) > SysTick_LOAD_RELOAD_Msk)
 8003c80:	687b      	ldr	r3, [r7, #4]
 8003c82:	3b01      	subs	r3, #1
 8003c84:	f1b3 7f80 	cmp.w	r3, #16777216	@ 0x1000000
 8003c88:	d301      	bcc.n	8003c8e <SysTick_Config+0x16>
  {
    return (1UL);                                                   /* Reload value impossible */
 8003c8a:	2301      	movs	r3, #1
 8003c8c:	e00f      	b.n	8003cae <SysTick_Config+0x36>
  }

  SysTick->LOAD  = (uint32_t)(ticks - 1UL);                         /* set reload register */
 8003c8e:	4a0a      	ldr	r2, [pc, #40]	@ (8003cb8 <SysTick_Config+0x40>)
 8003c90:	687b      	ldr	r3, [r7, #4]
 8003c92:	3b01      	subs	r3, #1
 8003c94:	6053      	str	r3, [r2, #4]
  NVIC_SetPriority (SysTick_IRQn, (1UL << __NVIC_PRIO_BITS) - 1UL); /* set Priority for Systick Interrupt */
 8003c96:	210f      	movs	r1, #15
 8003c98:	f04f 30ff 	mov.w	r0, #4294967295	@ 0xffffffff
 8003c9c:	f7ff ff90 	bl	8003bc0 <__NVIC_SetPriority>
  SysTick->VAL   = 0UL;                                             /* Load the SysTick Counter Value */
 8003ca0:	4b05      	ldr	r3, [pc, #20]	@ (8003cb8 <SysTick_Config+0x40>)
 8003ca2:	2200      	movs	r2, #0
 8003ca4:	609a      	str	r2, [r3, #8]
  SysTick->CTRL  = SysTick_CTRL_CLKSOURCE_Msk |
 8003ca6:	4b04      	ldr	r3, [pc, #16]	@ (8003cb8 <SysTick_Config+0x40>)
 8003ca8:	2207      	movs	r2, #7
 8003caa:	601a      	str	r2, [r3, #0]
                   SysTick_CTRL_TICKINT_Msk   |
                   SysTick_CTRL_ENABLE_Msk;                         /* Enable SysTick IRQ and SysTick Timer */
  return (0UL);                                                     /* Function successful */
 8003cac:	2300      	movs	r3, #0
}
 8003cae:	4618      	mov	r0, r3
 8003cb0:	3708      	adds	r7, #8
 8003cb2:	46bd      	mov	sp, r7
 8003cb4:	bd80      	pop	{r7, pc}
 8003cb6:	bf00      	nop
 8003cb8:	e000e010 	.word	0xe000e010

08003cbc <HAL_NVIC_SetPriorityGrouping>:
  * @note   When the NVIC_PriorityGroup_0 is selected, IRQ preemption is no more possible. 
  *         The pending IRQ priority will be managed only by the subpriority. 
  * @retval None
  */
void HAL_NVIC_SetPriorityGrouping(uint32_t PriorityGroup)
{
 8003cbc:	b580      	push	{r7, lr}
 8003cbe:	b082      	sub	sp, #8
 8003cc0:	af00      	add	r7, sp, #0
 8003cc2:	6078      	str	r0, [r7, #4]
  /* Check the parameters */
  assert_param(IS_NVIC_PRIORITY_GROUP(PriorityGroup));
  
  /* Set the PRIGROUP[10:8] bits according to the PriorityGroup parameter value */
  NVIC_SetPriorityGrouping(PriorityGroup);
 8003cc4:	6878      	ldr	r0, [r7, #4]
 8003cc6:	f7ff ff2d 	bl	8003b24 <__NVIC_SetPriorityGrouping>
}
 8003cca:	bf00      	nop
 8003ccc:	3708      	adds	r7, #8
 8003cce:	46bd      	mov	sp, r7
 8003cd0:	bd80      	pop	{r7, pc}

08003cd2 <HAL_NVIC_SetPriority>:
  *         This parameter can be a value between 0 and 15
  *         A lower priority value indicates a higher priority.          
  * @retval None
  */
void HAL_NVIC_SetPriority(IRQn_Type IRQn, uint32_t PreemptPriority, uint32_t SubPriority)
{ 
 8003cd2:	b580      	push	{r7, lr}
 8003cd4:	b086      	sub	sp, #24
 8003cd6:	af00      	add	r7, sp, #0
 8003cd8:	4603      	mov	r3, r0
 8003cda:	60b9      	str	r1, [r7, #8]
 8003cdc:	607a      	str	r2, [r7, #4]
 8003cde:	73fb      	strb	r3, [r7, #15]
  uint32_t prioritygroup = 0x00U;
 8003ce0:	2300      	movs	r3, #0
 8003ce2:	617b      	str	r3, [r7, #20]
  
  /* Check the parameters */
  assert_param(IS_NVIC_SUB_PRIORITY(SubPriority));
  assert_param(IS_NVIC_PREEMPTION_PRIORITY(PreemptPriority));
  
  prioritygroup = NVIC_GetPriorityGrouping();
 8003ce4:	f7ff ff42 	bl	8003b6c <__NVIC_GetPriorityGrouping>
 8003ce8:	6178      	str	r0, [r7, #20]
  
  NVIC_SetPriority(IRQn, NVIC_EncodePriority(prioritygroup, PreemptPriority, SubPriority));
 8003cea:	687a      	ldr	r2, [r7, #4]
 8003cec:	68b9      	ldr	r1, [r7, #8]
 8003cee:	6978      	ldr	r0, [r7, #20]
 8003cf0:	f7ff ff90 	bl	8003c14 <NVIC_EncodePriority>
 8003cf4:	4602      	mov	r2, r0
 8003cf6:	f997 300f 	ldrsb.w	r3, [r7, #15]
 8003cfa:	4611      	mov	r1, r2
 8003cfc:	4618      	mov	r0, r3
 8003cfe:	f7ff ff5f 	bl	8003bc0 <__NVIC_SetPriority>
}
 8003d02:	bf00      	nop
 8003d04:	3718      	adds	r7, #24
 8003d06:	46bd      	mov	sp, r7
 8003d08:	bd80      	pop	{r7, pc}

08003d0a <HAL_NVIC_EnableIRQ>:
  *         This parameter can be an enumerator of IRQn_Type enumeration
  *         (For the complete STM32 Devices IRQ Channels list, please refer to the appropriate CMSIS device file (stm32f10xxx.h))
  * @retval None
  */
void HAL_NVIC_EnableIRQ(IRQn_Type IRQn)
{
 8003d0a:	b580      	push	{r7, lr}
 8003d0c:	b082      	sub	sp, #8
 8003d0e:	af00      	add	r7, sp, #0
 8003d10:	4603      	mov	r3, r0
 8003d12:	71fb      	strb	r3, [r7, #7]
  /* Check the parameters */
  assert_param(IS_NVIC_DEVICE_IRQ(IRQn));

  /* Enable interrupt */
  NVIC_EnableIRQ(IRQn);
 8003d14:	f997 3007 	ldrsb.w	r3, [r7, #7]
 8003d18:	4618      	mov	r0, r3
 8003d1a:	f7ff ff35 	bl	8003b88 <__NVIC_EnableIRQ>
}
 8003d1e:	bf00      	nop
 8003d20:	3708      	adds	r7, #8
 8003d22:	46bd      	mov	sp, r7
 8003d24:	bd80      	pop	{r7, pc}

08003d26 <HAL_SYSTICK_Config>:
  * @param  TicksNumb: Specifies the ticks Number of ticks between two interrupts.
  * @retval status:  - 0  Function succeeded.
  *                  - 1  Function failed.
  */
uint32_t HAL_SYSTICK_Config(uint32_t TicksNumb)
{
 8003d26:	b580      	push	{r7, lr}
 8003d28:	b082      	sub	sp, #8
 8003d2a:	af00      	add	r7, sp, #0
 8003d2c:	6078      	str	r0, [r7, #4]
   return SysTick_Config(TicksNumb);
 8003d2e:	6878      	ldr	r0, [r7, #4]
 8003d30:	f7ff ffa2 	bl	8003c78 <SysTick_Config>
 8003d34:	4603      	mov	r3, r0
}
 8003d36:	4618      	mov	r0, r3
 8003d38:	3708      	adds	r7, #8
 8003d3a:	46bd      	mov	sp, r7
 8003d3c:	bd80      	pop	{r7, pc}
	...

08003d40 <HAL_DMA_Init>:
  * @param  hdma: Pointer to a DMA_HandleTypeDef structure that contains
  *               the configuration information for the specified DMA Channel.
  * @retval HAL status
  */
HAL_StatusTypeDef HAL_DMA_Init(DMA_HandleTypeDef *hdma)
{
 8003d40:	b480      	push	{r7}
 8003d42:	b085      	sub	sp, #20
 8003d44:	af00      	add	r7, sp, #0
 8003d46:	6078      	str	r0, [r7, #4]
  uint32_t tmp = 0U;
 8003d48:	2300      	movs	r3, #0
 8003d4a:	60fb      	str	r3, [r7, #12]

  /* Check the DMA handle allocation */
  if(hdma == NULL)
 8003d4c:	687b      	ldr	r3, [r7, #4]
 8003d4e:	2b00      	cmp	r3, #0
 8003d50:	d101      	bne.n	8003d56 <HAL_DMA_Init+0x16>
  {
    return HAL_ERROR;
 8003d52:	2301      	movs	r3, #1
 8003d54:	e043      	b.n	8003dde <HAL_DMA_Init+0x9e>
    hdma->ChannelIndex = (((uint32_t)hdma->Instance - (uint32_t)DMA2_Channel1) / ((uint32_t)DMA2_Channel2 - (uint32_t)DMA2_Channel1)) << 2;
    hdma->DmaBaseAddress = DMA2;
  }
#else
  /* DMA1 */
  hdma->ChannelIndex = (((uint32_t)hdma->Instance - (uint32_t)DMA1_Channel1) / ((uint32_t)DMA1_Channel2 - (uint32_t)DMA1_Channel1)) << 2;
 8003d56:	687b      	ldr	r3, [r7, #4]
 8003d58:	681b      	ldr	r3, [r3, #0]
 8003d5a:	461a      	mov	r2, r3
 8003d5c:	4b22      	ldr	r3, [pc, #136]	@ (8003de8 <HAL_DMA_Init+0xa8>)
 8003d5e:	4413      	add	r3, r2
 8003d60:	4a22      	ldr	r2, [pc, #136]	@ (8003dec <HAL_DMA_Init+0xac>)
 8003d62:	fba2 2303 	umull	r2, r3, r2, r3
 8003d66:	091b      	lsrs	r3, r3, #4
 8003d68:	009a      	lsls	r2, r3, #2
 8003d6a:	687b      	ldr	r3, [r7, #4]
 8003d6c:	641a      	str	r2, [r3, #64]	@ 0x40
  hdma->DmaBaseAddress = DMA1;
 8003d6e:	687b      	ldr	r3, [r7, #4]
 8003d70:	4a1f      	ldr	r2, [pc, #124]	@ (8003df0 <HAL_DMA_Init+0xb0>)
 8003d72:	63da      	str	r2, [r3, #60]	@ 0x3c
#endif /* DMA2 */

  /* Change DMA peripheral state */
  hdma->State = HAL_DMA_STATE_BUSY;
 8003d74:	687b      	ldr	r3, [r7, #4]
 8003d76:	2202      	movs	r2, #2
 8003d78:	f883 2021 	strb.w	r2, [r3, #33]	@ 0x21

  /* Get the CR register value */
  tmp = hdma->Instance->CCR;
 8003d7c:	687b      	ldr	r3, [r7, #4]
 8003d7e:	681b      	ldr	r3, [r3, #0]
 8003d80:	681b      	ldr	r3, [r3, #0]
 8003d82:	60fb      	str	r3, [r7, #12]

  /* Clear PL, MSIZE, PSIZE, MINC, PINC, CIRC and DIR bits */
  tmp &= ((uint32_t)~(DMA_CCR_PL    | DMA_CCR_MSIZE  | DMA_CCR_PSIZE  | \
 8003d84:	68fb      	ldr	r3, [r7, #12]
 8003d86:	f423 537f 	bic.w	r3, r3, #16320	@ 0x3fc0
 8003d8a:	f023 0330 	bic.w	r3, r3, #48	@ 0x30
 8003d8e:	60fb      	str	r3, [r7, #12]
                      DMA_CCR_MINC  | DMA_CCR_PINC   | DMA_CCR_CIRC   | \
                      DMA_CCR_DIR));

  /* Prepare the DMA Channel configuration */
  tmp |=  hdma->Init.Direction        |
 8003d90:	687b      	ldr	r3, [r7, #4]
 8003d92:	685a      	ldr	r2, [r3, #4]
          hdma->Init.PeriphInc           | hdma->Init.MemInc           |
 8003d94:	687b      	ldr	r3, [r7, #4]
 8003d96:	689b      	ldr	r3, [r3, #8]
  tmp |=  hdma->Init.Direction        |
 8003d98:	431a      	orrs	r2, r3
          hdma->Init.PeriphInc           | hdma->Init.MemInc           |
 8003d9a:	687b      	ldr	r3, [r7, #4]
 8003d9c:	68db      	ldr	r3, [r3, #12]
 8003d9e:	431a      	orrs	r2, r3
          hdma->Init.PeriphDataAlignment | hdma->Init.MemDataAlignment |
 8003da0:	687b      	ldr	r3, [r7, #4]
 8003da2:	691b      	ldr	r3, [r3, #16]
          hdma->Init.PeriphInc           | hdma->Init.MemInc           |
 8003da4:	431a      	orrs	r2, r3
          hdma->Init.PeriphDataAlignment | hdma->Init.MemDataAlignment |
 8003da6:	687b      	ldr	r3, [r7, #4]
 8003da8:	695b      	ldr	r3, [r3, #20]
 8003daa:	431a      	orrs	r2, r3
          hdma->Init.Mode                | hdma->Init.Priority;
 8003dac:	687b      	ldr	r3, [r7, #4]
 8003dae:	699b      	ldr	r3, [r3, #24]
          hdma->Init.PeriphDataAlignment | hdma->Init.MemDataAlignment |
 8003db0:	431a      	orrs	r2, r3
          hdma->Init.Mode                | hdma->Init.Priority;
 8003db2:	687b      	ldr	r3, [r7, #4]
 8003db4:	69db      	ldr	r3, [r3, #28]
 8003db6:	4313      	orrs	r3, r2
  tmp |=  hdma->Init.Direction        |
 8003db8:	68fa      	ldr	r2, [r7, #12]
 8003dba:	4313      	orrs	r3, r2
 8003dbc:	60fb      	str	r3, [r7, #12]

  /* Write to DMA Channel CR register */
  hdma->Instance->CCR = tmp;
 8003dbe:	687b      	ldr	r3, [r7, #4]
 8003dc0:	681b      	ldr	r3, [r3, #0]
 8003dc2:	68fa      	ldr	r2, [r7, #12]
 8003dc4:	601a      	str	r2, [r3, #0]

  /* Initialise the error code */
  hdma->ErrorCode = HAL_DMA_ERROR_NONE;
 8003dc6:	687b      	ldr	r3, [r7, #4]
 8003dc8:	2200      	movs	r2, #0
 8003dca:	639a      	str	r2, [r3, #56]	@ 0x38

  /* Initialize the DMA state*/
  hdma->State = HAL_DMA_STATE_READY;
 8003dcc:	687b      	ldr	r3, [r7, #4]
 8003dce:	2201      	movs	r2, #1
 8003dd0:	f883 2021 	strb.w	r2, [r3, #33]	@ 0x21
  /* Allocate lock resource and initialize it */
  hdma->Lock = HAL_UNLOCKED;
 8003dd4:	687b      	ldr	r3, [r7, #4]
 8003dd6:	2200      	movs	r2, #0
 8003dd8:	f883 2020 	strb.w	r2, [r3, #32]

  return HAL_OK;
 8003ddc:	2300      	movs	r3, #0
}
 8003dde:	4618      	mov	r0, r3
 8003de0:	3714      	adds	r7, #20
 8003de2:	46bd      	mov	sp, r7
 8003de4:	bc80      	pop	{r7}
 8003de6:	4770      	bx	lr
 8003de8:	bffdfff8 	.word	0xbffdfff8
 8003dec:	cccccccd 	.word	0xcccccccd
 8003df0:	40020000 	.word	0x40020000

08003df4 <HAL_DMA_Abort_IT>:
  * @param  hdma  : pointer to a DMA_HandleTypeDef structure that contains
  *                 the configuration information for the specified DMA Channel.
  * @retval HAL status
  */
HAL_StatusTypeDef HAL_DMA_Abort_IT(DMA_HandleTypeDef *hdma)
{  
 8003df4:	b580      	push	{r7, lr}
 8003df6:	b084      	sub	sp, #16
 8003df8:	af00      	add	r7, sp, #0
 8003dfa:	6078      	str	r0, [r7, #4]
  HAL_StatusTypeDef status = HAL_OK;
 8003dfc:	2300      	movs	r3, #0
 8003dfe:	73fb      	strb	r3, [r7, #15]
  
  if(HAL_DMA_STATE_BUSY != hdma->State)
 8003e00:	687b      	ldr	r3, [r7, #4]
 8003e02:	f893 3021 	ldrb.w	r3, [r3, #33]	@ 0x21
 8003e06:	b2db      	uxtb	r3, r3
 8003e08:	2b02      	cmp	r3, #2
 8003e0a:	d005      	beq.n	8003e18 <HAL_DMA_Abort_IT+0x24>
  {
    /* no transfer ongoing */
    hdma->ErrorCode = HAL_DMA_ERROR_NO_XFER;
 8003e0c:	687b      	ldr	r3, [r7, #4]
 8003e0e:	2204      	movs	r2, #4
 8003e10:	639a      	str	r2, [r3, #56]	@ 0x38
        
    status = HAL_ERROR;
 8003e12:	2301      	movs	r3, #1
 8003e14:	73fb      	strb	r3, [r7, #15]
 8003e16:	e051      	b.n	8003ebc <HAL_DMA_Abort_IT+0xc8>
  }
  else
  { 
    /* Disable DMA IT */
    __HAL_DMA_DISABLE_IT(hdma, (DMA_IT_TC | DMA_IT_HT | DMA_IT_TE));
 8003e18:	687b      	ldr	r3, [r7, #4]
 8003e1a:	681b      	ldr	r3, [r3, #0]
 8003e1c:	681a      	ldr	r2, [r3, #0]
 8003e1e:	687b      	ldr	r3, [r7, #4]
 8003e20:	681b      	ldr	r3, [r3, #0]
 8003e22:	f022 020e 	bic.w	r2, r2, #14
 8003e26:	601a      	str	r2, [r3, #0]

    /* Disable the channel */
    __HAL_DMA_DISABLE(hdma);
 8003e28:	687b      	ldr	r3, [r7, #4]
 8003e2a:	681b      	ldr	r3, [r3, #0]
 8003e2c:	681a      	ldr	r2, [r3, #0]
 8003e2e:	687b      	ldr	r3, [r7, #4]
 8003e30:	681b      	ldr	r3, [r3, #0]
 8003e32:	f022 0201 	bic.w	r2, r2, #1
 8003e36:	601a      	str	r2, [r3, #0]

    /* Clear all flags */
    __HAL_DMA_CLEAR_FLAG(hdma, __HAL_DMA_GET_GI_FLAG_INDEX(hdma));
 8003e38:	687b      	ldr	r3, [r7, #4]
 8003e3a:	681b      	ldr	r3, [r3, #0]
 8003e3c:	4a22      	ldr	r2, [pc, #136]	@ (8003ec8 <HAL_DMA_Abort_IT+0xd4>)
 8003e3e:	4293      	cmp	r3, r2
 8003e40:	d029      	beq.n	8003e96 <HAL_DMA_Abort_IT+0xa2>
 8003e42:	687b      	ldr	r3, [r7, #4]
 8003e44:	681b      	ldr	r3, [r3, #0]
 8003e46:	4a21      	ldr	r2, [pc, #132]	@ (8003ecc <HAL_DMA_Abort_IT+0xd8>)
 8003e48:	4293      	cmp	r3, r2
 8003e4a:	d022      	beq.n	8003e92 <HAL_DMA_Abort_IT+0x9e>
 8003e4c:	687b      	ldr	r3, [r7, #4]
 8003e4e:	681b      	ldr	r3, [r3, #0]
 8003e50:	4a1f      	ldr	r2, [pc, #124]	@ (8003ed0 <HAL_DMA_Abort_IT+0xdc>)
 8003e52:	4293      	cmp	r3, r2
 8003e54:	d01a      	beq.n	8003e8c <HAL_DMA_Abort_IT+0x98>
 8003e56:	687b      	ldr	r3, [r7, #4]
 8003e58:	681b      	ldr	r3, [r3, #0]
 8003e5a:	4a1e      	ldr	r2, [pc, #120]	@ (8003ed4 <HAL_DMA_Abort_IT+0xe0>)
 8003e5c:	4293      	cmp	r3, r2
 8003e5e:	d012      	beq.n	8003e86 <HAL_DMA_Abort_IT+0x92>
 8003e60:	687b      	ldr	r3, [r7, #4]
 8003e62:	681b      	ldr	r3, [r3, #0]
 8003e64:	4a1c      	ldr	r2, [pc, #112]	@ (8003ed8 <HAL_DMA_Abort_IT+0xe4>)
 8003e66:	4293      	cmp	r3, r2
 8003e68:	d00a      	beq.n	8003e80 <HAL_DMA_Abort_IT+0x8c>
 8003e6a:	687b      	ldr	r3, [r7, #4]
 8003e6c:	681b      	ldr	r3, [r3, #0]
 8003e6e:	4a1b      	ldr	r2, [pc, #108]	@ (8003edc <HAL_DMA_Abort_IT+0xe8>)
 8003e70:	4293      	cmp	r3, r2
 8003e72:	d102      	bne.n	8003e7a <HAL_DMA_Abort_IT+0x86>
 8003e74:	f44f 1380 	mov.w	r3, #1048576	@ 0x100000
 8003e78:	e00e      	b.n	8003e98 <HAL_DMA_Abort_IT+0xa4>
 8003e7a:	f04f 7380 	mov.w	r3, #16777216	@ 0x1000000
 8003e7e:	e00b      	b.n	8003e98 <HAL_DMA_Abort_IT+0xa4>
 8003e80:	f44f 3380 	mov.w	r3, #65536	@ 0x10000
 8003e84:	e008      	b.n	8003e98 <HAL_DMA_Abort_IT+0xa4>
 8003e86:	f44f 5380 	mov.w	r3, #4096	@ 0x1000
 8003e8a:	e005      	b.n	8003e98 <HAL_DMA_Abort_IT+0xa4>
 8003e8c:	f44f 7380 	mov.w	r3, #256	@ 0x100
 8003e90:	e002      	b.n	8003e98 <HAL_DMA_Abort_IT+0xa4>
 8003e92:	2310      	movs	r3, #16
 8003e94:	e000      	b.n	8003e98 <HAL_DMA_Abort_IT+0xa4>
 8003e96:	2301      	movs	r3, #1
 8003e98:	4a11      	ldr	r2, [pc, #68]	@ (8003ee0 <HAL_DMA_Abort_IT+0xec>)
 8003e9a:	6053      	str	r3, [r2, #4]

    /* Change the DMA state */
    hdma->State = HAL_DMA_STATE_READY;
 8003e9c:	687b      	ldr	r3, [r7, #4]
 8003e9e:	2201      	movs	r2, #1
 8003ea0:	f883 2021 	strb.w	r2, [r3, #33]	@ 0x21

    /* Process Unlocked */
    __HAL_UNLOCK(hdma);
 8003ea4:	687b      	ldr	r3, [r7, #4]
 8003ea6:	2200      	movs	r2, #0
 8003ea8:	f883 2020 	strb.w	r2, [r3, #32]

    /* Call User Abort callback */
    if(hdma->XferAbortCallback != NULL)
 8003eac:	687b      	ldr	r3, [r7, #4]
 8003eae:	6b5b      	ldr	r3, [r3, #52]	@ 0x34
 8003eb0:	2b00      	cmp	r3, #0
 8003eb2:	d003      	beq.n	8003ebc <HAL_DMA_Abort_IT+0xc8>
    {
      hdma->XferAbortCallback(hdma);
 8003eb4:	687b      	ldr	r3, [r7, #4]
 8003eb6:	6b5b      	ldr	r3, [r3, #52]	@ 0x34
 8003eb8:	6878      	ldr	r0, [r7, #4]
 8003eba:	4798      	blx	r3
    } 
  }
  return status;
 8003ebc:	7bfb      	ldrb	r3, [r7, #15]
}
 8003ebe:	4618      	mov	r0, r3
 8003ec0:	3710      	adds	r7, #16
 8003ec2:	46bd      	mov	sp, r7
 8003ec4:	bd80      	pop	{r7, pc}
 8003ec6:	bf00      	nop
 8003ec8:	40020008 	.word	0x40020008
 8003ecc:	4002001c 	.word	0x4002001c
 8003ed0:	40020030 	.word	0x40020030
 8003ed4:	40020044 	.word	0x40020044
 8003ed8:	40020058 	.word	0x40020058
 8003edc:	4002006c 	.word	0x4002006c
 8003ee0:	40020000 	.word	0x40020000

08003ee4 <HAL_DMA_IRQHandler>:
  * @param  hdma: pointer to a DMA_HandleTypeDef structure that contains
  *               the configuration information for the specified DMA Channel.  
  * @retval None
  */
void HAL_DMA_IRQHandler(DMA_HandleTypeDef *hdma)
{
 8003ee4:	b580      	push	{r7, lr}
 8003ee6:	b084      	sub	sp, #16
 8003ee8:	af00      	add	r7, sp, #0
 8003eea:	6078      	str	r0, [r7, #4]
  uint32_t flag_it = hdma->DmaBaseAddress->ISR;
 8003eec:	687b      	ldr	r3, [r7, #4]
 8003eee:	6bdb      	ldr	r3, [r3, #60]	@ 0x3c
 8003ef0:	681b      	ldr	r3, [r3, #0]
 8003ef2:	60fb      	str	r3, [r7, #12]
  uint32_t source_it = hdma->Instance->CCR;
 8003ef4:	687b      	ldr	r3, [r7, #4]
 8003ef6:	681b      	ldr	r3, [r3, #0]
 8003ef8:	681b      	ldr	r3, [r3, #0]
 8003efa:	60bb      	str	r3, [r7, #8]
  
  /* Half Transfer Complete Interrupt management ******************************/
  if (((flag_it & (DMA_FLAG_HT1 << hdma->ChannelIndex)) != RESET) && ((source_it & DMA_IT_HT) != RESET))
 8003efc:	687b      	ldr	r3, [r7, #4]
 8003efe:	6c1b      	ldr	r3, [r3, #64]	@ 0x40
 8003f00:	2204      	movs	r2, #4
 8003f02:	409a      	lsls	r2, r3
 8003f04:	68fb      	ldr	r3, [r7, #12]
 8003f06:	4013      	ands	r3, r2
 8003f08:	2b00      	cmp	r3, #0
 8003f0a:	d04f      	beq.n	8003fac <HAL_DMA_IRQHandler+0xc8>
 8003f0c:	68bb      	ldr	r3, [r7, #8]
 8003f0e:	f003 0304 	and.w	r3, r3, #4
 8003f12:	2b00      	cmp	r3, #0
 8003f14:	d04a      	beq.n	8003fac <HAL_DMA_IRQHandler+0xc8>
  {
    /* Disable the half transfer interrupt if the DMA mode is not CIRCULAR */
    if((hdma->Instance->CCR & DMA_CCR_CIRC) == 0U)
 8003f16:	687b      	ldr	r3, [r7, #4]
 8003f18:	681b      	ldr	r3, [r3, #0]
 8003f1a:	681b      	ldr	r3, [r3, #0]
 8003f1c:	f003 0320 	and.w	r3, r3, #32
 8003f20:	2b00      	cmp	r3, #0
 8003f22:	d107      	bne.n	8003f34 <HAL_DMA_IRQHandler+0x50>
    {
      /* Disable the half transfer interrupt */
      __HAL_DMA_DISABLE_IT(hdma, DMA_IT_HT);
 8003f24:	687b      	ldr	r3, [r7, #4]
 8003f26:	681b      	ldr	r3, [r3, #0]
 8003f28:	681a      	ldr	r2, [r3, #0]
 8003f2a:	687b      	ldr	r3, [r7, #4]
 8003f2c:	681b      	ldr	r3, [r3, #0]
 8003f2e:	f022 0204 	bic.w	r2, r2, #4
 8003f32:	601a      	str	r2, [r3, #0]
    }
    /* Clear the half transfer complete flag */
    __HAL_DMA_CLEAR_FLAG(hdma, __HAL_DMA_GET_HT_FLAG_INDEX(hdma));
 8003f34:	687b      	ldr	r3, [r7, #4]
 8003f36:	681b      	ldr	r3, [r3, #0]
 8003f38:	4a66      	ldr	r2, [pc, #408]	@ (80040d4 <HAL_DMA_IRQHandler+0x1f0>)
 8003f3a:	4293      	cmp	r3, r2
 8003f3c:	d029      	beq.n	8003f92 <HAL_DMA_IRQHandler+0xae>
 8003f3e:	687b      	ldr	r3, [r7, #4]
 8003f40:	681b      	ldr	r3, [r3, #0]
 8003f42:	4a65      	ldr	r2, [pc, #404]	@ (80040d8 <HAL_DMA_IRQHandler+0x1f4>)
 8003f44:	4293      	cmp	r3, r2
 8003f46:	d022      	beq.n	8003f8e <HAL_DMA_IRQHandler+0xaa>
 8003f48:	687b      	ldr	r3, [r7, #4]
 8003f4a:	681b      	ldr	r3, [r3, #0]
 8003f4c:	4a63      	ldr	r2, [pc, #396]	@ (80040dc <HAL_DMA_IRQHandler+0x1f8>)
 8003f4e:	4293      	cmp	r3, r2
 8003f50:	d01a      	beq.n	8003f88 <HAL_DMA_IRQHandler+0xa4>
 8003f52:	687b      	ldr	r3, [r7, #4]
 8003f54:	681b      	ldr	r3, [r3, #0]
 8003f56:	4a62      	ldr	r2, [pc, #392]	@ (80040e0 <HAL_DMA_IRQHandler+0x1fc>)
 8003f58:	4293      	cmp	r3, r2
 8003f5a:	d012      	beq.n	8003f82 <HAL_DMA_IRQHandler+0x9e>
 8003f5c:	687b      	ldr	r3, [r7, #4]
 8003f5e:	681b      	ldr	r3, [r3, #0]
 8003f60:	4a60      	ldr	r2, [pc, #384]	@ (80040e4 <HAL_DMA_IRQHandler+0x200>)
 8003f62:	4293      	cmp	r3, r2
 8003f64:	d00a      	beq.n	8003f7c <HAL_DMA_IRQHandler+0x98>
 8003f66:	687b      	ldr	r3, [r7, #4]
 8003f68:	681b      	ldr	r3, [r3, #0]
 8003f6a:	4a5f      	ldr	r2, [pc, #380]	@ (80040e8 <HAL_DMA_IRQHandler+0x204>)
 8003f6c:	4293      	cmp	r3, r2
 8003f6e:	d102      	bne.n	8003f76 <HAL_DMA_IRQHandler+0x92>
 8003f70:	f44f 0380 	mov.w	r3, #4194304	@ 0x400000
 8003f74:	e00e      	b.n	8003f94 <HAL_DMA_IRQHandler+0xb0>
 8003f76:	f04f 6380 	mov.w	r3, #67108864	@ 0x4000000
 8003f7a:	e00b      	b.n	8003f94 <HAL_DMA_IRQHandler+0xb0>
 8003f7c:	f44f 2380 	mov.w	r3, #262144	@ 0x40000
 8003f80:	e008      	b.n	8003f94 <HAL_DMA_IRQHandler+0xb0>
 8003f82:	f44f 4380 	mov.w	r3, #16384	@ 0x4000
 8003f86:	e005      	b.n	8003f94 <HAL_DMA_IRQHandler+0xb0>
 8003f88:	f44f 6380 	mov.w	r3, #1024	@ 0x400
 8003f8c:	e002      	b.n	8003f94 <HAL_DMA_IRQHandler+0xb0>
 8003f8e:	2340      	movs	r3, #64	@ 0x40
 8003f90:	e000      	b.n	8003f94 <HAL_DMA_IRQHandler+0xb0>
 8003f92:	2304      	movs	r3, #4
 8003f94:	4a55      	ldr	r2, [pc, #340]	@ (80040ec <HAL_DMA_IRQHandler+0x208>)
 8003f96:	6053      	str	r3, [r2, #4]

    /* DMA peripheral state is not updated in Half Transfer */
    /* but in Transfer Complete case */

    if(hdma->XferHalfCpltCallback != NULL)
 8003f98:	687b      	ldr	r3, [r7, #4]
 8003f9a:	6adb      	ldr	r3, [r3, #44]	@ 0x2c
 8003f9c:	2b00      	cmp	r3, #0
 8003f9e:	f000 8094 	beq.w	80040ca <HAL_DMA_IRQHandler+0x1e6>
    {
      /* Half transfer callback */
      hdma->XferHalfCpltCallback(hdma);
 8003fa2:	687b      	ldr	r3, [r7, #4]
 8003fa4:	6adb      	ldr	r3, [r3, #44]	@ 0x2c
 8003fa6:	6878      	ldr	r0, [r7, #4]
 8003fa8:	4798      	blx	r3
    if(hdma->XferHalfCpltCallback != NULL)
 8003faa:	e08e      	b.n	80040ca <HAL_DMA_IRQHandler+0x1e6>
    }
  }

  /* Transfer Complete Interrupt management ***********************************/
  else if (((flag_it & (DMA_FLAG_TC1 << hdma->ChannelIndex)) != RESET) && ((source_it & DMA_IT_TC) != RESET))
 8003fac:	687b      	ldr	r3, [r7, #4]
 8003fae:	6c1b      	ldr	r3, [r3, #64]	@ 0x40
 8003fb0:	2202      	movs	r2, #2
 8003fb2:	409a      	lsls	r2, r3
 8003fb4:	68fb      	ldr	r3, [r7, #12]
 8003fb6:	4013      	ands	r3, r2
 8003fb8:	2b00      	cmp	r3, #0
 8003fba:	d056      	beq.n	800406a <HAL_DMA_IRQHandler+0x186>
 8003fbc:	68bb      	ldr	r3, [r7, #8]
 8003fbe:	f003 0302 	and.w	r3, r3, #2
 8003fc2:	2b00      	cmp	r3, #0
 8003fc4:	d051      	beq.n	800406a <HAL_DMA_IRQHandler+0x186>
  {
    if((hdma->Instance->CCR & DMA_CCR_CIRC) == 0U)
 8003fc6:	687b      	ldr	r3, [r7, #4]
 8003fc8:	681b      	ldr	r3, [r3, #0]
 8003fca:	681b      	ldr	r3, [r3, #0]
 8003fcc:	f003 0320 	and.w	r3, r3, #32
 8003fd0:	2b00      	cmp	r3, #0
 8003fd2:	d10b      	bne.n	8003fec <HAL_DMA_IRQHandler+0x108>
    {
      /* Disable the transfer complete and error interrupt */
      __HAL_DMA_DISABLE_IT(hdma, DMA_IT_TE | DMA_IT_TC);  
 8003fd4:	687b      	ldr	r3, [r7, #4]
 8003fd6:	681b      	ldr	r3, [r3, #0]
 8003fd8:	681a      	ldr	r2, [r3, #0]
 8003fda:	687b      	ldr	r3, [r7, #4]
 8003fdc:	681b      	ldr	r3, [r3, #0]
 8003fde:	f022 020a 	bic.w	r2, r2, #10
 8003fe2:	601a      	str	r2, [r3, #0]

      /* Change the DMA state */
      hdma->State = HAL_DMA_STATE_READY;
 8003fe4:	687b      	ldr	r3, [r7, #4]
 8003fe6:	2201      	movs	r2, #1
 8003fe8:	f883 2021 	strb.w	r2, [r3, #33]	@ 0x21
    }
    /* Clear the transfer complete flag */
      __HAL_DMA_CLEAR_FLAG(hdma, __HAL_DMA_GET_TC_FLAG_INDEX(hdma));
 8003fec:	687b      	ldr	r3, [r7, #4]
 8003fee:	681b      	ldr	r3, [r3, #0]
 8003ff0:	4a38      	ldr	r2, [pc, #224]	@ (80040d4 <HAL_DMA_IRQHandler+0x1f0>)
 8003ff2:	4293      	cmp	r3, r2
 8003ff4:	d029      	beq.n	800404a <HAL_DMA_IRQHandler+0x166>
 8003ff6:	687b      	ldr	r3, [r7, #4]
 8003ff8:	681b      	ldr	r3, [r3, #0]
 8003ffa:	4a37      	ldr	r2, [pc, #220]	@ (80040d8 <HAL_DMA_IRQHandler+0x1f4>)
 8003ffc:	4293      	cmp	r3, r2
 8003ffe:	d022      	beq.n	8004046 <HAL_DMA_IRQHandler+0x162>
 8004000:	687b      	ldr	r3, [r7, #4]
 8004002:	681b      	ldr	r3, [r3, #0]
 8004004:	4a35      	ldr	r2, [pc, #212]	@ (80040dc <HAL_DMA_IRQHandler+0x1f8>)
 8004006:	4293      	cmp	r3, r2
 8004008:	d01a      	beq.n	8004040 <HAL_DMA_IRQHandler+0x15c>
 800400a:	687b      	ldr	r3, [r7, #4]
 800400c:	681b      	ldr	r3, [r3, #0]
 800400e:	4a34      	ldr	r2, [pc, #208]	@ (80040e0 <HAL_DMA_IRQHandler+0x1fc>)
 8004010:	4293      	cmp	r3, r2
 8004012:	d012      	beq.n	800403a <HAL_DMA_IRQHandler+0x156>
 8004014:	687b      	ldr	r3, [r7, #4]
 8004016:	681b      	ldr	r3, [r3, #0]
 8004018:	4a32      	ldr	r2, [pc, #200]	@ (80040e4 <HAL_DMA_IRQHandler+0x200>)
 800401a:	4293      	cmp	r3, r2
 800401c:	d00a      	beq.n	8004034 <HAL_DMA_IRQHandler+0x150>
 800401e:	687b      	ldr	r3, [r7, #4]
 8004020:	681b      	ldr	r3, [r3, #0]
 8004022:	4a31      	ldr	r2, [pc, #196]	@ (80040e8 <HAL_DMA_IRQHandler+0x204>)
 8004024:	4293      	cmp	r3, r2
 8004026:	d102      	bne.n	800402e <HAL_DMA_IRQHandler+0x14a>
 8004028:	f44f 1300 	mov.w	r3, #2097152	@ 0x200000
 800402c:	e00e      	b.n	800404c <HAL_DMA_IRQHandler+0x168>
 800402e:	f04f 7300 	mov.w	r3, #33554432	@ 0x2000000
 8004032:	e00b      	b.n	800404c <HAL_DMA_IRQHandler+0x168>
 8004034:	f44f 3300 	mov.w	r3, #131072	@ 0x20000
 8004038:	e008      	b.n	800404c <HAL_DMA_IRQHandler+0x168>
 800403a:	f44f 5300 	mov.w	r3, #8192	@ 0x2000
 800403e:	e005      	b.n	800404c <HAL_DMA_IRQHandler+0x168>
 8004040:	f44f 7300 	mov.w	r3, #512	@ 0x200
 8004044:	e002      	b.n	800404c <HAL_DMA_IRQHandler+0x168>
 8004046:	2320      	movs	r3, #32
 8004048:	e000      	b.n	800404c <HAL_DMA_IRQHandler+0x168>
 800404a:	2302      	movs	r3, #2
 800404c:	4a27      	ldr	r2, [pc, #156]	@ (80040ec <HAL_DMA_IRQHandler+0x208>)
 800404e:	6053      	str	r3, [r2, #4]

    /* Process Unlocked */
    __HAL_UNLOCK(hdma);
 8004050:	687b      	ldr	r3, [r7, #4]
 8004052:	2200      	movs	r2, #0
 8004054:	f883 2020 	strb.w	r2, [r3, #32]

    if(hdma->XferCpltCallback != NULL)
 8004058:	687b      	ldr	r3, [r7, #4]
 800405a:	6a9b      	ldr	r3, [r3, #40]	@ 0x28
 800405c:	2b00      	cmp	r3, #0
 800405e:	d034      	beq.n	80040ca <HAL_DMA_IRQHandler+0x1e6>
    {
      /* Transfer complete callback */
      hdma->XferCpltCallback(hdma);
 8004060:	687b      	ldr	r3, [r7, #4]
 8004062:	6a9b      	ldr	r3, [r3, #40]	@ 0x28
 8004064:	6878      	ldr	r0, [r7, #4]
 8004066:	4798      	blx	r3
    if(hdma->XferCpltCallback != NULL)
 8004068:	e02f      	b.n	80040ca <HAL_DMA_IRQHandler+0x1e6>
    }
  }

  /* Transfer Error Interrupt management **************************************/
  else if (( RESET != (flag_it & (DMA_FLAG_TE1 << hdma->ChannelIndex))) && (RESET != (source_it & DMA_IT_TE)))
 800406a:	687b      	ldr	r3, [r7, #4]
 800406c:	6c1b      	ldr	r3, [r3, #64]	@ 0x40
 800406e:	2208      	movs	r2, #8
 8004070:	409a      	lsls	r2, r3
 8004072:	68fb      	ldr	r3, [r7, #12]
 8004074:	4013      	ands	r3, r2
 8004076:	2b00      	cmp	r3, #0
 8004078:	d028      	beq.n	80040cc <HAL_DMA_IRQHandler+0x1e8>
 800407a:	68bb      	ldr	r3, [r7, #8]
 800407c:	f003 0308 	and.w	r3, r3, #8
 8004080:	2b00      	cmp	r3, #0
 8004082:	d023      	beq.n	80040cc <HAL_DMA_IRQHandler+0x1e8>
  {
    /* When a DMA transfer error occurs */
    /* A hardware clear of its EN bits is performed */
    /* Disable ALL DMA IT */
    __HAL_DMA_DISABLE_IT(hdma, (DMA_IT_TC | DMA_IT_HT | DMA_IT_TE));
 8004084:	687b      	ldr	r3, [r7, #4]
 8004086:	681b      	ldr	r3, [r3, #0]
 8004088:	681a      	ldr	r2, [r3, #0]
 800408a:	687b      	ldr	r3, [r7, #4]
 800408c:	681b      	ldr	r3, [r3, #0]
 800408e:	f022 020e 	bic.w	r2, r2, #14
 8004092:	601a      	str	r2, [r3, #0]

    /* Clear all flags */
    hdma->DmaBaseAddress->IFCR = (DMA_ISR_GIF1 << hdma->ChannelIndex);
 8004094:	687b      	ldr	r3, [r7, #4]
 8004096:	6c1a      	ldr	r2, [r3, #64]	@ 0x40
 8004098:	687b      	ldr	r3, [r7, #4]
 800409a:	6bdb      	ldr	r3, [r3, #60]	@ 0x3c
 800409c:	2101      	movs	r1, #1
 800409e:	fa01 f202 	lsl.w	r2, r1, r2
 80040a2:	605a      	str	r2, [r3, #4]

    /* Update error code */
    hdma->ErrorCode = HAL_DMA_ERROR_TE;
 80040a4:	687b      	ldr	r3, [r7, #4]
 80040a6:	2201      	movs	r2, #1
 80040a8:	639a      	str	r2, [r3, #56]	@ 0x38

    /* Change the DMA state */
    hdma->State = HAL_DMA_STATE_READY;
 80040aa:	687b      	ldr	r3, [r7, #4]
 80040ac:	2201      	movs	r2, #1
 80040ae:	f883 2021 	strb.w	r2, [r3, #33]	@ 0x21

    /* Process Unlocked */
    __HAL_UNLOCK(hdma);
 80040b2:	687b      	ldr	r3, [r7, #4]
 80040b4:	2200      	movs	r2, #0
 80040b6:	f883 2020 	strb.w	r2, [r3, #32]

    if (hdma->XferErrorCallback != NULL)
 80040ba:	687b      	ldr	r3, [r7, #4]
 80040bc:	6b1b      	ldr	r3, [r3, #48]	@ 0x30
 80040be:	2b00      	cmp	r3, #0
 80040c0:	d004      	beq.n	80040cc <HAL_DMA_IRQHandler+0x1e8>
    {
      /* Transfer error callback */
      hdma->XferErrorCallback(hdma);
 80040c2:	687b      	ldr	r3, [r7, #4]
 80040c4:	6b1b      	ldr	r3, [r3, #48]	@ 0x30
 80040c6:	6878      	ldr	r0, [r7, #4]
 80040c8:	4798      	blx	r3
    }
  }
  return;
 80040ca:	bf00      	nop
 80040cc:	bf00      	nop
}
 80040ce:	3710      	adds	r7, #16
 80040d0:	46bd      	mov	sp, r7
 80040d2:	bd80      	pop	{r7, pc}
 80040d4:	40020008 	.word	0x40020008
 80040d8:	4002001c 	.word	0x4002001c
 80040dc:	40020030 	.word	0x40020030
 80040e0:	40020044 	.word	0x40020044
 80040e4:	40020058 	.word	0x40020058
 80040e8:	4002006c 	.word	0x4002006c
 80040ec:	40020000 	.word	0x40020000

080040f0 <HAL_GPIO_Init>:
  * @param  GPIO_Init: pointer to a GPIO_InitTypeDef structure that contains
  *         the configuration information for the specified GPIO peripheral.
  * @retval None
  */
void HAL_GPIO_Init(GPIO_TypeDef  *GPIOx, GPIO_InitTypeDef *GPIO_Init)
{
 80040f0:	b480      	push	{r7}
 80040f2:	b08b      	sub	sp, #44	@ 0x2c
 80040f4:	af00      	add	r7, sp, #0
 80040f6:	6078      	str	r0, [r7, #4]
 80040f8:	6039      	str	r1, [r7, #0]
  uint32_t position = 0x00u;
 80040fa:	2300      	movs	r3, #0
 80040fc:	627b      	str	r3, [r7, #36]	@ 0x24
  uint32_t ioposition;
  uint32_t iocurrent;
  uint32_t temp;
  uint32_t config = 0x00u;
 80040fe:	2300      	movs	r3, #0
 8004100:	623b      	str	r3, [r7, #32]
  assert_param(IS_GPIO_ALL_INSTANCE(GPIOx));
  assert_param(IS_GPIO_PIN(GPIO_Init->Pin));
  assert_param(IS_GPIO_MODE(GPIO_Init->Mode));

  /* Configure the port pins */
  while (((GPIO_Init->Pin) >> position) != 0x00u)
 8004102:	e169      	b.n	80043d8 <HAL_GPIO_Init+0x2e8>
  {
    /* Get the IO position */
    ioposition = (0x01uL << position);
 8004104:	2201      	movs	r2, #1
 8004106:	6a7b      	ldr	r3, [r7, #36]	@ 0x24
 8004108:	fa02 f303 	lsl.w	r3, r2, r3
 800410c:	61fb      	str	r3, [r7, #28]

    /* Get the current IO position */
    iocurrent = (uint32_t)(GPIO_Init->Pin) & ioposition;
 800410e:	683b      	ldr	r3, [r7, #0]
 8004110:	681b      	ldr	r3, [r3, #0]
 8004112:	69fa      	ldr	r2, [r7, #28]
 8004114:	4013      	ands	r3, r2
 8004116:	61bb      	str	r3, [r7, #24]

    if (iocurrent == ioposition)
 8004118:	69ba      	ldr	r2, [r7, #24]
 800411a:	69fb      	ldr	r3, [r7, #28]
 800411c:	429a      	cmp	r2, r3
 800411e:	f040 8158 	bne.w	80043d2 <HAL_GPIO_Init+0x2e2>
    {
      /* Check the Alternate function parameters */
      assert_param(IS_GPIO_AF_INSTANCE(GPIOx));

      /* Based on the required mode, filling config variable with MODEy[1:0] and CNFy[3:2] corresponding bits */
      switch (GPIO_Init->Mode)
 8004122:	683b      	ldr	r3, [r7, #0]
 8004124:	685b      	ldr	r3, [r3, #4]
 8004126:	4a9a      	ldr	r2, [pc, #616]	@ (8004390 <HAL_GPIO_Init+0x2a0>)
 8004128:	4293      	cmp	r3, r2
 800412a:	d05e      	beq.n	80041ea <HAL_GPIO_Init+0xfa>
 800412c:	4a98      	ldr	r2, [pc, #608]	@ (8004390 <HAL_GPIO_Init+0x2a0>)
 800412e:	4293      	cmp	r3, r2
 8004130:	d875      	bhi.n	800421e <HAL_GPIO_Init+0x12e>
 8004132:	4a98      	ldr	r2, [pc, #608]	@ (8004394 <HAL_GPIO_Init+0x2a4>)
 8004134:	4293      	cmp	r3, r2
 8004136:	d058      	beq.n	80041ea <HAL_GPIO_Init+0xfa>
 8004138:	4a96      	ldr	r2, [pc, #600]	@ (8004394 <HAL_GPIO_Init+0x2a4>)
 800413a:	4293      	cmp	r3, r2
 800413c:	d86f      	bhi.n	800421e <HAL_GPIO_Init+0x12e>
 800413e:	4a96      	ldr	r2, [pc, #600]	@ (8004398 <HAL_GPIO_Init+0x2a8>)
 8004140:	4293      	cmp	r3, r2
 8004142:	d052      	beq.n	80041ea <HAL_GPIO_Init+0xfa>
 8004144:	4a94      	ldr	r2, [pc, #592]	@ (8004398 <HAL_GPIO_Init+0x2a8>)
 8004146:	4293      	cmp	r3, r2
 8004148:	d869      	bhi.n	800421e <HAL_GPIO_Init+0x12e>
 800414a:	4a94      	ldr	r2, [pc, #592]	@ (800439c <HAL_GPIO_Init+0x2ac>)
 800414c:	4293      	cmp	r3, r2
 800414e:	d04c      	beq.n	80041ea <HAL_GPIO_Init+0xfa>
 8004150:	4a92      	ldr	r2, [pc, #584]	@ (800439c <HAL_GPIO_Init+0x2ac>)
 8004152:	4293      	cmp	r3, r2
 8004154:	d863      	bhi.n	800421e <HAL_GPIO_Init+0x12e>
 8004156:	4a92      	ldr	r2, [pc, #584]	@ (80043a0 <HAL_GPIO_Init+0x2b0>)
 8004158:	4293      	cmp	r3, r2
 800415a:	d046      	beq.n	80041ea <HAL_GPIO_Init+0xfa>
 800415c:	4a90      	ldr	r2, [pc, #576]	@ (80043a0 <HAL_GPIO_Init+0x2b0>)
 800415e:	4293      	cmp	r3, r2
 8004160:	d85d      	bhi.n	800421e <HAL_GPIO_Init+0x12e>
 8004162:	2b12      	cmp	r3, #18
 8004164:	d82a      	bhi.n	80041bc <HAL_GPIO_Init+0xcc>
 8004166:	2b12      	cmp	r3, #18
 8004168:	d859      	bhi.n	800421e <HAL_GPIO_Init+0x12e>
 800416a:	a201      	add	r2, pc, #4	@ (adr r2, 8004170 <HAL_GPIO_Init+0x80>)
 800416c:	f852 f023 	ldr.w	pc, [r2, r3, lsl #2]
 8004170:	080041eb 	.word	0x080041eb
 8004174:	080041c5 	.word	0x080041c5
 8004178:	080041d7 	.word	0x080041d7
 800417c:	08004219 	.word	0x08004219
 8004180:	0800421f 	.word	0x0800421f
 8004184:	0800421f 	.word	0x0800421f
 8004188:	0800421f 	.word	0x0800421f
 800418c:	0800421f 	.word	0x0800421f
 8004190:	0800421f 	.word	0x0800421f
 8004194:	0800421f 	.word	0x0800421f
 8004198:	0800421f 	.word	0x0800421f
 800419c:	0800421f 	.word	0x0800421f
 80041a0:	0800421f 	.word	0x0800421f
 80041a4:	0800421f 	.word	0x0800421f
 80041a8:	0800421f 	.word	0x0800421f
 80041ac:	0800421f 	.word	0x0800421f
 80041b0:	0800421f 	.word	0x0800421f
 80041b4:	080041cd 	.word	0x080041cd
 80041b8:	080041e1 	.word	0x080041e1
 80041bc:	4a79      	ldr	r2, [pc, #484]	@ (80043a4 <HAL_GPIO_Init+0x2b4>)
 80041be:	4293      	cmp	r3, r2
 80041c0:	d013      	beq.n	80041ea <HAL_GPIO_Init+0xfa>
          config = GPIO_CR_MODE_INPUT + GPIO_CR_CNF_ANALOG;
          break;

        /* Parameters are checked with assert_param */
        default:
          break;
 80041c2:	e02c      	b.n	800421e <HAL_GPIO_Init+0x12e>
          config = GPIO_Init->Speed + GPIO_CR_CNF_GP_OUTPUT_PP;
 80041c4:	683b      	ldr	r3, [r7, #0]
 80041c6:	68db      	ldr	r3, [r3, #12]
 80041c8:	623b      	str	r3, [r7, #32]
          break;
 80041ca:	e029      	b.n	8004220 <HAL_GPIO_Init+0x130>
          config = GPIO_Init->Speed + GPIO_CR_CNF_GP_OUTPUT_OD;
 80041cc:	683b      	ldr	r3, [r7, #0]
 80041ce:	68db      	ldr	r3, [r3, #12]
 80041d0:	3304      	adds	r3, #4
 80041d2:	623b      	str	r3, [r7, #32]
          break;
 80041d4:	e024      	b.n	8004220 <HAL_GPIO_Init+0x130>
          config = GPIO_Init->Speed + GPIO_CR_CNF_AF_OUTPUT_PP;
 80041d6:	683b      	ldr	r3, [r7, #0]
 80041d8:	68db      	ldr	r3, [r3, #12]
 80041da:	3308      	adds	r3, #8
 80041dc:	623b      	str	r3, [r7, #32]
          break;
 80041de:	e01f      	b.n	8004220 <HAL_GPIO_Init+0x130>
          config = GPIO_Init->Speed + GPIO_CR_CNF_AF_OUTPUT_OD;
 80041e0:	683b      	ldr	r3, [r7, #0]
 80041e2:	68db      	ldr	r3, [r3, #12]
 80041e4:	330c      	adds	r3, #12
 80041e6:	623b      	str	r3, [r7, #32]
          break;
 80041e8:	e01a      	b.n	8004220 <HAL_GPIO_Init+0x130>
          if (GPIO_Init->Pull == GPIO_NOPULL)
 80041ea:	683b      	ldr	r3, [r7, #0]
 80041ec:	689b      	ldr	r3, [r3, #8]
 80041ee:	2b00      	cmp	r3, #0
 80041f0:	d102      	bne.n	80041f8 <HAL_GPIO_Init+0x108>
            config = GPIO_CR_MODE_INPUT + GPIO_CR_CNF_INPUT_FLOATING;
 80041f2:	2304      	movs	r3, #4
 80041f4:	623b      	str	r3, [r7, #32]
          break;
 80041f6:	e013      	b.n	8004220 <HAL_GPIO_Init+0x130>
          else if (GPIO_Init->Pull == GPIO_PULLUP)
 80041f8:	683b      	ldr	r3, [r7, #0]
 80041fa:	689b      	ldr	r3, [r3, #8]
 80041fc:	2b01      	cmp	r3, #1
 80041fe:	d105      	bne.n	800420c <HAL_GPIO_Init+0x11c>
            config = GPIO_CR_MODE_INPUT + GPIO_CR_CNF_INPUT_PU_PD;
 8004200:	2308      	movs	r3, #8
 8004202:	623b      	str	r3, [r7, #32]
            GPIOx->BSRR = ioposition;
 8004204:	687b      	ldr	r3, [r7, #4]
 8004206:	69fa      	ldr	r2, [r7, #28]
 8004208:	611a      	str	r2, [r3, #16]
          break;
 800420a:	e009      	b.n	8004220 <HAL_GPIO_Init+0x130>
            config = GPIO_CR_MODE_INPUT + GPIO_CR_CNF_INPUT_PU_PD;
 800420c:	2308      	movs	r3, #8
 800420e:	623b      	str	r3, [r7, #32]
            GPIOx->BRR = ioposition;
 8004210:	687b      	ldr	r3, [r7, #4]
 8004212:	69fa      	ldr	r2, [r7, #28]
 8004214:	615a      	str	r2, [r3, #20]
          break;
 8004216:	e003      	b.n	8004220 <HAL_GPIO_Init+0x130>
          config = GPIO_CR_MODE_INPUT + GPIO_CR_CNF_ANALOG;
 8004218:	2300      	movs	r3, #0
 800421a:	623b      	str	r3, [r7, #32]
          break;
 800421c:	e000      	b.n	8004220 <HAL_GPIO_Init+0x130>
          break;
 800421e:	bf00      	nop
      }

      /* Check if the current bit belongs to first half or last half of the pin count number
       in order to address CRH or CRL register*/
      configregister = (iocurrent < GPIO_PIN_8) ? &GPIOx->CRL     : &GPIOx->CRH;
 8004220:	69bb      	ldr	r3, [r7, #24]
 8004222:	2bff      	cmp	r3, #255	@ 0xff
 8004224:	d801      	bhi.n	800422a <HAL_GPIO_Init+0x13a>
 8004226:	687b      	ldr	r3, [r7, #4]
 8004228:	e001      	b.n	800422e <HAL_GPIO_Init+0x13e>
 800422a:	687b      	ldr	r3, [r7, #4]
 800422c:	3304      	adds	r3, #4
 800422e:	617b      	str	r3, [r7, #20]
      registeroffset = (iocurrent < GPIO_PIN_8) ? (position << 2u) : ((position - 8u) << 2u);
 8004230:	69bb      	ldr	r3, [r7, #24]
 8004232:	2bff      	cmp	r3, #255	@ 0xff
 8004234:	d802      	bhi.n	800423c <HAL_GPIO_Init+0x14c>
 8004236:	6a7b      	ldr	r3, [r7, #36]	@ 0x24
 8004238:	009b      	lsls	r3, r3, #2
 800423a:	e002      	b.n	8004242 <HAL_GPIO_Init+0x152>
 800423c:	6a7b      	ldr	r3, [r7, #36]	@ 0x24
 800423e:	3b08      	subs	r3, #8
 8004240:	009b      	lsls	r3, r3, #2
 8004242:	613b      	str	r3, [r7, #16]

      /* Apply the new configuration of the pin to the register */
      MODIFY_REG((*configregister), ((GPIO_CRL_MODE0 | GPIO_CRL_CNF0) << registeroffset), (config << registeroffset));
 8004244:	697b      	ldr	r3, [r7, #20]
 8004246:	681a      	ldr	r2, [r3, #0]
 8004248:	210f      	movs	r1, #15
 800424a:	693b      	ldr	r3, [r7, #16]
 800424c:	fa01 f303 	lsl.w	r3, r1, r3
 8004250:	43db      	mvns	r3, r3
 8004252:	401a      	ands	r2, r3
 8004254:	6a39      	ldr	r1, [r7, #32]
 8004256:	693b      	ldr	r3, [r7, #16]
 8004258:	fa01 f303 	lsl.w	r3, r1, r3
 800425c:	431a      	orrs	r2, r3
 800425e:	697b      	ldr	r3, [r7, #20]
 8004260:	601a      	str	r2, [r3, #0]

      /*--------------------- EXTI Mode Configuration ------------------------*/
      /* Configure the External Interrupt or event for the current IO */
      if ((GPIO_Init->Mode & EXTI_MODE) == EXTI_MODE)
 8004262:	683b      	ldr	r3, [r7, #0]
 8004264:	685b      	ldr	r3, [r3, #4]
 8004266:	f003 5380 	and.w	r3, r3, #268435456	@ 0x10000000
 800426a:	2b00      	cmp	r3, #0
 800426c:	f000 80b1 	beq.w	80043d2 <HAL_GPIO_Init+0x2e2>
      {
        /* Enable AFIO Clock */
        __HAL_RCC_AFIO_CLK_ENABLE();
 8004270:	4b4d      	ldr	r3, [pc, #308]	@ (80043a8 <HAL_GPIO_Init+0x2b8>)
 8004272:	699b      	ldr	r3, [r3, #24]
 8004274:	4a4c      	ldr	r2, [pc, #304]	@ (80043a8 <HAL_GPIO_Init+0x2b8>)
 8004276:	f043 0301 	orr.w	r3, r3, #1
 800427a:	6193      	str	r3, [r2, #24]
 800427c:	4b4a      	ldr	r3, [pc, #296]	@ (80043a8 <HAL_GPIO_Init+0x2b8>)
 800427e:	699b      	ldr	r3, [r3, #24]
 8004280:	f003 0301 	and.w	r3, r3, #1
 8004284:	60bb      	str	r3, [r7, #8]
 8004286:	68bb      	ldr	r3, [r7, #8]
        temp = AFIO->EXTICR[position >> 2u];
 8004288:	4a48      	ldr	r2, [pc, #288]	@ (80043ac <HAL_GPIO_Init+0x2bc>)
 800428a:	6a7b      	ldr	r3, [r7, #36]	@ 0x24
 800428c:	089b      	lsrs	r3, r3, #2
 800428e:	3302      	adds	r3, #2
 8004290:	f852 3023 	ldr.w	r3, [r2, r3, lsl #2]
 8004294:	60fb      	str	r3, [r7, #12]
        CLEAR_BIT(temp, (0x0Fu) << (4u * (position & 0x03u)));
 8004296:	6a7b      	ldr	r3, [r7, #36]	@ 0x24
 8004298:	f003 0303 	and.w	r3, r3, #3
 800429c:	009b      	lsls	r3, r3, #2
 800429e:	220f      	movs	r2, #15
 80042a0:	fa02 f303 	lsl.w	r3, r2, r3
 80042a4:	43db      	mvns	r3, r3
 80042a6:	68fa      	ldr	r2, [r7, #12]
 80042a8:	4013      	ands	r3, r2
 80042aa:	60fb      	str	r3, [r7, #12]
        SET_BIT(temp, (GPIO_GET_INDEX(GPIOx)) << (4u * (position & 0x03u)));
 80042ac:	687b      	ldr	r3, [r7, #4]
 80042ae:	4a40      	ldr	r2, [pc, #256]	@ (80043b0 <HAL_GPIO_Init+0x2c0>)
 80042b0:	4293      	cmp	r3, r2
 80042b2:	d013      	beq.n	80042dc <HAL_GPIO_Init+0x1ec>
 80042b4:	687b      	ldr	r3, [r7, #4]
 80042b6:	4a3f      	ldr	r2, [pc, #252]	@ (80043b4 <HAL_GPIO_Init+0x2c4>)
 80042b8:	4293      	cmp	r3, r2
 80042ba:	d00d      	beq.n	80042d8 <HAL_GPIO_Init+0x1e8>
 80042bc:	687b      	ldr	r3, [r7, #4]
 80042be:	4a3e      	ldr	r2, [pc, #248]	@ (80043b8 <HAL_GPIO_Init+0x2c8>)
 80042c0:	4293      	cmp	r3, r2
 80042c2:	d007      	beq.n	80042d4 <HAL_GPIO_Init+0x1e4>
 80042c4:	687b      	ldr	r3, [r7, #4]
 80042c6:	4a3d      	ldr	r2, [pc, #244]	@ (80043bc <HAL_GPIO_Init+0x2cc>)
 80042c8:	4293      	cmp	r3, r2
 80042ca:	d101      	bne.n	80042d0 <HAL_GPIO_Init+0x1e0>
 80042cc:	2303      	movs	r3, #3
 80042ce:	e006      	b.n	80042de <HAL_GPIO_Init+0x1ee>
 80042d0:	2304      	movs	r3, #4
 80042d2:	e004      	b.n	80042de <HAL_GPIO_Init+0x1ee>
 80042d4:	2302      	movs	r3, #2
 80042d6:	e002      	b.n	80042de <HAL_GPIO_Init+0x1ee>
 80042d8:	2301      	movs	r3, #1
 80042da:	e000      	b.n	80042de <HAL_GPIO_Init+0x1ee>
 80042dc:	2300      	movs	r3, #0
 80042de:	6a7a      	ldr	r2, [r7, #36]	@ 0x24
 80042e0:	f002 0203 	and.w	r2, r2, #3
 80042e4:	0092      	lsls	r2, r2, #2
 80042e6:	4093      	lsls	r3, r2
 80042e8:	68fa      	ldr	r2, [r7, #12]
 80042ea:	4313      	orrs	r3, r2
 80042ec:	60fb      	str	r3, [r7, #12]
        AFIO->EXTICR[position >> 2u] = temp;
 80042ee:	492f      	ldr	r1, [pc, #188]	@ (80043ac <HAL_GPIO_Init+0x2bc>)
 80042f0:	6a7b      	ldr	r3, [r7, #36]	@ 0x24
 80042f2:	089b      	lsrs	r3, r3, #2
 80042f4:	3302      	adds	r3, #2
 80042f6:	68fa      	ldr	r2, [r7, #12]
 80042f8:	f841 2023 	str.w	r2, [r1, r3, lsl #2]


        /* Enable or disable the rising trigger */
        if ((GPIO_Init->Mode & RISING_EDGE) == RISING_EDGE)
 80042fc:	683b      	ldr	r3, [r7, #0]
 80042fe:	685b      	ldr	r3, [r3, #4]
 8004300:	f403 1380 	and.w	r3, r3, #1048576	@ 0x100000
 8004304:	2b00      	cmp	r3, #0
 8004306:	d006      	beq.n	8004316 <HAL_GPIO_Init+0x226>
        {
          SET_BIT(EXTI->RTSR, iocurrent);
 8004308:	4b2d      	ldr	r3, [pc, #180]	@ (80043c0 <HAL_GPIO_Init+0x2d0>)
 800430a:	689a      	ldr	r2, [r3, #8]
 800430c:	492c      	ldr	r1, [pc, #176]	@ (80043c0 <HAL_GPIO_Init+0x2d0>)
 800430e:	69bb      	ldr	r3, [r7, #24]
 8004310:	4313      	orrs	r3, r2
 8004312:	608b      	str	r3, [r1, #8]
 8004314:	e006      	b.n	8004324 <HAL_GPIO_Init+0x234>
        }
        else
        {
          CLEAR_BIT(EXTI->RTSR, iocurrent);
 8004316:	4b2a      	ldr	r3, [pc, #168]	@ (80043c0 <HAL_GPIO_Init+0x2d0>)
 8004318:	689a      	ldr	r2, [r3, #8]
 800431a:	69bb      	ldr	r3, [r7, #24]
 800431c:	43db      	mvns	r3, r3
 800431e:	4928      	ldr	r1, [pc, #160]	@ (80043c0 <HAL_GPIO_Init+0x2d0>)
 8004320:	4013      	ands	r3, r2
 8004322:	608b      	str	r3, [r1, #8]
        }

        /* Enable or disable the falling trigger */
        if ((GPIO_Init->Mode & FALLING_EDGE) == FALLING_EDGE)
 8004324:	683b      	ldr	r3, [r7, #0]
 8004326:	685b      	ldr	r3, [r3, #4]
 8004328:	f403 1300 	and.w	r3, r3, #2097152	@ 0x200000
 800432c:	2b00      	cmp	r3, #0
 800432e:	d006      	beq.n	800433e <HAL_GPIO_Init+0x24e>
        {
          SET_BIT(EXTI->FTSR, iocurrent);
 8004330:	4b23      	ldr	r3, [pc, #140]	@ (80043c0 <HAL_GPIO_Init+0x2d0>)
 8004332:	68da      	ldr	r2, [r3, #12]
 8004334:	4922      	ldr	r1, [pc, #136]	@ (80043c0 <HAL_GPIO_Init+0x2d0>)
 8004336:	69bb      	ldr	r3, [r7, #24]
 8004338:	4313      	orrs	r3, r2
 800433a:	60cb      	str	r3, [r1, #12]
 800433c:	e006      	b.n	800434c <HAL_GPIO_Init+0x25c>
        }
        else
        {
          CLEAR_BIT(EXTI->FTSR, iocurrent);
 800433e:	4b20      	ldr	r3, [pc, #128]	@ (80043c0 <HAL_GPIO_Init+0x2d0>)
 8004340:	68da      	ldr	r2, [r3, #12]
 8004342:	69bb      	ldr	r3, [r7, #24]
 8004344:	43db      	mvns	r3, r3
 8004346:	491e      	ldr	r1, [pc, #120]	@ (80043c0 <HAL_GPIO_Init+0x2d0>)
 8004348:	4013      	ands	r3, r2
 800434a:	60cb      	str	r3, [r1, #12]
        }

        /* Configure the event mask */
        if ((GPIO_Init->Mode & GPIO_MODE_EVT) == GPIO_MODE_EVT)
 800434c:	683b      	ldr	r3, [r7, #0]
 800434e:	685b      	ldr	r3, [r3, #4]
 8004350:	f403 3300 	and.w	r3, r3, #131072	@ 0x20000
 8004354:	2b00      	cmp	r3, #0
 8004356:	d006      	beq.n	8004366 <HAL_GPIO_Init+0x276>
        {
          SET_BIT(EXTI->EMR, iocurrent);
 8004358:	4b19      	ldr	r3, [pc, #100]	@ (80043c0 <HAL_GPIO_Init+0x2d0>)
 800435a:	685a      	ldr	r2, [r3, #4]
 800435c:	4918      	ldr	r1, [pc, #96]	@ (80043c0 <HAL_GPIO_Init+0x2d0>)
 800435e:	69bb      	ldr	r3, [r7, #24]
 8004360:	4313      	orrs	r3, r2
 8004362:	604b      	str	r3, [r1, #4]
 8004364:	e006      	b.n	8004374 <HAL_GPIO_Init+0x284>
        }
        else
        {
          CLEAR_BIT(EXTI->EMR, iocurrent);
 8004366:	4b16      	ldr	r3, [pc, #88]	@ (80043c0 <HAL_GPIO_Init+0x2d0>)
 8004368:	685a      	ldr	r2, [r3, #4]
 800436a:	69bb      	ldr	r3, [r7, #24]
 800436c:	43db      	mvns	r3, r3
 800436e:	4914      	ldr	r1, [pc, #80]	@ (80043c0 <HAL_GPIO_Init+0x2d0>)
 8004370:	4013      	ands	r3, r2
 8004372:	604b      	str	r3, [r1, #4]
        }

        /* Configure the interrupt mask */
        if ((GPIO_Init->Mode & GPIO_MODE_IT) == GPIO_MODE_IT)
 8004374:	683b      	ldr	r3, [r7, #0]
 8004376:	685b      	ldr	r3, [r3, #4]
 8004378:	f403 3380 	and.w	r3, r3, #65536	@ 0x10000
 800437c:	2b00      	cmp	r3, #0
 800437e:	d021      	beq.n	80043c4 <HAL_GPIO_Init+0x2d4>
        {
          SET_BIT(EXTI->IMR, iocurrent);
 8004380:	4b0f      	ldr	r3, [pc, #60]	@ (80043c0 <HAL_GPIO_Init+0x2d0>)
 8004382:	681a      	ldr	r2, [r3, #0]
 8004384:	490e      	ldr	r1, [pc, #56]	@ (80043c0 <HAL_GPIO_Init+0x2d0>)
 8004386:	69bb      	ldr	r3, [r7, #24]
 8004388:	4313      	orrs	r3, r2
 800438a:	600b      	str	r3, [r1, #0]
 800438c:	e021      	b.n	80043d2 <HAL_GPIO_Init+0x2e2>
 800438e:	bf00      	nop
 8004390:	10320000 	.word	0x10320000
 8004394:	10310000 	.word	0x10310000
 8004398:	10220000 	.word	0x10220000
 800439c:	10210000 	.word	0x10210000
 80043a0:	10120000 	.word	0x10120000
 80043a4:	10110000 	.word	0x10110000
 80043a8:	40021000 	.word	0x40021000
 80043ac:	40010000 	.word	0x40010000
 80043b0:	40010800 	.word	0x40010800
 80043b4:	40010c00 	.word	0x40010c00
 80043b8:	40011000 	.word	0x40011000
 80043bc:	40011400 	.word	0x40011400
 80043c0:	40010400 	.word	0x40010400
        }
        else
        {
          CLEAR_BIT(EXTI->IMR, iocurrent);
 80043c4:	4b0b      	ldr	r3, [pc, #44]	@ (80043f4 <HAL_GPIO_Init+0x304>)
 80043c6:	681a      	ldr	r2, [r3, #0]
 80043c8:	69bb      	ldr	r3, [r7, #24]
 80043ca:	43db      	mvns	r3, r3
 80043cc:	4909      	ldr	r1, [pc, #36]	@ (80043f4 <HAL_GPIO_Init+0x304>)
 80043ce:	4013      	ands	r3, r2
 80043d0:	600b      	str	r3, [r1, #0]
        }
      }
    }

	position++;
 80043d2:	6a7b      	ldr	r3, [r7, #36]	@ 0x24
 80043d4:	3301      	adds	r3, #1
 80043d6:	627b      	str	r3, [r7, #36]	@ 0x24
  while (((GPIO_Init->Pin) >> position) != 0x00u)
 80043d8:	683b      	ldr	r3, [r7, #0]
 80043da:	681a      	ldr	r2, [r3, #0]
 80043dc:	6a7b      	ldr	r3, [r7, #36]	@ 0x24
 80043de:	fa22 f303 	lsr.w	r3, r2, r3
 80043e2:	2b00      	cmp	r3, #0
 80043e4:	f47f ae8e 	bne.w	8004104 <HAL_GPIO_Init+0x14>
  }
}
 80043e8:	bf00      	nop
 80043ea:	bf00      	nop
 80043ec:	372c      	adds	r7, #44	@ 0x2c
 80043ee:	46bd      	mov	sp, r7
 80043f0:	bc80      	pop	{r7}
 80043f2:	4770      	bx	lr
 80043f4:	40010400 	.word	0x40010400

080043f8 <HAL_GPIO_WritePin>:
  *            @arg GPIO_PIN_RESET: to clear the port pin
  *            @arg GPIO_PIN_SET: to set the port pin
  * @retval None
  */
void HAL_GPIO_WritePin(GPIO_TypeDef *GPIOx, uint16_t GPIO_Pin, GPIO_PinState PinState)
{
 80043f8:	b480      	push	{r7}
 80043fa:	b083      	sub	sp, #12
 80043fc:	af00      	add	r7, sp, #0
 80043fe:	6078      	str	r0, [r7, #4]
 8004400:	460b      	mov	r3, r1
 8004402:	807b      	strh	r3, [r7, #2]
 8004404:	4613      	mov	r3, r2
 8004406:	707b      	strb	r3, [r7, #1]
  /* Check the parameters */
  assert_param(IS_GPIO_PIN(GPIO_Pin));
  assert_param(IS_GPIO_PIN_ACTION(PinState));

  if (PinState != GPIO_PIN_RESET)
 8004408:	787b      	ldrb	r3, [r7, #1]
 800440a:	2b00      	cmp	r3, #0
 800440c:	d003      	beq.n	8004416 <HAL_GPIO_WritePin+0x1e>
  {
    GPIOx->BSRR = GPIO_Pin;
 800440e:	887a      	ldrh	r2, [r7, #2]
 8004410:	687b      	ldr	r3, [r7, #4]
 8004412:	611a      	str	r2, [r3, #16]
  }
  else
  {
    GPIOx->BSRR = (uint32_t)GPIO_Pin << 16u;
  }
}
 8004414:	e003      	b.n	800441e <HAL_GPIO_WritePin+0x26>
    GPIOx->BSRR = (uint32_t)GPIO_Pin << 16u;
 8004416:	887b      	ldrh	r3, [r7, #2]
 8004418:	041a      	lsls	r2, r3, #16
 800441a:	687b      	ldr	r3, [r7, #4]
 800441c:	611a      	str	r2, [r3, #16]
}
 800441e:	bf00      	nop
 8004420:	370c      	adds	r7, #12
 8004422:	46bd      	mov	sp, r7
 8004424:	bc80      	pop	{r7}
 8004426:	4770      	bx	lr

08004428 <HAL_GPIO_EXTI_IRQHandler>:
  * @brief  This function handles EXTI interrupt request.
  * @param  GPIO_Pin: Specifies the pins connected EXTI line
  * @retval None
  */
void HAL_GPIO_EXTI_IRQHandler(uint16_t GPIO_Pin)
{
 8004428:	b580      	push	{r7, lr}
 800442a:	b082      	sub	sp, #8
 800442c:	af00      	add	r7, sp, #0
 800442e:	4603      	mov	r3, r0
 8004430:	80fb      	strh	r3, [r7, #6]
  /* EXTI line interrupt detected */
  if (__HAL_GPIO_EXTI_GET_IT(GPIO_Pin) != 0x00u)
 8004432:	4b08      	ldr	r3, [pc, #32]	@ (8004454 <HAL_GPIO_EXTI_IRQHandler+0x2c>)
 8004434:	695a      	ldr	r2, [r3, #20]
 8004436:	88fb      	ldrh	r3, [r7, #6]
 8004438:	4013      	ands	r3, r2
 800443a:	2b00      	cmp	r3, #0
 800443c:	d006      	beq.n	800444c <HAL_GPIO_EXTI_IRQHandler+0x24>
  {
    __HAL_GPIO_EXTI_CLEAR_IT(GPIO_Pin);
 800443e:	4a05      	ldr	r2, [pc, #20]	@ (8004454 <HAL_GPIO_EXTI_IRQHandler+0x2c>)
 8004440:	88fb      	ldrh	r3, [r7, #6]
 8004442:	6153      	str	r3, [r2, #20]
    HAL_GPIO_EXTI_Callback(GPIO_Pin);
 8004444:	88fb      	ldrh	r3, [r7, #6]
 8004446:	4618      	mov	r0, r3
 8004448:	f000 f806 	bl	8004458 <HAL_GPIO_EXTI_Callback>
  }
}
 800444c:	bf00      	nop
 800444e:	3708      	adds	r7, #8
 8004450:	46bd      	mov	sp, r7
 8004452:	bd80      	pop	{r7, pc}
 8004454:	40010400 	.word	0x40010400

08004458 <HAL_GPIO_EXTI_Callback>:
  * @brief  EXTI line detection callbacks.
  * @param  GPIO_Pin: Specifies the pins connected EXTI line
  * @retval None
  */
__weak void HAL_GPIO_EXTI_Callback(uint16_t GPIO_Pin)
{
 8004458:	b480      	push	{r7}
 800445a:	b083      	sub	sp, #12
 800445c:	af00      	add	r7, sp, #0
 800445e:	4603      	mov	r3, r0
 8004460:	80fb      	strh	r3, [r7, #6]
  /* Prevent unused argument(s) compilation warning */
  UNUSED(GPIO_Pin);
  /* NOTE: This function Should not be modified, when the callback is needed,
           the HAL_GPIO_EXTI_Callback could be implemented in the user file
   */
}
 8004462:	bf00      	nop
 8004464:	370c      	adds	r7, #12
 8004466:	46bd      	mov	sp, r7
 8004468:	bc80      	pop	{r7}
 800446a:	4770      	bx	lr

0800446c <HAL_RCC_OscConfig>:
  *         supported by this macro. User should request a transition to HSE Off
  *         first and then HSE On or HSE Bypass.
  * @retval HAL status
  */
HAL_StatusTypeDef HAL_RCC_OscConfig(RCC_OscInitTypeDef  *RCC_OscInitStruct)
{
 800446c:	b580      	push	{r7, lr}
 800446e:	b086      	sub	sp, #24
 8004470:	af00      	add	r7, sp, #0
 8004472:	6078      	str	r0, [r7, #4]
  uint32_t tickstart;
  uint32_t pll_config;

  /* Check Null pointer */
  if (RCC_OscInitStruct == NULL)
 8004474:	687b      	ldr	r3, [r7, #4]
 8004476:	2b00      	cmp	r3, #0
 8004478:	d101      	bne.n	800447e <HAL_RCC_OscConfig+0x12>
  {
    return HAL_ERROR;
 800447a:	2301      	movs	r3, #1
 800447c:	e272      	b.n	8004964 <HAL_RCC_OscConfig+0x4f8>

  /* Check the parameters */
  assert_param(IS_RCC_OSCILLATORTYPE(RCC_OscInitStruct->OscillatorType));

  /*------------------------------- HSE Configuration ------------------------*/
  if (((RCC_OscInitStruct->OscillatorType) & RCC_OSCILLATORTYPE_HSE) == RCC_OSCILLATORTYPE_HSE)
 800447e:	687b      	ldr	r3, [r7, #4]
 8004480:	681b      	ldr	r3, [r3, #0]
 8004482:	f003 0301 	and.w	r3, r3, #1
 8004486:	2b00      	cmp	r3, #0
 8004488:	f000 8087 	beq.w	800459a <HAL_RCC_OscConfig+0x12e>
  {
    /* Check the parameters */
    assert_param(IS_RCC_HSE(RCC_OscInitStruct->HSEState));

    /* When the HSE is used as system clock or clock source for PLL in these cases it is not allowed to be disabled */
    if ((__HAL_RCC_GET_SYSCLK_SOURCE() == RCC_SYSCLKSOURCE_STATUS_HSE)
 800448c:	4b92      	ldr	r3, [pc, #584]	@ (80046d8 <HAL_RCC_OscConfig+0x26c>)
 800448e:	685b      	ldr	r3, [r3, #4]
 8004490:	f003 030c 	and.w	r3, r3, #12
 8004494:	2b04      	cmp	r3, #4
 8004496:	d00c      	beq.n	80044b2 <HAL_RCC_OscConfig+0x46>
        || ((__HAL_RCC_GET_SYSCLK_SOURCE() == RCC_SYSCLKSOURCE_STATUS_PLLCLK) && (__HAL_RCC_GET_PLL_OSCSOURCE() == RCC_PLLSOURCE_HSE)))
 8004498:	4b8f      	ldr	r3, [pc, #572]	@ (80046d8 <HAL_RCC_OscConfig+0x26c>)
 800449a:	685b      	ldr	r3, [r3, #4]
 800449c:	f003 030c 	and.w	r3, r3, #12
 80044a0:	2b08      	cmp	r3, #8
 80044a2:	d112      	bne.n	80044ca <HAL_RCC_OscConfig+0x5e>
 80044a4:	4b8c      	ldr	r3, [pc, #560]	@ (80046d8 <HAL_RCC_OscConfig+0x26c>)
 80044a6:	685b      	ldr	r3, [r3, #4]
 80044a8:	f403 3380 	and.w	r3, r3, #65536	@ 0x10000
 80044ac:	f5b3 3f80 	cmp.w	r3, #65536	@ 0x10000
 80044b0:	d10b      	bne.n	80044ca <HAL_RCC_OscConfig+0x5e>
    {
      if ((__HAL_RCC_GET_FLAG(RCC_FLAG_HSERDY) != RESET) && (RCC_OscInitStruct->HSEState == RCC_HSE_OFF))
 80044b2:	4b89      	ldr	r3, [pc, #548]	@ (80046d8 <HAL_RCC_OscConfig+0x26c>)
 80044b4:	681b      	ldr	r3, [r3, #0]
 80044b6:	f403 3300 	and.w	r3, r3, #131072	@ 0x20000
 80044ba:	2b00      	cmp	r3, #0
 80044bc:	d06c      	beq.n	8004598 <HAL_RCC_OscConfig+0x12c>
 80044be:	687b      	ldr	r3, [r7, #4]
 80044c0:	685b      	ldr	r3, [r3, #4]
 80044c2:	2b00      	cmp	r3, #0
 80044c4:	d168      	bne.n	8004598 <HAL_RCC_OscConfig+0x12c>
      {
        return HAL_ERROR;
 80044c6:	2301      	movs	r3, #1
 80044c8:	e24c      	b.n	8004964 <HAL_RCC_OscConfig+0x4f8>
      }
    }
    else
    {
      /* Set the new HSE configuration ---------------------------------------*/
      __HAL_RCC_HSE_CONFIG(RCC_OscInitStruct->HSEState);
 80044ca:	687b      	ldr	r3, [r7, #4]
 80044cc:	685b      	ldr	r3, [r3, #4]
 80044ce:	f5b3 3f80 	cmp.w	r3, #65536	@ 0x10000
 80044d2:	d106      	bne.n	80044e2 <HAL_RCC_OscConfig+0x76>
 80044d4:	4b80      	ldr	r3, [pc, #512]	@ (80046d8 <HAL_RCC_OscConfig+0x26c>)
 80044d6:	681b      	ldr	r3, [r3, #0]
 80044d8:	4a7f      	ldr	r2, [pc, #508]	@ (80046d8 <HAL_RCC_OscConfig+0x26c>)
 80044da:	f443 3380 	orr.w	r3, r3, #65536	@ 0x10000
 80044de:	6013      	str	r3, [r2, #0]
 80044e0:	e02e      	b.n	8004540 <HAL_RCC_OscConfig+0xd4>
 80044e2:	687b      	ldr	r3, [r7, #4]
 80044e4:	685b      	ldr	r3, [r3, #4]
 80044e6:	2b00      	cmp	r3, #0
 80044e8:	d10c      	bne.n	8004504 <HAL_RCC_OscConfig+0x98>
 80044ea:	4b7b      	ldr	r3, [pc, #492]	@ (80046d8 <HAL_RCC_OscConfig+0x26c>)
 80044ec:	681b      	ldr	r3, [r3, #0]
 80044ee:	4a7a      	ldr	r2, [pc, #488]	@ (80046d8 <HAL_RCC_OscConfig+0x26c>)
 80044f0:	f423 3380 	bic.w	r3, r3, #65536	@ 0x10000
 80044f4:	6013      	str	r3, [r2, #0]
 80044f6:	4b78      	ldr	r3, [pc, #480]	@ (80046d8 <HAL_RCC_OscConfig+0x26c>)
 80044f8:	681b      	ldr	r3, [r3, #0]
 80044fa:	4a77      	ldr	r2, [pc, #476]	@ (80046d8 <HAL_RCC_OscConfig+0x26c>)
 80044fc:	f423 2380 	bic.w	r3, r3, #262144	@ 0x40000
 8004500:	6013      	str	r3, [r2, #0]
 8004502:	e01d      	b.n	8004540 <HAL_RCC_OscConfig+0xd4>
 8004504:	687b      	ldr	r3, [r7, #4]
 8004506:	685b      	ldr	r3, [r3, #4]
 8004508:	f5b3 2fa0 	cmp.w	r3, #327680	@ 0x50000
 800450c:	d10c      	bne.n	8004528 <HAL_RCC_OscConfig+0xbc>
 800450e:	4b72      	ldr	r3, [pc, #456]	@ (80046d8 <HAL_RCC_OscConfig+0x26c>)
 8004510:	681b      	ldr	r3, [r3, #0]
 8004512:	4a71      	ldr	r2, [pc, #452]	@ (80046d8 <HAL_RCC_OscConfig+0x26c>)
 8004514:	f443 2380 	orr.w	r3, r3, #262144	@ 0x40000
 8004518:	6013      	str	r3, [r2, #0]
 800451a:	4b6f      	ldr	r3, [pc, #444]	@ (80046d8 <HAL_RCC_OscConfig+0x26c>)
 800451c:	681b      	ldr	r3, [r3, #0]
 800451e:	4a6e      	ldr	r2, [pc, #440]	@ (80046d8 <HAL_RCC_OscConfig+0x26c>)
 8004520:	f443 3380 	orr.w	r3, r3, #65536	@ 0x10000
 8004524:	6013      	str	r3, [r2, #0]
 8004526:	e00b      	b.n	8004540 <HAL_RCC_OscConfig+0xd4>
 8004528:	4b6b      	ldr	r3, [pc, #428]	@ (80046d8 <HAL_RCC_OscConfig+0x26c>)
 800452a:	681b      	ldr	r3, [r3, #0]
 800452c:	4a6a      	ldr	r2, [pc, #424]	@ (80046d8 <HAL_RCC_OscConfig+0x26c>)
 800452e:	f423 3380 	bic.w	r3, r3, #65536	@ 0x10000
 8004532:	6013      	str	r3, [r2, #0]
 8004534:	4b68      	ldr	r3, [pc, #416]	@ (80046d8 <HAL_RCC_OscConfig+0x26c>)
 8004536:	681b      	ldr	r3, [r3, #0]
 8004538:	4a67      	ldr	r2, [pc, #412]	@ (80046d8 <HAL_RCC_OscConfig+0x26c>)
 800453a:	f423 2380 	bic.w	r3, r3, #262144	@ 0x40000
 800453e:	6013      	str	r3, [r2, #0]


      /* Check the HSE State */
      if (RCC_OscInitStruct->HSEState != RCC_HSE_OFF)
 8004540:	687b      	ldr	r3, [r7, #4]
 8004542:	685b      	ldr	r3, [r3, #4]
 8004544:	2b00      	cmp	r3, #0
 8004546:	d013      	beq.n	8004570 <HAL_RCC_OscConfig+0x104>
      {
        /* Get Start Tick */
        tickstart = HAL_GetTick();
 8004548:	f7ff fabe 	bl	8003ac8 <HAL_GetTick>
 800454c:	6138      	str	r0, [r7, #16]

        /* Wait till HSE is ready */
        while (__HAL_RCC_GET_FLAG(RCC_FLAG_HSERDY) == RESET)
 800454e:	e008      	b.n	8004562 <HAL_RCC_OscConfig+0xf6>
        {
          if ((HAL_GetTick() - tickstart) > HSE_TIMEOUT_VALUE)
 8004550:	f7ff faba 	bl	8003ac8 <HAL_GetTick>
 8004554:	4602      	mov	r2, r0
 8004556:	693b      	ldr	r3, [r7, #16]
 8004558:	1ad3      	subs	r3, r2, r3
 800455a:	2b64      	cmp	r3, #100	@ 0x64
 800455c:	d901      	bls.n	8004562 <HAL_RCC_OscConfig+0xf6>
          {
            return HAL_TIMEOUT;
 800455e:	2303      	movs	r3, #3
 8004560:	e200      	b.n	8004964 <HAL_RCC_OscConfig+0x4f8>
        while (__HAL_RCC_GET_FLAG(RCC_FLAG_HSERDY) == RESET)
 8004562:	4b5d      	ldr	r3, [pc, #372]	@ (80046d8 <HAL_RCC_OscConfig+0x26c>)
 8004564:	681b      	ldr	r3, [r3, #0]
 8004566:	f403 3300 	and.w	r3, r3, #131072	@ 0x20000
 800456a:	2b00      	cmp	r3, #0
 800456c:	d0f0      	beq.n	8004550 <HAL_RCC_OscConfig+0xe4>
 800456e:	e014      	b.n	800459a <HAL_RCC_OscConfig+0x12e>
        }
      }
      else
      {
        /* Get Start Tick */
        tickstart = HAL_GetTick();
 8004570:	f7ff faaa 	bl	8003ac8 <HAL_GetTick>
 8004574:	6138      	str	r0, [r7, #16]

        /* Wait till HSE is disabled */
        while (__HAL_RCC_GET_FLAG(RCC_FLAG_HSERDY) != RESET)
 8004576:	e008      	b.n	800458a <HAL_RCC_OscConfig+0x11e>
        {
          if ((HAL_GetTick() - tickstart) > HSE_TIMEOUT_VALUE)
 8004578:	f7ff faa6 	bl	8003ac8 <HAL_GetTick>
 800457c:	4602      	mov	r2, r0
 800457e:	693b      	ldr	r3, [r7, #16]
 8004580:	1ad3      	subs	r3, r2, r3
 8004582:	2b64      	cmp	r3, #100	@ 0x64
 8004584:	d901      	bls.n	800458a <HAL_RCC_OscConfig+0x11e>
          {
            return HAL_TIMEOUT;
 8004586:	2303      	movs	r3, #3
 8004588:	e1ec      	b.n	8004964 <HAL_RCC_OscConfig+0x4f8>
        while (__HAL_RCC_GET_FLAG(RCC_FLAG_HSERDY) != RESET)
 800458a:	4b53      	ldr	r3, [pc, #332]	@ (80046d8 <HAL_RCC_OscConfig+0x26c>)
 800458c:	681b      	ldr	r3, [r3, #0]
 800458e:	f403 3300 	and.w	r3, r3, #131072	@ 0x20000
 8004592:	2b00      	cmp	r3, #0
 8004594:	d1f0      	bne.n	8004578 <HAL_RCC_OscConfig+0x10c>
 8004596:	e000      	b.n	800459a <HAL_RCC_OscConfig+0x12e>
      if ((__HAL_RCC_GET_FLAG(RCC_FLAG_HSERDY) != RESET) && (RCC_OscInitStruct->HSEState == RCC_HSE_OFF))
 8004598:	bf00      	nop
        }
      }
    }
  }
  /*----------------------------- HSI Configuration --------------------------*/
  if (((RCC_OscInitStruct->OscillatorType) & RCC_OSCILLATORTYPE_HSI) == RCC_OSCILLATORTYPE_HSI)
 800459a:	687b      	ldr	r3, [r7, #4]
 800459c:	681b      	ldr	r3, [r3, #0]
 800459e:	f003 0302 	and.w	r3, r3, #2
 80045a2:	2b00      	cmp	r3, #0
 80045a4:	d063      	beq.n	800466e <HAL_RCC_OscConfig+0x202>
    /* Check the parameters */
    assert_param(IS_RCC_HSI(RCC_OscInitStruct->HSIState));
    assert_param(IS_RCC_CALIBRATION_VALUE(RCC_OscInitStruct->HSICalibrationValue));

    /* Check if HSI is used as system clock or as PLL source when PLL is selected as system clock */
    if ((__HAL_RCC_GET_SYSCLK_SOURCE() == RCC_SYSCLKSOURCE_STATUS_HSI)
 80045a6:	4b4c      	ldr	r3, [pc, #304]	@ (80046d8 <HAL_RCC_OscConfig+0x26c>)
 80045a8:	685b      	ldr	r3, [r3, #4]
 80045aa:	f003 030c 	and.w	r3, r3, #12
 80045ae:	2b00      	cmp	r3, #0
 80045b0:	d00b      	beq.n	80045ca <HAL_RCC_OscConfig+0x15e>
        || ((__HAL_RCC_GET_SYSCLK_SOURCE() == RCC_SYSCLKSOURCE_STATUS_PLLCLK) && (__HAL_RCC_GET_PLL_OSCSOURCE() == RCC_PLLSOURCE_HSI_DIV2)))
 80045b2:	4b49      	ldr	r3, [pc, #292]	@ (80046d8 <HAL_RCC_OscConfig+0x26c>)
 80045b4:	685b      	ldr	r3, [r3, #4]
 80045b6:	f003 030c 	and.w	r3, r3, #12
 80045ba:	2b08      	cmp	r3, #8
 80045bc:	d11c      	bne.n	80045f8 <HAL_RCC_OscConfig+0x18c>
 80045be:	4b46      	ldr	r3, [pc, #280]	@ (80046d8 <HAL_RCC_OscConfig+0x26c>)
 80045c0:	685b      	ldr	r3, [r3, #4]
 80045c2:	f403 3380 	and.w	r3, r3, #65536	@ 0x10000
 80045c6:	2b00      	cmp	r3, #0
 80045c8:	d116      	bne.n	80045f8 <HAL_RCC_OscConfig+0x18c>
    {
      /* When HSI is used as system clock it will not disabled */
      if ((__HAL_RCC_GET_FLAG(RCC_FLAG_HSIRDY) != RESET) && (RCC_OscInitStruct->HSIState != RCC_HSI_ON))
 80045ca:	4b43      	ldr	r3, [pc, #268]	@ (80046d8 <HAL_RCC_OscConfig+0x26c>)
 80045cc:	681b      	ldr	r3, [r3, #0]
 80045ce:	f003 0302 	and.w	r3, r3, #2
 80045d2:	2b00      	cmp	r3, #0
 80045d4:	d005      	beq.n	80045e2 <HAL_RCC_OscConfig+0x176>
 80045d6:	687b      	ldr	r3, [r7, #4]
 80045d8:	691b      	ldr	r3, [r3, #16]
 80045da:	2b01      	cmp	r3, #1
 80045dc:	d001      	beq.n	80045e2 <HAL_RCC_OscConfig+0x176>
      {
        return HAL_ERROR;
 80045de:	2301      	movs	r3, #1
 80045e0:	e1c0      	b.n	8004964 <HAL_RCC_OscConfig+0x4f8>
      }
      /* Otherwise, just the calibration is allowed */
      else
      {
        /* Adjusts the Internal High Speed oscillator (HSI) calibration value.*/
        __HAL_RCC_HSI_CALIBRATIONVALUE_ADJUST(RCC_OscInitStruct->HSICalibrationValue);
 80045e2:	4b3d      	ldr	r3, [pc, #244]	@ (80046d8 <HAL_RCC_OscConfig+0x26c>)
 80045e4:	681b      	ldr	r3, [r3, #0]
 80045e6:	f023 02f8 	bic.w	r2, r3, #248	@ 0xf8
 80045ea:	687b      	ldr	r3, [r7, #4]
 80045ec:	695b      	ldr	r3, [r3, #20]
 80045ee:	00db      	lsls	r3, r3, #3
 80045f0:	4939      	ldr	r1, [pc, #228]	@ (80046d8 <HAL_RCC_OscConfig+0x26c>)
 80045f2:	4313      	orrs	r3, r2
 80045f4:	600b      	str	r3, [r1, #0]
      if ((__HAL_RCC_GET_FLAG(RCC_FLAG_HSIRDY) != RESET) && (RCC_OscInitStruct->HSIState != RCC_HSI_ON))
 80045f6:	e03a      	b.n	800466e <HAL_RCC_OscConfig+0x202>
      }
    }
    else
    {
      /* Check the HSI State */
      if (RCC_OscInitStruct->HSIState != RCC_HSI_OFF)
 80045f8:	687b      	ldr	r3, [r7, #4]
 80045fa:	691b      	ldr	r3, [r3, #16]
 80045fc:	2b00      	cmp	r3, #0
 80045fe:	d020      	beq.n	8004642 <HAL_RCC_OscConfig+0x1d6>
      {
        /* Enable the Internal High Speed oscillator (HSI). */
        __HAL_RCC_HSI_ENABLE();
 8004600:	4b36      	ldr	r3, [pc, #216]	@ (80046dc <HAL_RCC_OscConfig+0x270>)
 8004602:	2201      	movs	r2, #1
 8004604:	601a      	str	r2, [r3, #0]

        /* Get Start Tick */
        tickstart = HAL_GetTick();
 8004606:	f7ff fa5f 	bl	8003ac8 <HAL_GetTick>
 800460a:	6138      	str	r0, [r7, #16]

        /* Wait till HSI is ready */
        while (__HAL_RCC_GET_FLAG(RCC_FLAG_HSIRDY) == RESET)
 800460c:	e008      	b.n	8004620 <HAL_RCC_OscConfig+0x1b4>
        {
          if ((HAL_GetTick() - tickstart) > HSI_TIMEOUT_VALUE)
 800460e:	f7ff fa5b 	bl	8003ac8 <HAL_GetTick>
 8004612:	4602      	mov	r2, r0
 8004614:	693b      	ldr	r3, [r7, #16]
 8004616:	1ad3      	subs	r3, r2, r3
 8004618:	2b02      	cmp	r3, #2
 800461a:	d901      	bls.n	8004620 <HAL_RCC_OscConfig+0x1b4>
          {
            return HAL_TIMEOUT;
 800461c:	2303      	movs	r3, #3
 800461e:	e1a1      	b.n	8004964 <HAL_RCC_OscConfig+0x4f8>
        while (__HAL_RCC_GET_FLAG(RCC_FLAG_HSIRDY) == RESET)
 8004620:	4b2d      	ldr	r3, [pc, #180]	@ (80046d8 <HAL_RCC_OscConfig+0x26c>)
 8004622:	681b      	ldr	r3, [r3, #0]
 8004624:	f003 0302 	and.w	r3, r3, #2
 8004628:	2b00      	cmp	r3, #0
 800462a:	d0f0      	beq.n	800460e <HAL_RCC_OscConfig+0x1a2>
          }
        }

        /* Adjusts the Internal High Speed oscillator (HSI) calibration value.*/
        __HAL_RCC_HSI_CALIBRATIONVALUE_ADJUST(RCC_OscInitStruct->HSICalibrationValue);
 800462c:	4b2a      	ldr	r3, [pc, #168]	@ (80046d8 <HAL_RCC_OscConfig+0x26c>)
 800462e:	681b      	ldr	r3, [r3, #0]
 8004630:	f023 02f8 	bic.w	r2, r3, #248	@ 0xf8
 8004634:	687b      	ldr	r3, [r7, #4]
 8004636:	695b      	ldr	r3, [r3, #20]
 8004638:	00db      	lsls	r3, r3, #3
 800463a:	4927      	ldr	r1, [pc, #156]	@ (80046d8 <HAL_RCC_OscConfig+0x26c>)
 800463c:	4313      	orrs	r3, r2
 800463e:	600b      	str	r3, [r1, #0]
 8004640:	e015      	b.n	800466e <HAL_RCC_OscConfig+0x202>
      }
      else
      {
        /* Disable the Internal High Speed oscillator (HSI). */
        __HAL_RCC_HSI_DISABLE();
 8004642:	4b26      	ldr	r3, [pc, #152]	@ (80046dc <HAL_RCC_OscConfig+0x270>)
 8004644:	2200      	movs	r2, #0
 8004646:	601a      	str	r2, [r3, #0]

        /* Get Start Tick */
        tickstart = HAL_GetTick();
 8004648:	f7ff fa3e 	bl	8003ac8 <HAL_GetTick>
 800464c:	6138      	str	r0, [r7, #16]

        /* Wait till HSI is disabled */
        while (__HAL_RCC_GET_FLAG(RCC_FLAG_HSIRDY) != RESET)
 800464e:	e008      	b.n	8004662 <HAL_RCC_OscConfig+0x1f6>
        {
          if ((HAL_GetTick() - tickstart) > HSI_TIMEOUT_VALUE)
 8004650:	f7ff fa3a 	bl	8003ac8 <HAL_GetTick>
 8004654:	4602      	mov	r2, r0
 8004656:	693b      	ldr	r3, [r7, #16]
 8004658:	1ad3      	subs	r3, r2, r3
 800465a:	2b02      	cmp	r3, #2
 800465c:	d901      	bls.n	8004662 <HAL_RCC_OscConfig+0x1f6>
          {
            return HAL_TIMEOUT;
 800465e:	2303      	movs	r3, #3
 8004660:	e180      	b.n	8004964 <HAL_RCC_OscConfig+0x4f8>
        while (__HAL_RCC_GET_FLAG(RCC_FLAG_HSIRDY) != RESET)
 8004662:	4b1d      	ldr	r3, [pc, #116]	@ (80046d8 <HAL_RCC_OscConfig+0x26c>)
 8004664:	681b      	ldr	r3, [r3, #0]
 8004666:	f003 0302 	and.w	r3, r3, #2
 800466a:	2b00      	cmp	r3, #0
 800466c:	d1f0      	bne.n	8004650 <HAL_RCC_OscConfig+0x1e4>
        }
      }
    }
  }
  /*------------------------------ LSI Configuration -------------------------*/
  if (((RCC_OscInitStruct->OscillatorType) & RCC_OSCILLATORTYPE_LSI) == RCC_OSCILLATORTYPE_LSI)
 800466e:	687b      	ldr	r3, [r7, #4]
 8004670:	681b      	ldr	r3, [r3, #0]
 8004672:	f003 0308 	and.w	r3, r3, #8
 8004676:	2b00      	cmp	r3, #0
 8004678:	d03a      	beq.n	80046f0 <HAL_RCC_OscConfig+0x284>
  {
    /* Check the parameters */
    assert_param(IS_RCC_LSI(RCC_OscInitStruct->LSIState));

    /* Check the LSI State */
    if (RCC_OscInitStruct->LSIState != RCC_LSI_OFF)
 800467a:	687b      	ldr	r3, [r7, #4]
 800467c:	699b      	ldr	r3, [r3, #24]
 800467e:	2b00      	cmp	r3, #0
 8004680:	d019      	beq.n	80046b6 <HAL_RCC_OscConfig+0x24a>
    {
      /* Enable the Internal Low Speed oscillator (LSI). */
      __HAL_RCC_LSI_ENABLE();
 8004682:	4b17      	ldr	r3, [pc, #92]	@ (80046e0 <HAL_RCC_OscConfig+0x274>)
 8004684:	2201      	movs	r2, #1
 8004686:	601a      	str	r2, [r3, #0]

      /* Get Start Tick */
      tickstart = HAL_GetTick();
 8004688:	f7ff fa1e 	bl	8003ac8 <HAL_GetTick>
 800468c:	6138      	str	r0, [r7, #16]

      /* Wait till LSI is ready */
      while (__HAL_RCC_GET_FLAG(RCC_FLAG_LSIRDY) == RESET)
 800468e:	e008      	b.n	80046a2 <HAL_RCC_OscConfig+0x236>
      {
        if ((HAL_GetTick() - tickstart) > LSI_TIMEOUT_VALUE)
 8004690:	f7ff fa1a 	bl	8003ac8 <HAL_GetTick>
 8004694:	4602      	mov	r2, r0
 8004696:	693b      	ldr	r3, [r7, #16]
 8004698:	1ad3      	subs	r3, r2, r3
 800469a:	2b02      	cmp	r3, #2
 800469c:	d901      	bls.n	80046a2 <HAL_RCC_OscConfig+0x236>
        {
          return HAL_TIMEOUT;
 800469e:	2303      	movs	r3, #3
 80046a0:	e160      	b.n	8004964 <HAL_RCC_OscConfig+0x4f8>
      while (__HAL_RCC_GET_FLAG(RCC_FLAG_LSIRDY) == RESET)
 80046a2:	4b0d      	ldr	r3, [pc, #52]	@ (80046d8 <HAL_RCC_OscConfig+0x26c>)
 80046a4:	6a5b      	ldr	r3, [r3, #36]	@ 0x24
 80046a6:	f003 0302 	and.w	r3, r3, #2
 80046aa:	2b00      	cmp	r3, #0
 80046ac:	d0f0      	beq.n	8004690 <HAL_RCC_OscConfig+0x224>
        }
      }
      /*  To have a fully stabilized clock in the specified range, a software delay of 1ms
          should be added.*/
      RCC_Delay(1);
 80046ae:	2001      	movs	r0, #1
 80046b0:	f000 fa9c 	bl	8004bec <RCC_Delay>
 80046b4:	e01c      	b.n	80046f0 <HAL_RCC_OscConfig+0x284>
    }
    else
    {
      /* Disable the Internal Low Speed oscillator (LSI). */
      __HAL_RCC_LSI_DISABLE();
 80046b6:	4b0a      	ldr	r3, [pc, #40]	@ (80046e0 <HAL_RCC_OscConfig+0x274>)
 80046b8:	2200      	movs	r2, #0
 80046ba:	601a      	str	r2, [r3, #0]

      /* Get Start Tick */
      tickstart = HAL_GetTick();
 80046bc:	f7ff fa04 	bl	8003ac8 <HAL_GetTick>
 80046c0:	6138      	str	r0, [r7, #16]

      /* Wait till LSI is disabled */
      while (__HAL_RCC_GET_FLAG(RCC_FLAG_LSIRDY) != RESET)
 80046c2:	e00f      	b.n	80046e4 <HAL_RCC_OscConfig+0x278>
      {
        if ((HAL_GetTick() - tickstart) > LSI_TIMEOUT_VALUE)
 80046c4:	f7ff fa00 	bl	8003ac8 <HAL_GetTick>
 80046c8:	4602      	mov	r2, r0
 80046ca:	693b      	ldr	r3, [r7, #16]
 80046cc:	1ad3      	subs	r3, r2, r3
 80046ce:	2b02      	cmp	r3, #2
 80046d0:	d908      	bls.n	80046e4 <HAL_RCC_OscConfig+0x278>
        {
          return HAL_TIMEOUT;
 80046d2:	2303      	movs	r3, #3
 80046d4:	e146      	b.n	8004964 <HAL_RCC_OscConfig+0x4f8>
 80046d6:	bf00      	nop
 80046d8:	40021000 	.word	0x40021000
 80046dc:	42420000 	.word	0x42420000
 80046e0:	42420480 	.word	0x42420480
      while (__HAL_RCC_GET_FLAG(RCC_FLAG_LSIRDY) != RESET)
 80046e4:	4b92      	ldr	r3, [pc, #584]	@ (8004930 <HAL_RCC_OscConfig+0x4c4>)
 80046e6:	6a5b      	ldr	r3, [r3, #36]	@ 0x24
 80046e8:	f003 0302 	and.w	r3, r3, #2
 80046ec:	2b00      	cmp	r3, #0
 80046ee:	d1e9      	bne.n	80046c4 <HAL_RCC_OscConfig+0x258>
        }
      }
    }
  }
  /*------------------------------ LSE Configuration -------------------------*/
  if (((RCC_OscInitStruct->OscillatorType) & RCC_OSCILLATORTYPE_LSE) == RCC_OSCILLATORTYPE_LSE)
 80046f0:	687b      	ldr	r3, [r7, #4]
 80046f2:	681b      	ldr	r3, [r3, #0]
 80046f4:	f003 0304 	and.w	r3, r3, #4
 80046f8:	2b00      	cmp	r3, #0
 80046fa:	f000 80a6 	beq.w	800484a <HAL_RCC_OscConfig+0x3de>
  {
    FlagStatus       pwrclkchanged = RESET;
 80046fe:	2300      	movs	r3, #0
 8004700:	75fb      	strb	r3, [r7, #23]
    /* Check the parameters */
    assert_param(IS_RCC_LSE(RCC_OscInitStruct->LSEState));

    /* Update LSE configuration in Backup Domain control register    */
    /* Requires to enable write access to Backup Domain of necessary */
    if (__HAL_RCC_PWR_IS_CLK_DISABLED())
 8004702:	4b8b      	ldr	r3, [pc, #556]	@ (8004930 <HAL_RCC_OscConfig+0x4c4>)
 8004704:	69db      	ldr	r3, [r3, #28]
 8004706:	f003 5380 	and.w	r3, r3, #268435456	@ 0x10000000
 800470a:	2b00      	cmp	r3, #0
 800470c:	d10d      	bne.n	800472a <HAL_RCC_OscConfig+0x2be>
    {
      __HAL_RCC_PWR_CLK_ENABLE();
 800470e:	4b88      	ldr	r3, [pc, #544]	@ (8004930 <HAL_RCC_OscConfig+0x4c4>)
 8004710:	69db      	ldr	r3, [r3, #28]
 8004712:	4a87      	ldr	r2, [pc, #540]	@ (8004930 <HAL_RCC_OscConfig+0x4c4>)
 8004714:	f043 5380 	orr.w	r3, r3, #268435456	@ 0x10000000
 8004718:	61d3      	str	r3, [r2, #28]
 800471a:	4b85      	ldr	r3, [pc, #532]	@ (8004930 <HAL_RCC_OscConfig+0x4c4>)
 800471c:	69db      	ldr	r3, [r3, #28]
 800471e:	f003 5380 	and.w	r3, r3, #268435456	@ 0x10000000
 8004722:	60bb      	str	r3, [r7, #8]
 8004724:	68bb      	ldr	r3, [r7, #8]
      pwrclkchanged = SET;
 8004726:	2301      	movs	r3, #1
 8004728:	75fb      	strb	r3, [r7, #23]
    }

    if (HAL_IS_BIT_CLR(PWR->CR, PWR_CR_DBP))
 800472a:	4b82      	ldr	r3, [pc, #520]	@ (8004934 <HAL_RCC_OscConfig+0x4c8>)
 800472c:	681b      	ldr	r3, [r3, #0]
 800472e:	f403 7380 	and.w	r3, r3, #256	@ 0x100
 8004732:	2b00      	cmp	r3, #0
 8004734:	d118      	bne.n	8004768 <HAL_RCC_OscConfig+0x2fc>
    {
      /* Enable write access to Backup domain */
      SET_BIT(PWR->CR, PWR_CR_DBP);
 8004736:	4b7f      	ldr	r3, [pc, #508]	@ (8004934 <HAL_RCC_OscConfig+0x4c8>)
 8004738:	681b      	ldr	r3, [r3, #0]
 800473a:	4a7e      	ldr	r2, [pc, #504]	@ (8004934 <HAL_RCC_OscConfig+0x4c8>)
 800473c:	f443 7380 	orr.w	r3, r3, #256	@ 0x100
 8004740:	6013      	str	r3, [r2, #0]

      /* Wait for Backup domain Write protection disable */
      tickstart = HAL_GetTick();
 8004742:	f7ff f9c1 	bl	8003ac8 <HAL_GetTick>
 8004746:	6138      	str	r0, [r7, #16]

      while (HAL_IS_BIT_CLR(PWR->CR, PWR_CR_DBP))
 8004748:	e008      	b.n	800475c <HAL_RCC_OscConfig+0x2f0>
      {
        if ((HAL_GetTick() - tickstart) > RCC_DBP_TIMEOUT_VALUE)
 800474a:	f7ff f9bd 	bl	8003ac8 <HAL_GetTick>
 800474e:	4602      	mov	r2, r0
 8004750:	693b      	ldr	r3, [r7, #16]
 8004752:	1ad3      	subs	r3, r2, r3
 8004754:	2b64      	cmp	r3, #100	@ 0x64
 8004756:	d901      	bls.n	800475c <HAL_RCC_OscConfig+0x2f0>
        {
          return HAL_TIMEOUT;
 8004758:	2303      	movs	r3, #3
 800475a:	e103      	b.n	8004964 <HAL_RCC_OscConfig+0x4f8>
      while (HAL_IS_BIT_CLR(PWR->CR, PWR_CR_DBP))
 800475c:	4b75      	ldr	r3, [pc, #468]	@ (8004934 <HAL_RCC_OscConfig+0x4c8>)
 800475e:	681b      	ldr	r3, [r3, #0]
 8004760:	f403 7380 	and.w	r3, r3, #256	@ 0x100
 8004764:	2b00      	cmp	r3, #0
 8004766:	d0f0      	beq.n	800474a <HAL_RCC_OscConfig+0x2de>
        }
      }
    }

    /* Set the new LSE configuration -----------------------------------------*/
    __HAL_RCC_LSE_CONFIG(RCC_OscInitStruct->LSEState);
 8004768:	687b      	ldr	r3, [r7, #4]
 800476a:	68db      	ldr	r3, [r3, #12]
 800476c:	2b01      	cmp	r3, #1
 800476e:	d106      	bne.n	800477e <HAL_RCC_OscConfig+0x312>
 8004770:	4b6f      	ldr	r3, [pc, #444]	@ (8004930 <HAL_RCC_OscConfig+0x4c4>)
 8004772:	6a1b      	ldr	r3, [r3, #32]
 8004774:	4a6e      	ldr	r2, [pc, #440]	@ (8004930 <HAL_RCC_OscConfig+0x4c4>)
 8004776:	f043 0301 	orr.w	r3, r3, #1
 800477a:	6213      	str	r3, [r2, #32]
 800477c:	e02d      	b.n	80047da <HAL_RCC_OscConfig+0x36e>
 800477e:	687b      	ldr	r3, [r7, #4]
 8004780:	68db      	ldr	r3, [r3, #12]
 8004782:	2b00      	cmp	r3, #0
 8004784:	d10c      	bne.n	80047a0 <HAL_RCC_OscConfig+0x334>
 8004786:	4b6a      	ldr	r3, [pc, #424]	@ (8004930 <HAL_RCC_OscConfig+0x4c4>)
 8004788:	6a1b      	ldr	r3, [r3, #32]
 800478a:	4a69      	ldr	r2, [pc, #420]	@ (8004930 <HAL_RCC_OscConfig+0x4c4>)
 800478c:	f023 0301 	bic.w	r3, r3, #1
 8004790:	6213      	str	r3, [r2, #32]
 8004792:	4b67      	ldr	r3, [pc, #412]	@ (8004930 <HAL_RCC_OscConfig+0x4c4>)
 8004794:	6a1b      	ldr	r3, [r3, #32]
 8004796:	4a66      	ldr	r2, [pc, #408]	@ (8004930 <HAL_RCC_OscConfig+0x4c4>)
 8004798:	f023 0304 	bic.w	r3, r3, #4
 800479c:	6213      	str	r3, [r2, #32]
 800479e:	e01c      	b.n	80047da <HAL_RCC_OscConfig+0x36e>
 80047a0:	687b      	ldr	r3, [r7, #4]
 80047a2:	68db      	ldr	r3, [r3, #12]
 80047a4:	2b05      	cmp	r3, #5
 80047a6:	d10c      	bne.n	80047c2 <HAL_RCC_OscConfig+0x356>
 80047a8:	4b61      	ldr	r3, [pc, #388]	@ (8004930 <HAL_RCC_OscConfig+0x4c4>)
 80047aa:	6a1b      	ldr	r3, [r3, #32]
 80047ac:	4a60      	ldr	r2, [pc, #384]	@ (8004930 <HAL_RCC_OscConfig+0x4c4>)
 80047ae:	f043 0304 	orr.w	r3, r3, #4
 80047b2:	6213      	str	r3, [r2, #32]
 80047b4:	4b5e      	ldr	r3, [pc, #376]	@ (8004930 <HAL_RCC_OscConfig+0x4c4>)
 80047b6:	6a1b      	ldr	r3, [r3, #32]
 80047b8:	4a5d      	ldr	r2, [pc, #372]	@ (8004930 <HAL_RCC_OscConfig+0x4c4>)
 80047ba:	f043 0301 	orr.w	r3, r3, #1
 80047be:	6213      	str	r3, [r2, #32]
 80047c0:	e00b      	b.n	80047da <HAL_RCC_OscConfig+0x36e>
 80047c2:	4b5b      	ldr	r3, [pc, #364]	@ (8004930 <HAL_RCC_OscConfig+0x4c4>)
 80047c4:	6a1b      	ldr	r3, [r3, #32]
 80047c6:	4a5a      	ldr	r2, [pc, #360]	@ (8004930 <HAL_RCC_OscConfig+0x4c4>)
 80047c8:	f023 0301 	bic.w	r3, r3, #1
 80047cc:	6213      	str	r3, [r2, #32]
 80047ce:	4b58      	ldr	r3, [pc, #352]	@ (8004930 <HAL_RCC_OscConfig+0x4c4>)
 80047d0:	6a1b      	ldr	r3, [r3, #32]
 80047d2:	4a57      	ldr	r2, [pc, #348]	@ (8004930 <HAL_RCC_OscConfig+0x4c4>)
 80047d4:	f023 0304 	bic.w	r3, r3, #4
 80047d8:	6213      	str	r3, [r2, #32]
    /* Check the LSE State */
    if (RCC_OscInitStruct->LSEState != RCC_LSE_OFF)
 80047da:	687b      	ldr	r3, [r7, #4]
 80047dc:	68db      	ldr	r3, [r3, #12]
 80047de:	2b00      	cmp	r3, #0
 80047e0:	d015      	beq.n	800480e <HAL_RCC_OscConfig+0x3a2>
    {
      /* Get Start Tick */
      tickstart = HAL_GetTick();
 80047e2:	f7ff f971 	bl	8003ac8 <HAL_GetTick>
 80047e6:	6138      	str	r0, [r7, #16]

      /* Wait till LSE is ready */
      while (__HAL_RCC_GET_FLAG(RCC_FLAG_LSERDY) == RESET)
 80047e8:	e00a      	b.n	8004800 <HAL_RCC_OscConfig+0x394>
      {
        if ((HAL_GetTick() - tickstart) > RCC_LSE_TIMEOUT_VALUE)
 80047ea:	f7ff f96d 	bl	8003ac8 <HAL_GetTick>
 80047ee:	4602      	mov	r2, r0
 80047f0:	693b      	ldr	r3, [r7, #16]
 80047f2:	1ad3      	subs	r3, r2, r3
 80047f4:	f241 3288 	movw	r2, #5000	@ 0x1388
 80047f8:	4293      	cmp	r3, r2
 80047fa:	d901      	bls.n	8004800 <HAL_RCC_OscConfig+0x394>
        {
          return HAL_TIMEOUT;
 80047fc:	2303      	movs	r3, #3
 80047fe:	e0b1      	b.n	8004964 <HAL_RCC_OscConfig+0x4f8>
      while (__HAL_RCC_GET_FLAG(RCC_FLAG_LSERDY) == RESET)
 8004800:	4b4b      	ldr	r3, [pc, #300]	@ (8004930 <HAL_RCC_OscConfig+0x4c4>)
 8004802:	6a1b      	ldr	r3, [r3, #32]
 8004804:	f003 0302 	and.w	r3, r3, #2
 8004808:	2b00      	cmp	r3, #0
 800480a:	d0ee      	beq.n	80047ea <HAL_RCC_OscConfig+0x37e>
 800480c:	e014      	b.n	8004838 <HAL_RCC_OscConfig+0x3cc>
      }
    }
    else
    {
      /* Get Start Tick */
      tickstart = HAL_GetTick();
 800480e:	f7ff f95b 	bl	8003ac8 <HAL_GetTick>
 8004812:	6138      	str	r0, [r7, #16]

      /* Wait till LSE is disabled */
      while (__HAL_RCC_GET_FLAG(RCC_FLAG_LSERDY) != RESET)
 8004814:	e00a      	b.n	800482c <HAL_RCC_OscConfig+0x3c0>
      {
        if ((HAL_GetTick() - tickstart) > RCC_LSE_TIMEOUT_VALUE)
 8004816:	f7ff f957 	bl	8003ac8 <HAL_GetTick>
 800481a:	4602      	mov	r2, r0
 800481c:	693b      	ldr	r3, [r7, #16]
 800481e:	1ad3      	subs	r3, r2, r3
 8004820:	f241 3288 	movw	r2, #5000	@ 0x1388
 8004824:	4293      	cmp	r3, r2
 8004826:	d901      	bls.n	800482c <HAL_RCC_OscConfig+0x3c0>
        {
          return HAL_TIMEOUT;
 8004828:	2303      	movs	r3, #3
 800482a:	e09b      	b.n	8004964 <HAL_RCC_OscConfig+0x4f8>
      while (__HAL_RCC_GET_FLAG(RCC_FLAG_LSERDY) != RESET)
 800482c:	4b40      	ldr	r3, [pc, #256]	@ (8004930 <HAL_RCC_OscConfig+0x4c4>)
 800482e:	6a1b      	ldr	r3, [r3, #32]
 8004830:	f003 0302 	and.w	r3, r3, #2
 8004834:	2b00      	cmp	r3, #0
 8004836:	d1ee      	bne.n	8004816 <HAL_RCC_OscConfig+0x3aa>
        }
      }
    }

    /* Require to disable power clock if necessary */
    if (pwrclkchanged == SET)
 8004838:	7dfb      	ldrb	r3, [r7, #23]
 800483a:	2b01      	cmp	r3, #1
 800483c:	d105      	bne.n	800484a <HAL_RCC_OscConfig+0x3de>
    {
      __HAL_RCC_PWR_CLK_DISABLE();
 800483e:	4b3c      	ldr	r3, [pc, #240]	@ (8004930 <HAL_RCC_OscConfig+0x4c4>)
 8004840:	69db      	ldr	r3, [r3, #28]
 8004842:	4a3b      	ldr	r2, [pc, #236]	@ (8004930 <HAL_RCC_OscConfig+0x4c4>)
 8004844:	f023 5380 	bic.w	r3, r3, #268435456	@ 0x10000000
 8004848:	61d3      	str	r3, [r2, #28]

#endif /* RCC_CR_PLL2ON */
  /*-------------------------------- PLL Configuration -----------------------*/
  /* Check the parameters */
  assert_param(IS_RCC_PLL(RCC_OscInitStruct->PLL.PLLState));
  if ((RCC_OscInitStruct->PLL.PLLState) != RCC_PLL_NONE)
 800484a:	687b      	ldr	r3, [r7, #4]
 800484c:	69db      	ldr	r3, [r3, #28]
 800484e:	2b00      	cmp	r3, #0
 8004850:	f000 8087 	beq.w	8004962 <HAL_RCC_OscConfig+0x4f6>
  {
    /* Check if the PLL is used as system clock or not */
    if (__HAL_RCC_GET_SYSCLK_SOURCE() != RCC_SYSCLKSOURCE_STATUS_PLLCLK)
 8004854:	4b36      	ldr	r3, [pc, #216]	@ (8004930 <HAL_RCC_OscConfig+0x4c4>)
 8004856:	685b      	ldr	r3, [r3, #4]
 8004858:	f003 030c 	and.w	r3, r3, #12
 800485c:	2b08      	cmp	r3, #8
 800485e:	d061      	beq.n	8004924 <HAL_RCC_OscConfig+0x4b8>
    {
      if ((RCC_OscInitStruct->PLL.PLLState) == RCC_PLL_ON)
 8004860:	687b      	ldr	r3, [r7, #4]
 8004862:	69db      	ldr	r3, [r3, #28]
 8004864:	2b02      	cmp	r3, #2
 8004866:	d146      	bne.n	80048f6 <HAL_RCC_OscConfig+0x48a>
        /* Check the parameters */
        assert_param(IS_RCC_PLLSOURCE(RCC_OscInitStruct->PLL.PLLSource));
        assert_param(IS_RCC_PLL_MUL(RCC_OscInitStruct->PLL.PLLMUL));

        /* Disable the main PLL. */
        __HAL_RCC_PLL_DISABLE();
 8004868:	4b33      	ldr	r3, [pc, #204]	@ (8004938 <HAL_RCC_OscConfig+0x4cc>)
 800486a:	2200      	movs	r2, #0
 800486c:	601a      	str	r2, [r3, #0]

        /* Get Start Tick */
        tickstart = HAL_GetTick();
 800486e:	f7ff f92b 	bl	8003ac8 <HAL_GetTick>
 8004872:	6138      	str	r0, [r7, #16]

        /* Wait till PLL is disabled */
        while (__HAL_RCC_GET_FLAG(RCC_FLAG_PLLRDY)  != RESET)
 8004874:	e008      	b.n	8004888 <HAL_RCC_OscConfig+0x41c>
        {
          if ((HAL_GetTick() - tickstart) > PLL_TIMEOUT_VALUE)
 8004876:	f7ff f927 	bl	8003ac8 <HAL_GetTick>
 800487a:	4602      	mov	r2, r0
 800487c:	693b      	ldr	r3, [r7, #16]
 800487e:	1ad3      	subs	r3, r2, r3
 8004880:	2b02      	cmp	r3, #2
 8004882:	d901      	bls.n	8004888 <HAL_RCC_OscConfig+0x41c>
          {
            return HAL_TIMEOUT;
 8004884:	2303      	movs	r3, #3
 8004886:	e06d      	b.n	8004964 <HAL_RCC_OscConfig+0x4f8>
        while (__HAL_RCC_GET_FLAG(RCC_FLAG_PLLRDY)  != RESET)
 8004888:	4b29      	ldr	r3, [pc, #164]	@ (8004930 <HAL_RCC_OscConfig+0x4c4>)
 800488a:	681b      	ldr	r3, [r3, #0]
 800488c:	f003 7300 	and.w	r3, r3, #33554432	@ 0x2000000
 8004890:	2b00      	cmp	r3, #0
 8004892:	d1f0      	bne.n	8004876 <HAL_RCC_OscConfig+0x40a>
          }
        }

        /* Configure the HSE prediv factor --------------------------------*/
        /* It can be written only when the PLL is disabled. Not used in PLL source is different than HSE */
        if (RCC_OscInitStruct->PLL.PLLSource == RCC_PLLSOURCE_HSE)
 8004894:	687b      	ldr	r3, [r7, #4]
 8004896:	6a1b      	ldr	r3, [r3, #32]
 8004898:	f5b3 3f80 	cmp.w	r3, #65536	@ 0x10000
 800489c:	d108      	bne.n	80048b0 <HAL_RCC_OscConfig+0x444>
          /* Set PREDIV1 source */
          SET_BIT(RCC->CFGR2, RCC_OscInitStruct->Prediv1Source);
#endif /* RCC_CFGR2_PREDIV1SRC */

          /* Set PREDIV1 Value */
          __HAL_RCC_HSE_PREDIV_CONFIG(RCC_OscInitStruct->HSEPredivValue);
 800489e:	4b24      	ldr	r3, [pc, #144]	@ (8004930 <HAL_RCC_OscConfig+0x4c4>)
 80048a0:	685b      	ldr	r3, [r3, #4]
 80048a2:	f423 3200 	bic.w	r2, r3, #131072	@ 0x20000
 80048a6:	687b      	ldr	r3, [r7, #4]
 80048a8:	689b      	ldr	r3, [r3, #8]
 80048aa:	4921      	ldr	r1, [pc, #132]	@ (8004930 <HAL_RCC_OscConfig+0x4c4>)
 80048ac:	4313      	orrs	r3, r2
 80048ae:	604b      	str	r3, [r1, #4]
        }

        /* Configure the main PLL clock source and multiplication factors. */
        __HAL_RCC_PLL_CONFIG(RCC_OscInitStruct->PLL.PLLSource,
 80048b0:	4b1f      	ldr	r3, [pc, #124]	@ (8004930 <HAL_RCC_OscConfig+0x4c4>)
 80048b2:	685b      	ldr	r3, [r3, #4]
 80048b4:	f423 1274 	bic.w	r2, r3, #3997696	@ 0x3d0000
 80048b8:	687b      	ldr	r3, [r7, #4]
 80048ba:	6a19      	ldr	r1, [r3, #32]
 80048bc:	687b      	ldr	r3, [r7, #4]
 80048be:	6a5b      	ldr	r3, [r3, #36]	@ 0x24
 80048c0:	430b      	orrs	r3, r1
 80048c2:	491b      	ldr	r1, [pc, #108]	@ (8004930 <HAL_RCC_OscConfig+0x4c4>)
 80048c4:	4313      	orrs	r3, r2
 80048c6:	604b      	str	r3, [r1, #4]
                             RCC_OscInitStruct->PLL.PLLMUL);
        /* Enable the main PLL. */
        __HAL_RCC_PLL_ENABLE();
 80048c8:	4b1b      	ldr	r3, [pc, #108]	@ (8004938 <HAL_RCC_OscConfig+0x4cc>)
 80048ca:	2201      	movs	r2, #1
 80048cc:	601a      	str	r2, [r3, #0]

        /* Get Start Tick */
        tickstart = HAL_GetTick();
 80048ce:	f7ff f8fb 	bl	8003ac8 <HAL_GetTick>
 80048d2:	6138      	str	r0, [r7, #16]

        /* Wait till PLL is ready */
        while (__HAL_RCC_GET_FLAG(RCC_FLAG_PLLRDY)  == RESET)
 80048d4:	e008      	b.n	80048e8 <HAL_RCC_OscConfig+0x47c>
        {
          if ((HAL_GetTick() - tickstart) > PLL_TIMEOUT_VALUE)
 80048d6:	f7ff f8f7 	bl	8003ac8 <HAL_GetTick>
 80048da:	4602      	mov	r2, r0
 80048dc:	693b      	ldr	r3, [r7, #16]
 80048de:	1ad3      	subs	r3, r2, r3
 80048e0:	2b02      	cmp	r3, #2
 80048e2:	d901      	bls.n	80048e8 <HAL_RCC_OscConfig+0x47c>
          {
            return HAL_TIMEOUT;
 80048e4:	2303      	movs	r3, #3
 80048e6:	e03d      	b.n	8004964 <HAL_RCC_OscConfig+0x4f8>
        while (__HAL_RCC_GET_FLAG(RCC_FLAG_PLLRDY)  == RESET)
 80048e8:	4b11      	ldr	r3, [pc, #68]	@ (8004930 <HAL_RCC_OscConfig+0x4c4>)
 80048ea:	681b      	ldr	r3, [r3, #0]
 80048ec:	f003 7300 	and.w	r3, r3, #33554432	@ 0x2000000
 80048f0:	2b00      	cmp	r3, #0
 80048f2:	d0f0      	beq.n	80048d6 <HAL_RCC_OscConfig+0x46a>
 80048f4:	e035      	b.n	8004962 <HAL_RCC_OscConfig+0x4f6>
        }
      }
      else
      {
        /* Disable the main PLL. */
        __HAL_RCC_PLL_DISABLE();
 80048f6:	4b10      	ldr	r3, [pc, #64]	@ (8004938 <HAL_RCC_OscConfig+0x4cc>)
 80048f8:	2200      	movs	r2, #0
 80048fa:	601a      	str	r2, [r3, #0]

        /* Get Start Tick */
        tickstart = HAL_GetTick();
 80048fc:	f7ff f8e4 	bl	8003ac8 <HAL_GetTick>
 8004900:	6138      	str	r0, [r7, #16]

        /* Wait till PLL is disabled */
        while (__HAL_RCC_GET_FLAG(RCC_FLAG_PLLRDY)  != RESET)
 8004902:	e008      	b.n	8004916 <HAL_RCC_OscConfig+0x4aa>
        {
          if ((HAL_GetTick() - tickstart) > PLL_TIMEOUT_VALUE)
 8004904:	f7ff f8e0 	bl	8003ac8 <HAL_GetTick>
 8004908:	4602      	mov	r2, r0
 800490a:	693b      	ldr	r3, [r7, #16]
 800490c:	1ad3      	subs	r3, r2, r3
 800490e:	2b02      	cmp	r3, #2
 8004910:	d901      	bls.n	8004916 <HAL_RCC_OscConfig+0x4aa>
          {
            return HAL_TIMEOUT;
 8004912:	2303      	movs	r3, #3
 8004914:	e026      	b.n	8004964 <HAL_RCC_OscConfig+0x4f8>
        while (__HAL_RCC_GET_FLAG(RCC_FLAG_PLLRDY)  != RESET)
 8004916:	4b06      	ldr	r3, [pc, #24]	@ (8004930 <HAL_RCC_OscConfig+0x4c4>)
 8004918:	681b      	ldr	r3, [r3, #0]
 800491a:	f003 7300 	and.w	r3, r3, #33554432	@ 0x2000000
 800491e:	2b00      	cmp	r3, #0
 8004920:	d1f0      	bne.n	8004904 <HAL_RCC_OscConfig+0x498>
 8004922:	e01e      	b.n	8004962 <HAL_RCC_OscConfig+0x4f6>
      }
    }
    else
    {
      /* Check if there is a request to disable the PLL used as System clock source */
      if ((RCC_OscInitStruct->PLL.PLLState) == RCC_PLL_OFF)
 8004924:	687b      	ldr	r3, [r7, #4]
 8004926:	69db      	ldr	r3, [r3, #28]
 8004928:	2b01      	cmp	r3, #1
 800492a:	d107      	bne.n	800493c <HAL_RCC_OscConfig+0x4d0>
      {
        return HAL_ERROR;
 800492c:	2301      	movs	r3, #1
 800492e:	e019      	b.n	8004964 <HAL_RCC_OscConfig+0x4f8>
 8004930:	40021000 	.word	0x40021000
 8004934:	40007000 	.word	0x40007000
 8004938:	42420060 	.word	0x42420060
      }
      else
      {
        /* Do not return HAL_ERROR if request repeats the current configuration */
        pll_config = RCC->CFGR;
 800493c:	4b0b      	ldr	r3, [pc, #44]	@ (800496c <HAL_RCC_OscConfig+0x500>)
 800493e:	685b      	ldr	r3, [r3, #4]
 8004940:	60fb      	str	r3, [r7, #12]
        if ((READ_BIT(pll_config, RCC_CFGR_PLLSRC) != RCC_OscInitStruct->PLL.PLLSource) ||
 8004942:	68fb      	ldr	r3, [r7, #12]
 8004944:	f403 3280 	and.w	r2, r3, #65536	@ 0x10000
 8004948:	687b      	ldr	r3, [r7, #4]
 800494a:	6a1b      	ldr	r3, [r3, #32]
 800494c:	429a      	cmp	r2, r3
 800494e:	d106      	bne.n	800495e <HAL_RCC_OscConfig+0x4f2>
            (READ_BIT(pll_config, RCC_CFGR_PLLMULL) != RCC_OscInitStruct->PLL.PLLMUL))
 8004950:	68fb      	ldr	r3, [r7, #12]
 8004952:	f403 1270 	and.w	r2, r3, #3932160	@ 0x3c0000
 8004956:	687b      	ldr	r3, [r7, #4]
 8004958:	6a5b      	ldr	r3, [r3, #36]	@ 0x24
        if ((READ_BIT(pll_config, RCC_CFGR_PLLSRC) != RCC_OscInitStruct->PLL.PLLSource) ||
 800495a:	429a      	cmp	r2, r3
 800495c:	d001      	beq.n	8004962 <HAL_RCC_OscConfig+0x4f6>
        {
          return HAL_ERROR;
 800495e:	2301      	movs	r3, #1
 8004960:	e000      	b.n	8004964 <HAL_RCC_OscConfig+0x4f8>
        }
      }
    }
  }

  return HAL_OK;
 8004962:	2300      	movs	r3, #0
}
 8004964:	4618      	mov	r0, r3
 8004966:	3718      	adds	r7, #24
 8004968:	46bd      	mov	sp, r7
 800496a:	bd80      	pop	{r7, pc}
 800496c:	40021000 	.word	0x40021000

08004970 <HAL_RCC_ClockConfig>:
  *         You can use @ref HAL_RCC_GetClockConfig() function to know which clock is
  *         currently used as system clock source.
  * @retval HAL status
  */
HAL_StatusTypeDef HAL_RCC_ClockConfig(RCC_ClkInitTypeDef  *RCC_ClkInitStruct, uint32_t FLatency)
{
 8004970:	b580      	push	{r7, lr}
 8004972:	b084      	sub	sp, #16
 8004974:	af00      	add	r7, sp, #0
 8004976:	6078      	str	r0, [r7, #4]
 8004978:	6039      	str	r1, [r7, #0]
  uint32_t tickstart;

  /* Check Null pointer */
  if (RCC_ClkInitStruct == NULL)
 800497a:	687b      	ldr	r3, [r7, #4]
 800497c:	2b00      	cmp	r3, #0
 800497e:	d101      	bne.n	8004984 <HAL_RCC_ClockConfig+0x14>
  {
    return HAL_ERROR;
 8004980:	2301      	movs	r3, #1
 8004982:	e0d0      	b.n	8004b26 <HAL_RCC_ClockConfig+0x1b6>
  must be correctly programmed according to the frequency of the CPU clock
    (HCLK) of the device. */

#if defined(FLASH_ACR_LATENCY)
  /* Increasing the number of wait states because of higher CPU frequency */
  if (FLatency > __HAL_FLASH_GET_LATENCY())
 8004984:	4b6a      	ldr	r3, [pc, #424]	@ (8004b30 <HAL_RCC_ClockConfig+0x1c0>)
 8004986:	681b      	ldr	r3, [r3, #0]
 8004988:	f003 0307 	and.w	r3, r3, #7
 800498c:	683a      	ldr	r2, [r7, #0]
 800498e:	429a      	cmp	r2, r3
 8004990:	d910      	bls.n	80049b4 <HAL_RCC_ClockConfig+0x44>
  {
    /* Program the new number of wait states to the LATENCY bits in the FLASH_ACR register */
    __HAL_FLASH_SET_LATENCY(FLatency);
 8004992:	4b67      	ldr	r3, [pc, #412]	@ (8004b30 <HAL_RCC_ClockConfig+0x1c0>)
 8004994:	681b      	ldr	r3, [r3, #0]
 8004996:	f023 0207 	bic.w	r2, r3, #7
 800499a:	4965      	ldr	r1, [pc, #404]	@ (8004b30 <HAL_RCC_ClockConfig+0x1c0>)
 800499c:	683b      	ldr	r3, [r7, #0]
 800499e:	4313      	orrs	r3, r2
 80049a0:	600b      	str	r3, [r1, #0]

    /* Check that the new number of wait states is taken into account to access the Flash
    memory by reading the FLASH_ACR register */
    if (__HAL_FLASH_GET_LATENCY() != FLatency)
 80049a2:	4b63      	ldr	r3, [pc, #396]	@ (8004b30 <HAL_RCC_ClockConfig+0x1c0>)
 80049a4:	681b      	ldr	r3, [r3, #0]
 80049a6:	f003 0307 	and.w	r3, r3, #7
 80049aa:	683a      	ldr	r2, [r7, #0]
 80049ac:	429a      	cmp	r2, r3
 80049ae:	d001      	beq.n	80049b4 <HAL_RCC_ClockConfig+0x44>
  {
    return HAL_ERROR;
 80049b0:	2301      	movs	r3, #1
 80049b2:	e0b8      	b.n	8004b26 <HAL_RCC_ClockConfig+0x1b6>
  }
}

#endif /* FLASH_ACR_LATENCY */
/*-------------------------- HCLK Configuration --------------------------*/
if (((RCC_ClkInitStruct->ClockType) & RCC_CLOCKTYPE_HCLK) == RCC_CLOCKTYPE_HCLK)
 80049b4:	687b      	ldr	r3, [r7, #4]
 80049b6:	681b      	ldr	r3, [r3, #0]
 80049b8:	f003 0302 	and.w	r3, r3, #2
 80049bc:	2b00      	cmp	r3, #0
 80049be:	d020      	beq.n	8004a02 <HAL_RCC_ClockConfig+0x92>
  {
    /* Set the highest APBx dividers in order to ensure that we do not go through
    a non-spec phase whatever we decrease or increase HCLK. */
    if (((RCC_ClkInitStruct->ClockType) & RCC_CLOCKTYPE_PCLK1) == RCC_CLOCKTYPE_PCLK1)
 80049c0:	687b      	ldr	r3, [r7, #4]
 80049c2:	681b      	ldr	r3, [r3, #0]
 80049c4:	f003 0304 	and.w	r3, r3, #4
 80049c8:	2b00      	cmp	r3, #0
 80049ca:	d005      	beq.n	80049d8 <HAL_RCC_ClockConfig+0x68>
    {
      MODIFY_REG(RCC->CFGR, RCC_CFGR_PPRE1, RCC_HCLK_DIV16);
 80049cc:	4b59      	ldr	r3, [pc, #356]	@ (8004b34 <HAL_RCC_ClockConfig+0x1c4>)
 80049ce:	685b      	ldr	r3, [r3, #4]
 80049d0:	4a58      	ldr	r2, [pc, #352]	@ (8004b34 <HAL_RCC_ClockConfig+0x1c4>)
 80049d2:	f443 63e0 	orr.w	r3, r3, #1792	@ 0x700
 80049d6:	6053      	str	r3, [r2, #4]
    }

    if (((RCC_ClkInitStruct->ClockType) & RCC_CLOCKTYPE_PCLK2) == RCC_CLOCKTYPE_PCLK2)
 80049d8:	687b      	ldr	r3, [r7, #4]
 80049da:	681b      	ldr	r3, [r3, #0]
 80049dc:	f003 0308 	and.w	r3, r3, #8
 80049e0:	2b00      	cmp	r3, #0
 80049e2:	d005      	beq.n	80049f0 <HAL_RCC_ClockConfig+0x80>
    {
      MODIFY_REG(RCC->CFGR, RCC_CFGR_PPRE2, (RCC_HCLK_DIV16 << 3));
 80049e4:	4b53      	ldr	r3, [pc, #332]	@ (8004b34 <HAL_RCC_ClockConfig+0x1c4>)
 80049e6:	685b      	ldr	r3, [r3, #4]
 80049e8:	4a52      	ldr	r2, [pc, #328]	@ (8004b34 <HAL_RCC_ClockConfig+0x1c4>)
 80049ea:	f443 5360 	orr.w	r3, r3, #14336	@ 0x3800
 80049ee:	6053      	str	r3, [r2, #4]
    }

    /* Set the new HCLK clock divider */
    assert_param(IS_RCC_HCLK(RCC_ClkInitStruct->AHBCLKDivider));
    MODIFY_REG(RCC->CFGR, RCC_CFGR_HPRE, RCC_ClkInitStruct->AHBCLKDivider);
 80049f0:	4b50      	ldr	r3, [pc, #320]	@ (8004b34 <HAL_RCC_ClockConfig+0x1c4>)
 80049f2:	685b      	ldr	r3, [r3, #4]
 80049f4:	f023 02f0 	bic.w	r2, r3, #240	@ 0xf0
 80049f8:	687b      	ldr	r3, [r7, #4]
 80049fa:	689b      	ldr	r3, [r3, #8]
 80049fc:	494d      	ldr	r1, [pc, #308]	@ (8004b34 <HAL_RCC_ClockConfig+0x1c4>)
 80049fe:	4313      	orrs	r3, r2
 8004a00:	604b      	str	r3, [r1, #4]
  }

  /*------------------------- SYSCLK Configuration ---------------------------*/
  if (((RCC_ClkInitStruct->ClockType) & RCC_CLOCKTYPE_SYSCLK) == RCC_CLOCKTYPE_SYSCLK)
 8004a02:	687b      	ldr	r3, [r7, #4]
 8004a04:	681b      	ldr	r3, [r3, #0]
 8004a06:	f003 0301 	and.w	r3, r3, #1
 8004a0a:	2b00      	cmp	r3, #0
 8004a0c:	d040      	beq.n	8004a90 <HAL_RCC_ClockConfig+0x120>
  {
    assert_param(IS_RCC_SYSCLKSOURCE(RCC_ClkInitStruct->SYSCLKSource));

    /* HSE is selected as System Clock Source */
    if (RCC_ClkInitStruct->SYSCLKSource == RCC_SYSCLKSOURCE_HSE)
 8004a0e:	687b      	ldr	r3, [r7, #4]
 8004a10:	685b      	ldr	r3, [r3, #4]
 8004a12:	2b01      	cmp	r3, #1
 8004a14:	d107      	bne.n	8004a26 <HAL_RCC_ClockConfig+0xb6>
    {
      /* Check the HSE ready flag */
      if (__HAL_RCC_GET_FLAG(RCC_FLAG_HSERDY) == RESET)
 8004a16:	4b47      	ldr	r3, [pc, #284]	@ (8004b34 <HAL_RCC_ClockConfig+0x1c4>)
 8004a18:	681b      	ldr	r3, [r3, #0]
 8004a1a:	f403 3300 	and.w	r3, r3, #131072	@ 0x20000
 8004a1e:	2b00      	cmp	r3, #0
 8004a20:	d115      	bne.n	8004a4e <HAL_RCC_ClockConfig+0xde>
      {
        return HAL_ERROR;
 8004a22:	2301      	movs	r3, #1
 8004a24:	e07f      	b.n	8004b26 <HAL_RCC_ClockConfig+0x1b6>
      }
    }
    /* PLL is selected as System Clock Source */
    else if (RCC_ClkInitStruct->SYSCLKSource == RCC_SYSCLKSOURCE_PLLCLK)
 8004a26:	687b      	ldr	r3, [r7, #4]
 8004a28:	685b      	ldr	r3, [r3, #4]
 8004a2a:	2b02      	cmp	r3, #2
 8004a2c:	d107      	bne.n	8004a3e <HAL_RCC_ClockConfig+0xce>
    {
      /* Check the PLL ready flag */
      if (__HAL_RCC_GET_FLAG(RCC_FLAG_PLLRDY) == RESET)
 8004a2e:	4b41      	ldr	r3, [pc, #260]	@ (8004b34 <HAL_RCC_ClockConfig+0x1c4>)
 8004a30:	681b      	ldr	r3, [r3, #0]
 8004a32:	f003 7300 	and.w	r3, r3, #33554432	@ 0x2000000
 8004a36:	2b00      	cmp	r3, #0
 8004a38:	d109      	bne.n	8004a4e <HAL_RCC_ClockConfig+0xde>
      {
        return HAL_ERROR;
 8004a3a:	2301      	movs	r3, #1
 8004a3c:	e073      	b.n	8004b26 <HAL_RCC_ClockConfig+0x1b6>
    }
    /* HSI is selected as System Clock Source */
    else
    {
      /* Check the HSI ready flag */
      if (__HAL_RCC_GET_FLAG(RCC_FLAG_HSIRDY) == RESET)
 8004a3e:	4b3d      	ldr	r3, [pc, #244]	@ (8004b34 <HAL_RCC_ClockConfig+0x1c4>)
 8004a40:	681b      	ldr	r3, [r3, #0]
 8004a42:	f003 0302 	and.w	r3, r3, #2
 8004a46:	2b00      	cmp	r3, #0
 8004a48:	d101      	bne.n	8004a4e <HAL_RCC_ClockConfig+0xde>
      {
        return HAL_ERROR;
 8004a4a:	2301      	movs	r3, #1
 8004a4c:	e06b      	b.n	8004b26 <HAL_RCC_ClockConfig+0x1b6>
      }
    }
    __HAL_RCC_SYSCLK_CONFIG(RCC_ClkInitStruct->SYSCLKSource);
 8004a4e:	4b39      	ldr	r3, [pc, #228]	@ (8004b34 <HAL_RCC_ClockConfig+0x1c4>)
 8004a50:	685b      	ldr	r3, [r3, #4]
 8004a52:	f023 0203 	bic.w	r2, r3, #3
 8004a56:	687b      	ldr	r3, [r7, #4]
 8004a58:	685b      	ldr	r3, [r3, #4]
 8004a5a:	4936      	ldr	r1, [pc, #216]	@ (8004b34 <HAL_RCC_ClockConfig+0x1c4>)
 8004a5c:	4313      	orrs	r3, r2
 8004a5e:	604b      	str	r3, [r1, #4]

    /* Get Start Tick */
    tickstart = HAL_GetTick();
 8004a60:	f7ff f832 	bl	8003ac8 <HAL_GetTick>
 8004a64:	60f8      	str	r0, [r7, #12]

    while (__HAL_RCC_GET_SYSCLK_SOURCE() != (RCC_ClkInitStruct->SYSCLKSource << RCC_CFGR_SWS_Pos))
 8004a66:	e00a      	b.n	8004a7e <HAL_RCC_ClockConfig+0x10e>
    {
      if ((HAL_GetTick() - tickstart) > CLOCKSWITCH_TIMEOUT_VALUE)
 8004a68:	f7ff f82e 	bl	8003ac8 <HAL_GetTick>
 8004a6c:	4602      	mov	r2, r0
 8004a6e:	68fb      	ldr	r3, [r7, #12]
 8004a70:	1ad3      	subs	r3, r2, r3
 8004a72:	f241 3288 	movw	r2, #5000	@ 0x1388
 8004a76:	4293      	cmp	r3, r2
 8004a78:	d901      	bls.n	8004a7e <HAL_RCC_ClockConfig+0x10e>
      {
        return HAL_TIMEOUT;
 8004a7a:	2303      	movs	r3, #3
 8004a7c:	e053      	b.n	8004b26 <HAL_RCC_ClockConfig+0x1b6>
    while (__HAL_RCC_GET_SYSCLK_SOURCE() != (RCC_ClkInitStruct->SYSCLKSource << RCC_CFGR_SWS_Pos))
 8004a7e:	4b2d      	ldr	r3, [pc, #180]	@ (8004b34 <HAL_RCC_ClockConfig+0x1c4>)
 8004a80:	685b      	ldr	r3, [r3, #4]
 8004a82:	f003 020c 	and.w	r2, r3, #12
 8004a86:	687b      	ldr	r3, [r7, #4]
 8004a88:	685b      	ldr	r3, [r3, #4]
 8004a8a:	009b      	lsls	r3, r3, #2
 8004a8c:	429a      	cmp	r2, r3
 8004a8e:	d1eb      	bne.n	8004a68 <HAL_RCC_ClockConfig+0xf8>
    }
  }

#if defined(FLASH_ACR_LATENCY)
  /* Decreasing the number of wait states because of lower CPU frequency */
  if (FLatency < __HAL_FLASH_GET_LATENCY())
 8004a90:	4b27      	ldr	r3, [pc, #156]	@ (8004b30 <HAL_RCC_ClockConfig+0x1c0>)
 8004a92:	681b      	ldr	r3, [r3, #0]
 8004a94:	f003 0307 	and.w	r3, r3, #7
 8004a98:	683a      	ldr	r2, [r7, #0]
 8004a9a:	429a      	cmp	r2, r3
 8004a9c:	d210      	bcs.n	8004ac0 <HAL_RCC_ClockConfig+0x150>
  {
    /* Program the new number of wait states to the LATENCY bits in the FLASH_ACR register */
    __HAL_FLASH_SET_LATENCY(FLatency);
 8004a9e:	4b24      	ldr	r3, [pc, #144]	@ (8004b30 <HAL_RCC_ClockConfig+0x1c0>)
 8004aa0:	681b      	ldr	r3, [r3, #0]
 8004aa2:	f023 0207 	bic.w	r2, r3, #7
 8004aa6:	4922      	ldr	r1, [pc, #136]	@ (8004b30 <HAL_RCC_ClockConfig+0x1c0>)
 8004aa8:	683b      	ldr	r3, [r7, #0]
 8004aaa:	4313      	orrs	r3, r2
 8004aac:	600b      	str	r3, [r1, #0]

    /* Check that the new number of wait states is taken into account to access the Flash
    memory by reading the FLASH_ACR register */
    if (__HAL_FLASH_GET_LATENCY() != FLatency)
 8004aae:	4b20      	ldr	r3, [pc, #128]	@ (8004b30 <HAL_RCC_ClockConfig+0x1c0>)
 8004ab0:	681b      	ldr	r3, [r3, #0]
 8004ab2:	f003 0307 	and.w	r3, r3, #7
 8004ab6:	683a      	ldr	r2, [r7, #0]
 8004ab8:	429a      	cmp	r2, r3
 8004aba:	d001      	beq.n	8004ac0 <HAL_RCC_ClockConfig+0x150>
  {
    return HAL_ERROR;
 8004abc:	2301      	movs	r3, #1
 8004abe:	e032      	b.n	8004b26 <HAL_RCC_ClockConfig+0x1b6>
  }
}
#endif /* FLASH_ACR_LATENCY */

/*-------------------------- PCLK1 Configuration ---------------------------*/
if (((RCC_ClkInitStruct->ClockType) & RCC_CLOCKTYPE_PCLK1) == RCC_CLOCKTYPE_PCLK1)
 8004ac0:	687b      	ldr	r3, [r7, #4]
 8004ac2:	681b      	ldr	r3, [r3, #0]
 8004ac4:	f003 0304 	and.w	r3, r3, #4
 8004ac8:	2b00      	cmp	r3, #0
 8004aca:	d008      	beq.n	8004ade <HAL_RCC_ClockConfig+0x16e>
  {
    assert_param(IS_RCC_PCLK(RCC_ClkInitStruct->APB1CLKDivider));
    MODIFY_REG(RCC->CFGR, RCC_CFGR_PPRE1, RCC_ClkInitStruct->APB1CLKDivider);
 8004acc:	4b19      	ldr	r3, [pc, #100]	@ (8004b34 <HAL_RCC_ClockConfig+0x1c4>)
 8004ace:	685b      	ldr	r3, [r3, #4]
 8004ad0:	f423 62e0 	bic.w	r2, r3, #1792	@ 0x700
 8004ad4:	687b      	ldr	r3, [r7, #4]
 8004ad6:	68db      	ldr	r3, [r3, #12]
 8004ad8:	4916      	ldr	r1, [pc, #88]	@ (8004b34 <HAL_RCC_ClockConfig+0x1c4>)
 8004ada:	4313      	orrs	r3, r2
 8004adc:	604b      	str	r3, [r1, #4]
  }

  /*-------------------------- PCLK2 Configuration ---------------------------*/
  if (((RCC_ClkInitStruct->ClockType) & RCC_CLOCKTYPE_PCLK2) == RCC_CLOCKTYPE_PCLK2)
 8004ade:	687b      	ldr	r3, [r7, #4]
 8004ae0:	681b      	ldr	r3, [r3, #0]
 8004ae2:	f003 0308 	and.w	r3, r3, #8
 8004ae6:	2b00      	cmp	r3, #0
 8004ae8:	d009      	beq.n	8004afe <HAL_RCC_ClockConfig+0x18e>
  {
    assert_param(IS_RCC_PCLK(RCC_ClkInitStruct->APB2CLKDivider));
    MODIFY_REG(RCC->CFGR, RCC_CFGR_PPRE2, ((RCC_ClkInitStruct->APB2CLKDivider) << 3));
 8004aea:	4b12      	ldr	r3, [pc, #72]	@ (8004b34 <HAL_RCC_ClockConfig+0x1c4>)
 8004aec:	685b      	ldr	r3, [r3, #4]
 8004aee:	f423 5260 	bic.w	r2, r3, #14336	@ 0x3800
 8004af2:	687b      	ldr	r3, [r7, #4]
 8004af4:	691b      	ldr	r3, [r3, #16]
 8004af6:	00db      	lsls	r3, r3, #3
 8004af8:	490e      	ldr	r1, [pc, #56]	@ (8004b34 <HAL_RCC_ClockConfig+0x1c4>)
 8004afa:	4313      	orrs	r3, r2
 8004afc:	604b      	str	r3, [r1, #4]
  }

  /* Update the SystemCoreClock global variable */
  SystemCoreClock = HAL_RCC_GetSysClockFreq() >> AHBPrescTable[(RCC->CFGR & RCC_CFGR_HPRE) >> RCC_CFGR_HPRE_Pos];
 8004afe:	f000 f821 	bl	8004b44 <HAL_RCC_GetSysClockFreq>
 8004b02:	4602      	mov	r2, r0
 8004b04:	4b0b      	ldr	r3, [pc, #44]	@ (8004b34 <HAL_RCC_ClockConfig+0x1c4>)
 8004b06:	685b      	ldr	r3, [r3, #4]
 8004b08:	091b      	lsrs	r3, r3, #4
 8004b0a:	f003 030f 	and.w	r3, r3, #15
 8004b0e:	490a      	ldr	r1, [pc, #40]	@ (8004b38 <HAL_RCC_ClockConfig+0x1c8>)
 8004b10:	5ccb      	ldrb	r3, [r1, r3]
 8004b12:	fa22 f303 	lsr.w	r3, r2, r3
 8004b16:	4a09      	ldr	r2, [pc, #36]	@ (8004b3c <HAL_RCC_ClockConfig+0x1cc>)
 8004b18:	6013      	str	r3, [r2, #0]

  /* Configure the source of time base considering new system clocks settings*/
  HAL_InitTick(uwTickPrio);
 8004b1a:	4b09      	ldr	r3, [pc, #36]	@ (8004b40 <HAL_RCC_ClockConfig+0x1d0>)
 8004b1c:	681b      	ldr	r3, [r3, #0]
 8004b1e:	4618      	mov	r0, r3
 8004b20:	f7fe ff90 	bl	8003a44 <HAL_InitTick>

  return HAL_OK;
 8004b24:	2300      	movs	r3, #0
}
 8004b26:	4618      	mov	r0, r3
 8004b28:	3710      	adds	r7, #16
 8004b2a:	46bd      	mov	sp, r7
 8004b2c:	bd80      	pop	{r7, pc}
 8004b2e:	bf00      	nop
 8004b30:	40022000 	.word	0x40022000
 8004b34:	40021000 	.word	0x40021000
 8004b38:	08008c00 	.word	0x08008c00
 8004b3c:	20000034 	.word	0x20000034
 8004b40:	20000038 	.word	0x20000038

08004b44 <HAL_RCC_GetSysClockFreq>:
  *         right SYSCLK value. Otherwise, any configuration based on this function will be incorrect.
  *
  * @retval SYSCLK frequency
  */
uint32_t HAL_RCC_GetSysClockFreq(void)
{
 8004b44:	b480      	push	{r7}
 8004b46:	b087      	sub	sp, #28
 8004b48:	af00      	add	r7, sp, #0
#else
  static const uint8_t aPredivFactorTable[2U] = {1, 2};
#endif /*RCC_CFGR2_PREDIV1*/

#endif
  uint32_t tmpreg = 0U, prediv = 0U, pllclk = 0U, pllmul = 0U;
 8004b4a:	2300      	movs	r3, #0
 8004b4c:	60fb      	str	r3, [r7, #12]
 8004b4e:	2300      	movs	r3, #0
 8004b50:	60bb      	str	r3, [r7, #8]
 8004b52:	2300      	movs	r3, #0
 8004b54:	617b      	str	r3, [r7, #20]
 8004b56:	2300      	movs	r3, #0
 8004b58:	607b      	str	r3, [r7, #4]
  uint32_t sysclockfreq = 0U;
 8004b5a:	2300      	movs	r3, #0
 8004b5c:	613b      	str	r3, [r7, #16]
#if defined(RCC_CFGR2_PREDIV1SRC)
  uint32_t prediv2 = 0U, pll2mul = 0U;
#endif /*RCC_CFGR2_PREDIV1SRC*/

  tmpreg = RCC->CFGR;
 8004b5e:	4b1e      	ldr	r3, [pc, #120]	@ (8004bd8 <HAL_RCC_GetSysClockFreq+0x94>)
 8004b60:	685b      	ldr	r3, [r3, #4]
 8004b62:	60fb      	str	r3, [r7, #12]

  /* Get SYSCLK source -------------------------------------------------------*/
  switch (tmpreg & RCC_CFGR_SWS)
 8004b64:	68fb      	ldr	r3, [r7, #12]
 8004b66:	f003 030c 	and.w	r3, r3, #12
 8004b6a:	2b04      	cmp	r3, #4
 8004b6c:	d002      	beq.n	8004b74 <HAL_RCC_GetSysClockFreq+0x30>
 8004b6e:	2b08      	cmp	r3, #8
 8004b70:	d003      	beq.n	8004b7a <HAL_RCC_GetSysClockFreq+0x36>
 8004b72:	e027      	b.n	8004bc4 <HAL_RCC_GetSysClockFreq+0x80>
  {
    case RCC_SYSCLKSOURCE_STATUS_HSE:  /* HSE used as system clock */
    {
      sysclockfreq = HSE_VALUE;
 8004b74:	4b19      	ldr	r3, [pc, #100]	@ (8004bdc <HAL_RCC_GetSysClockFreq+0x98>)
 8004b76:	613b      	str	r3, [r7, #16]
      break;
 8004b78:	e027      	b.n	8004bca <HAL_RCC_GetSysClockFreq+0x86>
    }
    case RCC_SYSCLKSOURCE_STATUS_PLLCLK:  /* PLL used as system clock */
    {
      pllmul = aPLLMULFactorTable[(uint32_t)(tmpreg & RCC_CFGR_PLLMULL) >> RCC_CFGR_PLLMULL_Pos];
 8004b7a:	68fb      	ldr	r3, [r7, #12]
 8004b7c:	0c9b      	lsrs	r3, r3, #18
 8004b7e:	f003 030f 	and.w	r3, r3, #15
 8004b82:	4a17      	ldr	r2, [pc, #92]	@ (8004be0 <HAL_RCC_GetSysClockFreq+0x9c>)
 8004b84:	5cd3      	ldrb	r3, [r2, r3]
 8004b86:	607b      	str	r3, [r7, #4]
      if ((tmpreg & RCC_CFGR_PLLSRC) != RCC_PLLSOURCE_HSI_DIV2)
 8004b88:	68fb      	ldr	r3, [r7, #12]
 8004b8a:	f403 3380 	and.w	r3, r3, #65536	@ 0x10000
 8004b8e:	2b00      	cmp	r3, #0
 8004b90:	d010      	beq.n	8004bb4 <HAL_RCC_GetSysClockFreq+0x70>
      {
#if defined(RCC_CFGR2_PREDIV1)
        prediv = aPredivFactorTable[(uint32_t)(RCC->CFGR2 & RCC_CFGR2_PREDIV1) >> RCC_CFGR2_PREDIV1_Pos];
#else
        prediv = aPredivFactorTable[(uint32_t)(RCC->CFGR & RCC_CFGR_PLLXTPRE) >> RCC_CFGR_PLLXTPRE_Pos];
 8004b92:	4b11      	ldr	r3, [pc, #68]	@ (8004bd8 <HAL_RCC_GetSysClockFreq+0x94>)
 8004b94:	685b      	ldr	r3, [r3, #4]
 8004b96:	0c5b      	lsrs	r3, r3, #17
 8004b98:	f003 0301 	and.w	r3, r3, #1
 8004b9c:	4a11      	ldr	r2, [pc, #68]	@ (8004be4 <HAL_RCC_GetSysClockFreq+0xa0>)
 8004b9e:	5cd3      	ldrb	r3, [r2, r3]
 8004ba0:	60bb      	str	r3, [r7, #8]
        {
          pllclk = pllclk / 2;
        }
#else
        /* HSE used as PLL clock source : PLLCLK = HSE/PREDIV1 * PLLMUL */
        pllclk = (uint32_t)((HSE_VALUE  * pllmul) / prediv);
 8004ba2:	687b      	ldr	r3, [r7, #4]
 8004ba4:	4a0d      	ldr	r2, [pc, #52]	@ (8004bdc <HAL_RCC_GetSysClockFreq+0x98>)
 8004ba6:	fb03 f202 	mul.w	r2, r3, r2
 8004baa:	68bb      	ldr	r3, [r7, #8]
 8004bac:	fbb2 f3f3 	udiv	r3, r2, r3
 8004bb0:	617b      	str	r3, [r7, #20]
 8004bb2:	e004      	b.n	8004bbe <HAL_RCC_GetSysClockFreq+0x7a>
#endif /*RCC_CFGR2_PREDIV1SRC*/
      }
      else
      {
        /* HSI used as PLL clock source : PLLCLK = HSI/2 * PLLMUL */
        pllclk = (uint32_t)((HSI_VALUE >> 1) * pllmul);
 8004bb4:	687b      	ldr	r3, [r7, #4]
 8004bb6:	4a0c      	ldr	r2, [pc, #48]	@ (8004be8 <HAL_RCC_GetSysClockFreq+0xa4>)
 8004bb8:	fb02 f303 	mul.w	r3, r2, r3
 8004bbc:	617b      	str	r3, [r7, #20]
      }
      sysclockfreq = pllclk;
 8004bbe:	697b      	ldr	r3, [r7, #20]
 8004bc0:	613b      	str	r3, [r7, #16]
      break;
 8004bc2:	e002      	b.n	8004bca <HAL_RCC_GetSysClockFreq+0x86>
    }
    case RCC_SYSCLKSOURCE_STATUS_HSI:  /* HSI used as system clock source */
    default: /* HSI used as system clock */
    {
      sysclockfreq = HSI_VALUE;
 8004bc4:	4b05      	ldr	r3, [pc, #20]	@ (8004bdc <HAL_RCC_GetSysClockFreq+0x98>)
 8004bc6:	613b      	str	r3, [r7, #16]
      break;
 8004bc8:	bf00      	nop
    }
  }
  return sysclockfreq;
 8004bca:	693b      	ldr	r3, [r7, #16]
}
 8004bcc:	4618      	mov	r0, r3
 8004bce:	371c      	adds	r7, #28
 8004bd0:	46bd      	mov	sp, r7
 8004bd2:	bc80      	pop	{r7}
 8004bd4:	4770      	bx	lr
 8004bd6:	bf00      	nop
 8004bd8:	40021000 	.word	0x40021000
 8004bdc:	007a1200 	.word	0x007a1200
 8004be0:	08008c10 	.word	0x08008c10
 8004be4:	08008c20 	.word	0x08008c20
 8004be8:	003d0900 	.word	0x003d0900

08004bec <RCC_Delay>:
  * @brief  This function provides delay (in milliseconds) based on CPU cycles method.
  * @param  mdelay: specifies the delay time length, in milliseconds.
  * @retval None
  */
static void RCC_Delay(uint32_t mdelay)
{
 8004bec:	b480      	push	{r7}
 8004bee:	b085      	sub	sp, #20
 8004bf0:	af00      	add	r7, sp, #0
 8004bf2:	6078      	str	r0, [r7, #4]
  __IO uint32_t Delay = mdelay * (SystemCoreClock / 8U / 1000U);
 8004bf4:	4b0a      	ldr	r3, [pc, #40]	@ (8004c20 <RCC_Delay+0x34>)
 8004bf6:	681b      	ldr	r3, [r3, #0]
 8004bf8:	4a0a      	ldr	r2, [pc, #40]	@ (8004c24 <RCC_Delay+0x38>)
 8004bfa:	fba2 2303 	umull	r2, r3, r2, r3
 8004bfe:	0a5b      	lsrs	r3, r3, #9
 8004c00:	687a      	ldr	r2, [r7, #4]
 8004c02:	fb02 f303 	mul.w	r3, r2, r3
 8004c06:	60fb      	str	r3, [r7, #12]
  do
  {
    __NOP();
 8004c08:	bf00      	nop
  }
  while (Delay --);
 8004c0a:	68fb      	ldr	r3, [r7, #12]
 8004c0c:	1e5a      	subs	r2, r3, #1
 8004c0e:	60fa      	str	r2, [r7, #12]
 8004c10:	2b00      	cmp	r3, #0
 8004c12:	d1f9      	bne.n	8004c08 <RCC_Delay+0x1c>
}
 8004c14:	bf00      	nop
 8004c16:	bf00      	nop
 8004c18:	3714      	adds	r7, #20
 8004c1a:	46bd      	mov	sp, r7
 8004c1c:	bc80      	pop	{r7}
 8004c1e:	4770      	bx	lr
 8004c20:	20000034 	.word	0x20000034
 8004c24:	10624dd3 	.word	0x10624dd3

08004c28 <HAL_SPI_Init>:
  * @param  hspi pointer to a SPI_HandleTypeDef structure that contains
  *               the configuration information for SPI module.
  * @retval HAL status
  */
HAL_StatusTypeDef HAL_SPI_Init(SPI_HandleTypeDef *hspi)
{
 8004c28:	b580      	push	{r7, lr}
 8004c2a:	b082      	sub	sp, #8
 8004c2c:	af00      	add	r7, sp, #0
 8004c2e:	6078      	str	r0, [r7, #4]
  /* Check the SPI handle allocation */
  if (hspi == NULL)
 8004c30:	687b      	ldr	r3, [r7, #4]
 8004c32:	2b00      	cmp	r3, #0
 8004c34:	d101      	bne.n	8004c3a <HAL_SPI_Init+0x12>
  {
    return HAL_ERROR;
 8004c36:	2301      	movs	r3, #1
 8004c38:	e076      	b.n	8004d28 <HAL_SPI_Init+0x100>
  assert_param(IS_SPI_BAUDRATE_PRESCALER(hspi->Init.BaudRatePrescaler));
  assert_param(IS_SPI_FIRST_BIT(hspi->Init.FirstBit));
  /* TI mode is not supported on this device.
     TIMode parameter is mandatory equal to SPI_TIMODE_DISABLE */
  assert_param(IS_SPI_TIMODE(hspi->Init.TIMode));
  if (hspi->Init.TIMode == SPI_TIMODE_DISABLE)
 8004c3a:	687b      	ldr	r3, [r7, #4]
 8004c3c:	6a5b      	ldr	r3, [r3, #36]	@ 0x24
 8004c3e:	2b00      	cmp	r3, #0
 8004c40:	d108      	bne.n	8004c54 <HAL_SPI_Init+0x2c>
  {
    assert_param(IS_SPI_CPOL(hspi->Init.CLKPolarity));
    assert_param(IS_SPI_CPHA(hspi->Init.CLKPhase));

    if (hspi->Init.Mode == SPI_MODE_MASTER)
 8004c42:	687b      	ldr	r3, [r7, #4]
 8004c44:	685b      	ldr	r3, [r3, #4]
 8004c46:	f5b3 7f82 	cmp.w	r3, #260	@ 0x104
 8004c4a:	d009      	beq.n	8004c60 <HAL_SPI_Init+0x38>
      assert_param(IS_SPI_BAUDRATE_PRESCALER(hspi->Init.BaudRatePrescaler));
    }
    else
    {
      /* Baudrate prescaler not use in Motoraola Slave mode. force to default value */
      hspi->Init.BaudRatePrescaler = SPI_BAUDRATEPRESCALER_2;
 8004c4c:	687b      	ldr	r3, [r7, #4]
 8004c4e:	2200      	movs	r2, #0
 8004c50:	61da      	str	r2, [r3, #28]
 8004c52:	e005      	b.n	8004c60 <HAL_SPI_Init+0x38>
  else
  {
    assert_param(IS_SPI_BAUDRATE_PRESCALER(hspi->Init.BaudRatePrescaler));

    /* Force polarity and phase to TI protocaol requirements */
    hspi->Init.CLKPolarity = SPI_POLARITY_LOW;
 8004c54:	687b      	ldr	r3, [r7, #4]
 8004c56:	2200      	movs	r2, #0
 8004c58:	611a      	str	r2, [r3, #16]
    hspi->Init.CLKPhase    = SPI_PHASE_1EDGE;
 8004c5a:	687b      	ldr	r3, [r7, #4]
 8004c5c:	2200      	movs	r2, #0
 8004c5e:	615a      	str	r2, [r3, #20]
  if (hspi->Init.CRCCalculation == SPI_CRCCALCULATION_ENABLE)
  {
    assert_param(IS_SPI_CRC_POLYNOMIAL(hspi->Init.CRCPolynomial));
  }
#else
  hspi->Init.CRCCalculation = SPI_CRCCALCULATION_DISABLE;
 8004c60:	687b      	ldr	r3, [r7, #4]
 8004c62:	2200      	movs	r2, #0
 8004c64:	629a      	str	r2, [r3, #40]	@ 0x28
#endif /* USE_SPI_CRC */

  if (hspi->State == HAL_SPI_STATE_RESET)
 8004c66:	687b      	ldr	r3, [r7, #4]
 8004c68:	f893 3051 	ldrb.w	r3, [r3, #81]	@ 0x51
 8004c6c:	b2db      	uxtb	r3, r3
 8004c6e:	2b00      	cmp	r3, #0
 8004c70:	d106      	bne.n	8004c80 <HAL_SPI_Init+0x58>
  {
    /* Allocate lock resource and initialize it */
    hspi->Lock = HAL_UNLOCKED;
 8004c72:	687b      	ldr	r3, [r7, #4]
 8004c74:	2200      	movs	r2, #0
 8004c76:	f883 2050 	strb.w	r2, [r3, #80]	@ 0x50

    /* Init the low level hardware : GPIO, CLOCK, NVIC... */
    hspi->MspInitCallback(hspi);
#else
    /* Init the low level hardware : GPIO, CLOCK, NVIC... */
    HAL_SPI_MspInit(hspi);
 8004c7a:	6878      	ldr	r0, [r7, #4]
 8004c7c:	f7fe fc2c 	bl	80034d8 <HAL_SPI_MspInit>
#endif /* USE_HAL_SPI_REGISTER_CALLBACKS */
  }

  hspi->State = HAL_SPI_STATE_BUSY;
 8004c80:	687b      	ldr	r3, [r7, #4]
 8004c82:	2202      	movs	r2, #2
 8004c84:	f883 2051 	strb.w	r2, [r3, #81]	@ 0x51

  /* Disable the selected SPI peripheral */
  __HAL_SPI_DISABLE(hspi);
 8004c88:	687b      	ldr	r3, [r7, #4]
 8004c8a:	681b      	ldr	r3, [r3, #0]
 8004c8c:	681a      	ldr	r2, [r3, #0]
 8004c8e:	687b      	ldr	r3, [r7, #4]
 8004c90:	681b      	ldr	r3, [r3, #0]
 8004c92:	f022 0240 	bic.w	r2, r2, #64	@ 0x40
 8004c96:	601a      	str	r2, [r3, #0]

  /*----------------------- SPIx CR1 & CR2 Configuration ---------------------*/
  /* Configure : SPI Mode, Communication Mode, Data size, Clock polarity and phase, NSS management,
  Communication speed, First bit and CRC calculation state */
  WRITE_REG(hspi->Instance->CR1, ((hspi->Init.Mode & (SPI_CR1_MSTR | SPI_CR1_SSI)) |
 8004c98:	687b      	ldr	r3, [r7, #4]
 8004c9a:	685b      	ldr	r3, [r3, #4]
 8004c9c:	f403 7282 	and.w	r2, r3, #260	@ 0x104
 8004ca0:	687b      	ldr	r3, [r7, #4]
 8004ca2:	689b      	ldr	r3, [r3, #8]
 8004ca4:	f403 4304 	and.w	r3, r3, #33792	@ 0x8400
 8004ca8:	431a      	orrs	r2, r3
 8004caa:	687b      	ldr	r3, [r7, #4]
 8004cac:	68db      	ldr	r3, [r3, #12]
 8004cae:	f403 6300 	and.w	r3, r3, #2048	@ 0x800
 8004cb2:	431a      	orrs	r2, r3
 8004cb4:	687b      	ldr	r3, [r7, #4]
 8004cb6:	691b      	ldr	r3, [r3, #16]
 8004cb8:	f003 0302 	and.w	r3, r3, #2
 8004cbc:	431a      	orrs	r2, r3
 8004cbe:	687b      	ldr	r3, [r7, #4]
 8004cc0:	695b      	ldr	r3, [r3, #20]
 8004cc2:	f003 0301 	and.w	r3, r3, #1
 8004cc6:	431a      	orrs	r2, r3
 8004cc8:	687b      	ldr	r3, [r7, #4]
 8004cca:	699b      	ldr	r3, [r3, #24]
 8004ccc:	f403 7300 	and.w	r3, r3, #512	@ 0x200
 8004cd0:	431a      	orrs	r2, r3
 8004cd2:	687b      	ldr	r3, [r7, #4]
 8004cd4:	69db      	ldr	r3, [r3, #28]
 8004cd6:	f003 0338 	and.w	r3, r3, #56	@ 0x38
 8004cda:	431a      	orrs	r2, r3
 8004cdc:	687b      	ldr	r3, [r7, #4]
 8004cde:	6a1b      	ldr	r3, [r3, #32]
 8004ce0:	f003 0380 	and.w	r3, r3, #128	@ 0x80
 8004ce4:	ea42 0103 	orr.w	r1, r2, r3
 8004ce8:	687b      	ldr	r3, [r7, #4]
 8004cea:	6a9b      	ldr	r3, [r3, #40]	@ 0x28
 8004cec:	f403 5200 	and.w	r2, r3, #8192	@ 0x2000
 8004cf0:	687b      	ldr	r3, [r7, #4]
 8004cf2:	681b      	ldr	r3, [r3, #0]
 8004cf4:	430a      	orrs	r2, r1
 8004cf6:	601a      	str	r2, [r3, #0]
                                  (hspi->Init.BaudRatePrescaler & SPI_CR1_BR_Msk) |
                                  (hspi->Init.FirstBit  & SPI_CR1_LSBFIRST) |
                                  (hspi->Init.CRCCalculation & SPI_CR1_CRCEN)));

  /* Configure : NSS management */
  WRITE_REG(hspi->Instance->CR2, ((hspi->Init.NSS >> 16U) & SPI_CR2_SSOE));
 8004cf8:	687b      	ldr	r3, [r7, #4]
 8004cfa:	699b      	ldr	r3, [r3, #24]
 8004cfc:	0c1a      	lsrs	r2, r3, #16
 8004cfe:	687b      	ldr	r3, [r7, #4]
 8004d00:	681b      	ldr	r3, [r3, #0]
 8004d02:	f002 0204 	and.w	r2, r2, #4
 8004d06:	605a      	str	r2, [r3, #4]
  }
#endif /* USE_SPI_CRC */

#if defined(SPI_I2SCFGR_I2SMOD)
  /* Activate the SPI mode (Make sure that I2SMOD bit in I2SCFGR register is reset) */
  CLEAR_BIT(hspi->Instance->I2SCFGR, SPI_I2SCFGR_I2SMOD);
 8004d08:	687b      	ldr	r3, [r7, #4]
 8004d0a:	681b      	ldr	r3, [r3, #0]
 8004d0c:	69da      	ldr	r2, [r3, #28]
 8004d0e:	687b      	ldr	r3, [r7, #4]
 8004d10:	681b      	ldr	r3, [r3, #0]
 8004d12:	f422 6200 	bic.w	r2, r2, #2048	@ 0x800
 8004d16:	61da      	str	r2, [r3, #28]
#endif /* SPI_I2SCFGR_I2SMOD */

  hspi->ErrorCode = HAL_SPI_ERROR_NONE;
 8004d18:	687b      	ldr	r3, [r7, #4]
 8004d1a:	2200      	movs	r2, #0
 8004d1c:	655a      	str	r2, [r3, #84]	@ 0x54
  hspi->State     = HAL_SPI_STATE_READY;
 8004d1e:	687b      	ldr	r3, [r7, #4]
 8004d20:	2201      	movs	r2, #1
 8004d22:	f883 2051 	strb.w	r2, [r3, #81]	@ 0x51

  return HAL_OK;
 8004d26:	2300      	movs	r3, #0
}
 8004d28:	4618      	mov	r0, r3
 8004d2a:	3708      	adds	r7, #8
 8004d2c:	46bd      	mov	sp, r7
 8004d2e:	bd80      	pop	{r7, pc}

08004d30 <HAL_SPI_TransmitReceive>:
  * @param  Timeout Timeout duration
  * @retval HAL status
  */
HAL_StatusTypeDef HAL_SPI_TransmitReceive(SPI_HandleTypeDef *hspi, const uint8_t *pTxData, uint8_t *pRxData,
                                          uint16_t Size, uint32_t Timeout)
{
 8004d30:	b580      	push	{r7, lr}
 8004d32:	b08a      	sub	sp, #40	@ 0x28
 8004d34:	af00      	add	r7, sp, #0
 8004d36:	60f8      	str	r0, [r7, #12]
 8004d38:	60b9      	str	r1, [r7, #8]
 8004d3a:	607a      	str	r2, [r7, #4]
 8004d3c:	807b      	strh	r3, [r7, #2]
#if (USE_SPI_CRC != 0U)
  __IO uint32_t tmpreg = 0U;
#endif /* USE_SPI_CRC */

  /* Variable used to alternate Rx and Tx during transfer */
  uint32_t             txallowed = 1U;
 8004d3e:	2301      	movs	r3, #1
 8004d40:	627b      	str	r3, [r7, #36]	@ 0x24

  /* Check Direction parameter */
  assert_param(IS_SPI_DIRECTION_2LINES(hspi->Init.Direction));

  /* Init tickstart for timeout management*/
  tickstart = HAL_GetTick();
 8004d42:	f7fe fec1 	bl	8003ac8 <HAL_GetTick>
 8004d46:	6238      	str	r0, [r7, #32]

  /* Init temporary variables */
  tmp_state           = hspi->State;
 8004d48:	68fb      	ldr	r3, [r7, #12]
 8004d4a:	f893 3051 	ldrb.w	r3, [r3, #81]	@ 0x51
 8004d4e:	77fb      	strb	r3, [r7, #31]
  tmp_mode            = hspi->Init.Mode;
 8004d50:	68fb      	ldr	r3, [r7, #12]
 8004d52:	685b      	ldr	r3, [r3, #4]
 8004d54:	61bb      	str	r3, [r7, #24]
  initial_TxXferCount = Size;
 8004d56:	887b      	ldrh	r3, [r7, #2]
 8004d58:	82fb      	strh	r3, [r7, #22]

  if (!((tmp_state == HAL_SPI_STATE_READY) || \
 8004d5a:	7ffb      	ldrb	r3, [r7, #31]
 8004d5c:	2b01      	cmp	r3, #1
 8004d5e:	d00c      	beq.n	8004d7a <HAL_SPI_TransmitReceive+0x4a>
 8004d60:	69bb      	ldr	r3, [r7, #24]
 8004d62:	f5b3 7f82 	cmp.w	r3, #260	@ 0x104
 8004d66:	d106      	bne.n	8004d76 <HAL_SPI_TransmitReceive+0x46>
        ((tmp_mode == SPI_MODE_MASTER) && (hspi->Init.Direction == SPI_DIRECTION_2LINES) &&
 8004d68:	68fb      	ldr	r3, [r7, #12]
 8004d6a:	689b      	ldr	r3, [r3, #8]
 8004d6c:	2b00      	cmp	r3, #0
 8004d6e:	d102      	bne.n	8004d76 <HAL_SPI_TransmitReceive+0x46>
 8004d70:	7ffb      	ldrb	r3, [r7, #31]
 8004d72:	2b04      	cmp	r3, #4
 8004d74:	d001      	beq.n	8004d7a <HAL_SPI_TransmitReceive+0x4a>
         (tmp_state == HAL_SPI_STATE_BUSY_RX))))
  {
    return HAL_BUSY;
 8004d76:	2302      	movs	r3, #2
 8004d78:	e17f      	b.n	800507a <HAL_SPI_TransmitReceive+0x34a>
  }

  if ((pTxData == NULL) || (pRxData == NULL) || (Size == 0U))
 8004d7a:	68bb      	ldr	r3, [r7, #8]
 8004d7c:	2b00      	cmp	r3, #0
 8004d7e:	d005      	beq.n	8004d8c <HAL_SPI_TransmitReceive+0x5c>
 8004d80:	687b      	ldr	r3, [r7, #4]
 8004d82:	2b00      	cmp	r3, #0
 8004d84:	d002      	beq.n	8004d8c <HAL_SPI_TransmitReceive+0x5c>
 8004d86:	887b      	ldrh	r3, [r7, #2]
 8004d88:	2b00      	cmp	r3, #0
 8004d8a:	d101      	bne.n	8004d90 <HAL_SPI_TransmitReceive+0x60>
  {
    return HAL_ERROR;
 8004d8c:	2301      	movs	r3, #1
 8004d8e:	e174      	b.n	800507a <HAL_SPI_TransmitReceive+0x34a>
  }

  /* Process Locked */
  __HAL_LOCK(hspi);
 8004d90:	68fb      	ldr	r3, [r7, #12]
 8004d92:	f893 3050 	ldrb.w	r3, [r3, #80]	@ 0x50
 8004d96:	2b01      	cmp	r3, #1
 8004d98:	d101      	bne.n	8004d9e <HAL_SPI_TransmitReceive+0x6e>
 8004d9a:	2302      	movs	r3, #2
 8004d9c:	e16d      	b.n	800507a <HAL_SPI_TransmitReceive+0x34a>
 8004d9e:	68fb      	ldr	r3, [r7, #12]
 8004da0:	2201      	movs	r2, #1
 8004da2:	f883 2050 	strb.w	r2, [r3, #80]	@ 0x50

  /* Don't overwrite in case of HAL_SPI_STATE_BUSY_RX */
  if (hspi->State != HAL_SPI_STATE_BUSY_RX)
 8004da6:	68fb      	ldr	r3, [r7, #12]
 8004da8:	f893 3051 	ldrb.w	r3, [r3, #81]	@ 0x51
 8004dac:	b2db      	uxtb	r3, r3
 8004dae:	2b04      	cmp	r3, #4
 8004db0:	d003      	beq.n	8004dba <HAL_SPI_TransmitReceive+0x8a>
  {
    hspi->State = HAL_SPI_STATE_BUSY_TX_RX;
 8004db2:	68fb      	ldr	r3, [r7, #12]
 8004db4:	2205      	movs	r2, #5
 8004db6:	f883 2051 	strb.w	r2, [r3, #81]	@ 0x51
  }

  /* Set the transaction information */
  hspi->ErrorCode   = HAL_SPI_ERROR_NONE;
 8004dba:	68fb      	ldr	r3, [r7, #12]
 8004dbc:	2200      	movs	r2, #0
 8004dbe:	655a      	str	r2, [r3, #84]	@ 0x54
  hspi->pRxBuffPtr  = (uint8_t *)pRxData;
 8004dc0:	68fb      	ldr	r3, [r7, #12]
 8004dc2:	687a      	ldr	r2, [r7, #4]
 8004dc4:	639a      	str	r2, [r3, #56]	@ 0x38
  hspi->RxXferCount = Size;
 8004dc6:	68fb      	ldr	r3, [r7, #12]
 8004dc8:	887a      	ldrh	r2, [r7, #2]
 8004dca:	87da      	strh	r2, [r3, #62]	@ 0x3e
  hspi->RxXferSize  = Size;
 8004dcc:	68fb      	ldr	r3, [r7, #12]
 8004dce:	887a      	ldrh	r2, [r7, #2]
 8004dd0:	879a      	strh	r2, [r3, #60]	@ 0x3c
  hspi->pTxBuffPtr  = (const uint8_t *)pTxData;
 8004dd2:	68fb      	ldr	r3, [r7, #12]
 8004dd4:	68ba      	ldr	r2, [r7, #8]
 8004dd6:	631a      	str	r2, [r3, #48]	@ 0x30
  hspi->TxXferCount = Size;
 8004dd8:	68fb      	ldr	r3, [r7, #12]
 8004dda:	887a      	ldrh	r2, [r7, #2]
 8004ddc:	86da      	strh	r2, [r3, #54]	@ 0x36
  hspi->TxXferSize  = Size;
 8004dde:	68fb      	ldr	r3, [r7, #12]
 8004de0:	887a      	ldrh	r2, [r7, #2]
 8004de2:	869a      	strh	r2, [r3, #52]	@ 0x34

  /*Init field not used in handle to zero */
  hspi->RxISR       = NULL;
 8004de4:	68fb      	ldr	r3, [r7, #12]
 8004de6:	2200      	movs	r2, #0
 8004de8:	641a      	str	r2, [r3, #64]	@ 0x40
  hspi->TxISR       = NULL;
 8004dea:	68fb      	ldr	r3, [r7, #12]
 8004dec:	2200      	movs	r2, #0
 8004dee:	645a      	str	r2, [r3, #68]	@ 0x44
    SPI_RESET_CRC(hspi);
  }
#endif /* USE_SPI_CRC */

  /* Check if the SPI is already enabled */
  if ((hspi->Instance->CR1 & SPI_CR1_SPE) != SPI_CR1_SPE)
 8004df0:	68fb      	ldr	r3, [r7, #12]
 8004df2:	681b      	ldr	r3, [r3, #0]
 8004df4:	681b      	ldr	r3, [r3, #0]
 8004df6:	f003 0340 	and.w	r3, r3, #64	@ 0x40
 8004dfa:	2b40      	cmp	r3, #64	@ 0x40
 8004dfc:	d007      	beq.n	8004e0e <HAL_SPI_TransmitReceive+0xde>
  {
    /* Enable SPI peripheral */
    __HAL_SPI_ENABLE(hspi);
 8004dfe:	68fb      	ldr	r3, [r7, #12]
 8004e00:	681b      	ldr	r3, [r3, #0]
 8004e02:	681a      	ldr	r2, [r3, #0]
 8004e04:	68fb      	ldr	r3, [r7, #12]
 8004e06:	681b      	ldr	r3, [r3, #0]
 8004e08:	f042 0240 	orr.w	r2, r2, #64	@ 0x40
 8004e0c:	601a      	str	r2, [r3, #0]
  }

  /* Transmit and Receive data in 16 Bit mode */
  if (hspi->Init.DataSize == SPI_DATASIZE_16BIT)
 8004e0e:	68fb      	ldr	r3, [r7, #12]
 8004e10:	68db      	ldr	r3, [r3, #12]
 8004e12:	f5b3 6f00 	cmp.w	r3, #2048	@ 0x800
 8004e16:	d17e      	bne.n	8004f16 <HAL_SPI_TransmitReceive+0x1e6>
  {
    if ((hspi->Init.Mode == SPI_MODE_SLAVE) || (initial_TxXferCount == 0x01U))
 8004e18:	68fb      	ldr	r3, [r7, #12]
 8004e1a:	685b      	ldr	r3, [r3, #4]
 8004e1c:	2b00      	cmp	r3, #0
 8004e1e:	d002      	beq.n	8004e26 <HAL_SPI_TransmitReceive+0xf6>
 8004e20:	8afb      	ldrh	r3, [r7, #22]
 8004e22:	2b01      	cmp	r3, #1
 8004e24:	d16c      	bne.n	8004f00 <HAL_SPI_TransmitReceive+0x1d0>
    {
      hspi->Instance->DR = *((const uint16_t *)hspi->pTxBuffPtr);
 8004e26:	68fb      	ldr	r3, [r7, #12]
 8004e28:	6b1b      	ldr	r3, [r3, #48]	@ 0x30
 8004e2a:	881a      	ldrh	r2, [r3, #0]
 8004e2c:	68fb      	ldr	r3, [r7, #12]
 8004e2e:	681b      	ldr	r3, [r3, #0]
 8004e30:	60da      	str	r2, [r3, #12]
      hspi->pTxBuffPtr += sizeof(uint16_t);
 8004e32:	68fb      	ldr	r3, [r7, #12]
 8004e34:	6b1b      	ldr	r3, [r3, #48]	@ 0x30
 8004e36:	1c9a      	adds	r2, r3, #2
 8004e38:	68fb      	ldr	r3, [r7, #12]
 8004e3a:	631a      	str	r2, [r3, #48]	@ 0x30
      hspi->TxXferCount--;
 8004e3c:	68fb      	ldr	r3, [r7, #12]
 8004e3e:	8edb      	ldrh	r3, [r3, #54]	@ 0x36
 8004e40:	b29b      	uxth	r3, r3
 8004e42:	3b01      	subs	r3, #1
 8004e44:	b29a      	uxth	r2, r3
 8004e46:	68fb      	ldr	r3, [r7, #12]
 8004e48:	86da      	strh	r2, [r3, #54]	@ 0x36
        SET_BIT(hspi->Instance->CR1, SPI_CR1_CRCNEXT);
      }
#endif /* USE_SPI_CRC */

    }
    while ((hspi->TxXferCount > 0U) || (hspi->RxXferCount > 0U))
 8004e4a:	e059      	b.n	8004f00 <HAL_SPI_TransmitReceive+0x1d0>
    {
      /* Check TXE flag */
      if ((__HAL_SPI_GET_FLAG(hspi, SPI_FLAG_TXE)) && (hspi->TxXferCount > 0U) && (txallowed == 1U))
 8004e4c:	68fb      	ldr	r3, [r7, #12]
 8004e4e:	681b      	ldr	r3, [r3, #0]
 8004e50:	689b      	ldr	r3, [r3, #8]
 8004e52:	f003 0302 	and.w	r3, r3, #2
 8004e56:	2b02      	cmp	r3, #2
 8004e58:	d11b      	bne.n	8004e92 <HAL_SPI_TransmitReceive+0x162>
 8004e5a:	68fb      	ldr	r3, [r7, #12]
 8004e5c:	8edb      	ldrh	r3, [r3, #54]	@ 0x36
 8004e5e:	b29b      	uxth	r3, r3
 8004e60:	2b00      	cmp	r3, #0
 8004e62:	d016      	beq.n	8004e92 <HAL_SPI_TransmitReceive+0x162>
 8004e64:	6a7b      	ldr	r3, [r7, #36]	@ 0x24
 8004e66:	2b01      	cmp	r3, #1
 8004e68:	d113      	bne.n	8004e92 <HAL_SPI_TransmitReceive+0x162>
      {
        hspi->Instance->DR = *((const uint16_t *)hspi->pTxBuffPtr);
 8004e6a:	68fb      	ldr	r3, [r7, #12]
 8004e6c:	6b1b      	ldr	r3, [r3, #48]	@ 0x30
 8004e6e:	881a      	ldrh	r2, [r3, #0]
 8004e70:	68fb      	ldr	r3, [r7, #12]
 8004e72:	681b      	ldr	r3, [r3, #0]
 8004e74:	60da      	str	r2, [r3, #12]
        hspi->pTxBuffPtr += sizeof(uint16_t);
 8004e76:	68fb      	ldr	r3, [r7, #12]
 8004e78:	6b1b      	ldr	r3, [r3, #48]	@ 0x30
 8004e7a:	1c9a      	adds	r2, r3, #2
 8004e7c:	68fb      	ldr	r3, [r7, #12]
 8004e7e:	631a      	str	r2, [r3, #48]	@ 0x30
        hspi->TxXferCount--;
 8004e80:	68fb      	ldr	r3, [r7, #12]
 8004e82:	8edb      	ldrh	r3, [r3, #54]	@ 0x36
 8004e84:	b29b      	uxth	r3, r3
 8004e86:	3b01      	subs	r3, #1
 8004e88:	b29a      	uxth	r2, r3
 8004e8a:	68fb      	ldr	r3, [r7, #12]
 8004e8c:	86da      	strh	r2, [r3, #54]	@ 0x36
        /* Next Data is a reception (Rx). Tx not allowed */
        txallowed = 0U;
 8004e8e:	2300      	movs	r3, #0
 8004e90:	627b      	str	r3, [r7, #36]	@ 0x24
        }
#endif /* USE_SPI_CRC */
      }

      /* Check RXNE flag */
      if ((__HAL_SPI_GET_FLAG(hspi, SPI_FLAG_RXNE)) && (hspi->RxXferCount > 0U))
 8004e92:	68fb      	ldr	r3, [r7, #12]
 8004e94:	681b      	ldr	r3, [r3, #0]
 8004e96:	689b      	ldr	r3, [r3, #8]
 8004e98:	f003 0301 	and.w	r3, r3, #1
 8004e9c:	2b01      	cmp	r3, #1
 8004e9e:	d119      	bne.n	8004ed4 <HAL_SPI_TransmitReceive+0x1a4>
 8004ea0:	68fb      	ldr	r3, [r7, #12]
 8004ea2:	8fdb      	ldrh	r3, [r3, #62]	@ 0x3e
 8004ea4:	b29b      	uxth	r3, r3
 8004ea6:	2b00      	cmp	r3, #0
 8004ea8:	d014      	beq.n	8004ed4 <HAL_SPI_TransmitReceive+0x1a4>
      {
        *((uint16_t *)hspi->pRxBuffPtr) = (uint16_t)hspi->Instance->DR;
 8004eaa:	68fb      	ldr	r3, [r7, #12]
 8004eac:	681b      	ldr	r3, [r3, #0]
 8004eae:	68da      	ldr	r2, [r3, #12]
 8004eb0:	68fb      	ldr	r3, [r7, #12]
 8004eb2:	6b9b      	ldr	r3, [r3, #56]	@ 0x38
 8004eb4:	b292      	uxth	r2, r2
 8004eb6:	801a      	strh	r2, [r3, #0]
        hspi->pRxBuffPtr += sizeof(uint16_t);
 8004eb8:	68fb      	ldr	r3, [r7, #12]
 8004eba:	6b9b      	ldr	r3, [r3, #56]	@ 0x38
 8004ebc:	1c9a      	adds	r2, r3, #2
 8004ebe:	68fb      	ldr	r3, [r7, #12]
 8004ec0:	639a      	str	r2, [r3, #56]	@ 0x38
        hspi->RxXferCount--;
 8004ec2:	68fb      	ldr	r3, [r7, #12]
 8004ec4:	8fdb      	ldrh	r3, [r3, #62]	@ 0x3e
 8004ec6:	b29b      	uxth	r3, r3
 8004ec8:	3b01      	subs	r3, #1
 8004eca:	b29a      	uxth	r2, r3
 8004ecc:	68fb      	ldr	r3, [r7, #12]
 8004ece:	87da      	strh	r2, [r3, #62]	@ 0x3e
        /* Next Data is a Transmission (Tx). Tx is allowed */
        txallowed = 1U;
 8004ed0:	2301      	movs	r3, #1
 8004ed2:	627b      	str	r3, [r7, #36]	@ 0x24
      }
      if (((HAL_GetTick() - tickstart) >=  Timeout) && (Timeout != HAL_MAX_DELAY))
 8004ed4:	f7fe fdf8 	bl	8003ac8 <HAL_GetTick>
 8004ed8:	4602      	mov	r2, r0
 8004eda:	6a3b      	ldr	r3, [r7, #32]
 8004edc:	1ad3      	subs	r3, r2, r3
 8004ede:	6b3a      	ldr	r2, [r7, #48]	@ 0x30
 8004ee0:	429a      	cmp	r2, r3
 8004ee2:	d80d      	bhi.n	8004f00 <HAL_SPI_TransmitReceive+0x1d0>
 8004ee4:	6b3b      	ldr	r3, [r7, #48]	@ 0x30
 8004ee6:	f1b3 3fff 	cmp.w	r3, #4294967295	@ 0xffffffff
 8004eea:	d009      	beq.n	8004f00 <HAL_SPI_TransmitReceive+0x1d0>
      {
        hspi->State = HAL_SPI_STATE_READY;
 8004eec:	68fb      	ldr	r3, [r7, #12]
 8004eee:	2201      	movs	r2, #1
 8004ef0:	f883 2051 	strb.w	r2, [r3, #81]	@ 0x51
        __HAL_UNLOCK(hspi);
 8004ef4:	68fb      	ldr	r3, [r7, #12]
 8004ef6:	2200      	movs	r2, #0
 8004ef8:	f883 2050 	strb.w	r2, [r3, #80]	@ 0x50
        return HAL_TIMEOUT;
 8004efc:	2303      	movs	r3, #3
 8004efe:	e0bc      	b.n	800507a <HAL_SPI_TransmitReceive+0x34a>
    while ((hspi->TxXferCount > 0U) || (hspi->RxXferCount > 0U))
 8004f00:	68fb      	ldr	r3, [r7, #12]
 8004f02:	8edb      	ldrh	r3, [r3, #54]	@ 0x36
 8004f04:	b29b      	uxth	r3, r3
 8004f06:	2b00      	cmp	r3, #0
 8004f08:	d1a0      	bne.n	8004e4c <HAL_SPI_TransmitReceive+0x11c>
 8004f0a:	68fb      	ldr	r3, [r7, #12]
 8004f0c:	8fdb      	ldrh	r3, [r3, #62]	@ 0x3e
 8004f0e:	b29b      	uxth	r3, r3
 8004f10:	2b00      	cmp	r3, #0
 8004f12:	d19b      	bne.n	8004e4c <HAL_SPI_TransmitReceive+0x11c>
 8004f14:	e082      	b.n	800501c <HAL_SPI_TransmitReceive+0x2ec>
    }
  }
  /* Transmit and Receive data in 8 Bit mode */
  else
  {
    if ((hspi->Init.Mode == SPI_MODE_SLAVE) || (initial_TxXferCount == 0x01U))
 8004f16:	68fb      	ldr	r3, [r7, #12]
 8004f18:	685b      	ldr	r3, [r3, #4]
 8004f1a:	2b00      	cmp	r3, #0
 8004f1c:	d002      	beq.n	8004f24 <HAL_SPI_TransmitReceive+0x1f4>
 8004f1e:	8afb      	ldrh	r3, [r7, #22]
 8004f20:	2b01      	cmp	r3, #1
 8004f22:	d171      	bne.n	8005008 <HAL_SPI_TransmitReceive+0x2d8>
    {
      *((__IO uint8_t *)&hspi->Instance->DR) = *((const uint8_t *)hspi->pTxBuffPtr);
 8004f24:	68fb      	ldr	r3, [r7, #12]
 8004f26:	6b1a      	ldr	r2, [r3, #48]	@ 0x30
 8004f28:	68fb      	ldr	r3, [r7, #12]
 8004f2a:	681b      	ldr	r3, [r3, #0]
 8004f2c:	330c      	adds	r3, #12
 8004f2e:	7812      	ldrb	r2, [r2, #0]
 8004f30:	701a      	strb	r2, [r3, #0]
      hspi->pTxBuffPtr += sizeof(uint8_t);
 8004f32:	68fb      	ldr	r3, [r7, #12]
 8004f34:	6b1b      	ldr	r3, [r3, #48]	@ 0x30
 8004f36:	1c5a      	adds	r2, r3, #1
 8004f38:	68fb      	ldr	r3, [r7, #12]
 8004f3a:	631a      	str	r2, [r3, #48]	@ 0x30
      hspi->TxXferCount--;
 8004f3c:	68fb      	ldr	r3, [r7, #12]
 8004f3e:	8edb      	ldrh	r3, [r3, #54]	@ 0x36
 8004f40:	b29b      	uxth	r3, r3
 8004f42:	3b01      	subs	r3, #1
 8004f44:	b29a      	uxth	r2, r3
 8004f46:	68fb      	ldr	r3, [r7, #12]
 8004f48:	86da      	strh	r2, [r3, #54]	@ 0x36
      {
        SET_BIT(hspi->Instance->CR1, SPI_CR1_CRCNEXT);
      }
#endif /* USE_SPI_CRC */
    }
    while ((hspi->TxXferCount > 0U) || (hspi->RxXferCount > 0U))
 8004f4a:	e05d      	b.n	8005008 <HAL_SPI_TransmitReceive+0x2d8>
    {
      /* Check TXE flag */
      if ((__HAL_SPI_GET_FLAG(hspi, SPI_FLAG_TXE)) && (hspi->TxXferCount > 0U) && (txallowed == 1U))
 8004f4c:	68fb      	ldr	r3, [r7, #12]
 8004f4e:	681b      	ldr	r3, [r3, #0]
 8004f50:	689b      	ldr	r3, [r3, #8]
 8004f52:	f003 0302 	and.w	r3, r3, #2
 8004f56:	2b02      	cmp	r3, #2
 8004f58:	d11c      	bne.n	8004f94 <HAL_SPI_TransmitReceive+0x264>
 8004f5a:	68fb      	ldr	r3, [r7, #12]
 8004f5c:	8edb      	ldrh	r3, [r3, #54]	@ 0x36
 8004f5e:	b29b      	uxth	r3, r3
 8004f60:	2b00      	cmp	r3, #0
 8004f62:	d017      	beq.n	8004f94 <HAL_SPI_TransmitReceive+0x264>
 8004f64:	6a7b      	ldr	r3, [r7, #36]	@ 0x24
 8004f66:	2b01      	cmp	r3, #1
 8004f68:	d114      	bne.n	8004f94 <HAL_SPI_TransmitReceive+0x264>
      {
        *(__IO uint8_t *)&hspi->Instance->DR = *((const uint8_t *)hspi->pTxBuffPtr);
 8004f6a:	68fb      	ldr	r3, [r7, #12]
 8004f6c:	6b1a      	ldr	r2, [r3, #48]	@ 0x30
 8004f6e:	68fb      	ldr	r3, [r7, #12]
 8004f70:	681b      	ldr	r3, [r3, #0]
 8004f72:	330c      	adds	r3, #12
 8004f74:	7812      	ldrb	r2, [r2, #0]
 8004f76:	701a      	strb	r2, [r3, #0]
        hspi->pTxBuffPtr++;
 8004f78:	68fb      	ldr	r3, [r7, #12]
 8004f7a:	6b1b      	ldr	r3, [r3, #48]	@ 0x30
 8004f7c:	1c5a      	adds	r2, r3, #1
 8004f7e:	68fb      	ldr	r3, [r7, #12]
 8004f80:	631a      	str	r2, [r3, #48]	@ 0x30
        hspi->TxXferCount--;
 8004f82:	68fb      	ldr	r3, [r7, #12]
 8004f84:	8edb      	ldrh	r3, [r3, #54]	@ 0x36
 8004f86:	b29b      	uxth	r3, r3
 8004f88:	3b01      	subs	r3, #1
 8004f8a:	b29a      	uxth	r2, r3
 8004f8c:	68fb      	ldr	r3, [r7, #12]
 8004f8e:	86da      	strh	r2, [r3, #54]	@ 0x36
        /* Next Data is a reception (Rx). Tx not allowed */
        txallowed = 0U;
 8004f90:	2300      	movs	r3, #0
 8004f92:	627b      	str	r3, [r7, #36]	@ 0x24
        }
#endif /* USE_SPI_CRC */
      }

      /* Wait until RXNE flag is reset */
      if ((__HAL_SPI_GET_FLAG(hspi, SPI_FLAG_RXNE)) && (hspi->RxXferCount > 0U))
 8004f94:	68fb      	ldr	r3, [r7, #12]
 8004f96:	681b      	ldr	r3, [r3, #0]
 8004f98:	689b      	ldr	r3, [r3, #8]
 8004f9a:	f003 0301 	and.w	r3, r3, #1
 8004f9e:	2b01      	cmp	r3, #1
 8004fa0:	d119      	bne.n	8004fd6 <HAL_SPI_TransmitReceive+0x2a6>
 8004fa2:	68fb      	ldr	r3, [r7, #12]
 8004fa4:	8fdb      	ldrh	r3, [r3, #62]	@ 0x3e
 8004fa6:	b29b      	uxth	r3, r3
 8004fa8:	2b00      	cmp	r3, #0
 8004faa:	d014      	beq.n	8004fd6 <HAL_SPI_TransmitReceive+0x2a6>
      {
        (*(uint8_t *)hspi->pRxBuffPtr) = hspi->Instance->DR;
 8004fac:	68fb      	ldr	r3, [r7, #12]
 8004fae:	681b      	ldr	r3, [r3, #0]
 8004fb0:	68da      	ldr	r2, [r3, #12]
 8004fb2:	68fb      	ldr	r3, [r7, #12]
 8004fb4:	6b9b      	ldr	r3, [r3, #56]	@ 0x38
 8004fb6:	b2d2      	uxtb	r2, r2
 8004fb8:	701a      	strb	r2, [r3, #0]
        hspi->pRxBuffPtr++;
 8004fba:	68fb      	ldr	r3, [r7, #12]
 8004fbc:	6b9b      	ldr	r3, [r3, #56]	@ 0x38
 8004fbe:	1c5a      	adds	r2, r3, #1
 8004fc0:	68fb      	ldr	r3, [r7, #12]
 8004fc2:	639a      	str	r2, [r3, #56]	@ 0x38
        hspi->RxXferCount--;
 8004fc4:	68fb      	ldr	r3, [r7, #12]
 8004fc6:	8fdb      	ldrh	r3, [r3, #62]	@ 0x3e
 8004fc8:	b29b      	uxth	r3, r3
 8004fca:	3b01      	subs	r3, #1
 8004fcc:	b29a      	uxth	r2, r3
 8004fce:	68fb      	ldr	r3, [r7, #12]
 8004fd0:	87da      	strh	r2, [r3, #62]	@ 0x3e
        /* Next Data is a Transmission (Tx). Tx is allowed */
        txallowed = 1U;
 8004fd2:	2301      	movs	r3, #1
 8004fd4:	627b      	str	r3, [r7, #36]	@ 0x24
      }
      if ((((HAL_GetTick() - tickstart) >=  Timeout) && ((Timeout != HAL_MAX_DELAY))) || (Timeout == 0U))
 8004fd6:	f7fe fd77 	bl	8003ac8 <HAL_GetTick>
 8004fda:	4602      	mov	r2, r0
 8004fdc:	6a3b      	ldr	r3, [r7, #32]
 8004fde:	1ad3      	subs	r3, r2, r3
 8004fe0:	6b3a      	ldr	r2, [r7, #48]	@ 0x30
 8004fe2:	429a      	cmp	r2, r3
 8004fe4:	d803      	bhi.n	8004fee <HAL_SPI_TransmitReceive+0x2be>
 8004fe6:	6b3b      	ldr	r3, [r7, #48]	@ 0x30
 8004fe8:	f1b3 3fff 	cmp.w	r3, #4294967295	@ 0xffffffff
 8004fec:	d102      	bne.n	8004ff4 <HAL_SPI_TransmitReceive+0x2c4>
 8004fee:	6b3b      	ldr	r3, [r7, #48]	@ 0x30
 8004ff0:	2b00      	cmp	r3, #0
 8004ff2:	d109      	bne.n	8005008 <HAL_SPI_TransmitReceive+0x2d8>
      {
        hspi->State = HAL_SPI_STATE_READY;
 8004ff4:	68fb      	ldr	r3, [r7, #12]
 8004ff6:	2201      	movs	r2, #1
 8004ff8:	f883 2051 	strb.w	r2, [r3, #81]	@ 0x51
        __HAL_UNLOCK(hspi);
 8004ffc:	68fb      	ldr	r3, [r7, #12]
 8004ffe:	2200      	movs	r2, #0
 8005000:	f883 2050 	strb.w	r2, [r3, #80]	@ 0x50
        return HAL_TIMEOUT;
 8005004:	2303      	movs	r3, #3
 8005006:	e038      	b.n	800507a <HAL_SPI_TransmitReceive+0x34a>
    while ((hspi->TxXferCount > 0U) || (hspi->RxXferCount > 0U))
 8005008:	68fb      	ldr	r3, [r7, #12]
 800500a:	8edb      	ldrh	r3, [r3, #54]	@ 0x36
 800500c:	b29b      	uxth	r3, r3
 800500e:	2b00      	cmp	r3, #0
 8005010:	d19c      	bne.n	8004f4c <HAL_SPI_TransmitReceive+0x21c>
 8005012:	68fb      	ldr	r3, [r7, #12]
 8005014:	8fdb      	ldrh	r3, [r3, #62]	@ 0x3e
 8005016:	b29b      	uxth	r3, r3
 8005018:	2b00      	cmp	r3, #0
 800501a:	d197      	bne.n	8004f4c <HAL_SPI_TransmitReceive+0x21c>
    }
  }
#endif /* USE_SPI_CRC */

  /* Check the end of the transaction */
  if (SPI_EndRxTxTransaction(hspi, Timeout, tickstart) != HAL_OK)
 800501c:	6a3a      	ldr	r2, [r7, #32]
 800501e:	6b39      	ldr	r1, [r7, #48]	@ 0x30
 8005020:	68f8      	ldr	r0, [r7, #12]
 8005022:	f000 f9a9 	bl	8005378 <SPI_EndRxTxTransaction>
 8005026:	4603      	mov	r3, r0
 8005028:	2b00      	cmp	r3, #0
 800502a:	d008      	beq.n	800503e <HAL_SPI_TransmitReceive+0x30e>
  {
    hspi->ErrorCode = HAL_SPI_ERROR_FLAG;
 800502c:	68fb      	ldr	r3, [r7, #12]
 800502e:	2220      	movs	r2, #32
 8005030:	655a      	str	r2, [r3, #84]	@ 0x54
    __HAL_UNLOCK(hspi);
 8005032:	68fb      	ldr	r3, [r7, #12]
 8005034:	2200      	movs	r2, #0
 8005036:	f883 2050 	strb.w	r2, [r3, #80]	@ 0x50
    return HAL_ERROR;
 800503a:	2301      	movs	r3, #1
 800503c:	e01d      	b.n	800507a <HAL_SPI_TransmitReceive+0x34a>
  }

  /* Clear overrun flag in 2 Lines communication mode because received is not read */
  if (hspi->Init.Direction == SPI_DIRECTION_2LINES)
 800503e:	68fb      	ldr	r3, [r7, #12]
 8005040:	689b      	ldr	r3, [r3, #8]
 8005042:	2b00      	cmp	r3, #0
 8005044:	d10a      	bne.n	800505c <HAL_SPI_TransmitReceive+0x32c>
  {
    __HAL_SPI_CLEAR_OVRFLAG(hspi);
 8005046:	2300      	movs	r3, #0
 8005048:	613b      	str	r3, [r7, #16]
 800504a:	68fb      	ldr	r3, [r7, #12]
 800504c:	681b      	ldr	r3, [r3, #0]
 800504e:	68db      	ldr	r3, [r3, #12]
 8005050:	613b      	str	r3, [r7, #16]
 8005052:	68fb      	ldr	r3, [r7, #12]
 8005054:	681b      	ldr	r3, [r3, #0]
 8005056:	689b      	ldr	r3, [r3, #8]
 8005058:	613b      	str	r3, [r7, #16]
 800505a:	693b      	ldr	r3, [r7, #16]
  }


  hspi->State = HAL_SPI_STATE_READY;
 800505c:	68fb      	ldr	r3, [r7, #12]
 800505e:	2201      	movs	r2, #1
 8005060:	f883 2051 	strb.w	r2, [r3, #81]	@ 0x51
  /* Unlock the process */
  __HAL_UNLOCK(hspi);
 8005064:	68fb      	ldr	r3, [r7, #12]
 8005066:	2200      	movs	r2, #0
 8005068:	f883 2050 	strb.w	r2, [r3, #80]	@ 0x50

  if (hspi->ErrorCode != HAL_SPI_ERROR_NONE)
 800506c:	68fb      	ldr	r3, [r7, #12]
 800506e:	6d5b      	ldr	r3, [r3, #84]	@ 0x54
 8005070:	2b00      	cmp	r3, #0
 8005072:	d001      	beq.n	8005078 <HAL_SPI_TransmitReceive+0x348>
  {
    return HAL_ERROR;
 8005074:	2301      	movs	r3, #1
 8005076:	e000      	b.n	800507a <HAL_SPI_TransmitReceive+0x34a>
  }
  else
  {
    return HAL_OK;
 8005078:	2300      	movs	r3, #0
  }
}
 800507a:	4618      	mov	r0, r3
 800507c:	3728      	adds	r7, #40	@ 0x28
 800507e:	46bd      	mov	sp, r7
 8005080:	bd80      	pop	{r7, pc}
	...

08005084 <HAL_SPI_IRQHandler>:
  * @param  hspi pointer to a SPI_HandleTypeDef structure that contains
  *               the configuration information for the specified SPI module.
  * @retval None
  */
void HAL_SPI_IRQHandler(SPI_HandleTypeDef *hspi)
{
 8005084:	b580      	push	{r7, lr}
 8005086:	b088      	sub	sp, #32
 8005088:	af00      	add	r7, sp, #0
 800508a:	6078      	str	r0, [r7, #4]
  uint32_t itsource = hspi->Instance->CR2;
 800508c:	687b      	ldr	r3, [r7, #4]
 800508e:	681b      	ldr	r3, [r3, #0]
 8005090:	685b      	ldr	r3, [r3, #4]
 8005092:	61fb      	str	r3, [r7, #28]
  uint32_t itflag   = hspi->Instance->SR;
 8005094:	687b      	ldr	r3, [r7, #4]
 8005096:	681b      	ldr	r3, [r3, #0]
 8005098:	689b      	ldr	r3, [r3, #8]
 800509a:	61bb      	str	r3, [r7, #24]

  /* SPI in mode Receiver ----------------------------------------------------*/
  if ((SPI_CHECK_FLAG(itflag, SPI_FLAG_OVR) == RESET) &&
 800509c:	69bb      	ldr	r3, [r7, #24]
 800509e:	f003 0340 	and.w	r3, r3, #64	@ 0x40
 80050a2:	2b00      	cmp	r3, #0
 80050a4:	d10e      	bne.n	80050c4 <HAL_SPI_IRQHandler+0x40>
      (SPI_CHECK_FLAG(itflag, SPI_FLAG_RXNE) != RESET) && (SPI_CHECK_IT_SOURCE(itsource, SPI_IT_RXNE) != RESET))
 80050a6:	69bb      	ldr	r3, [r7, #24]
 80050a8:	f003 0301 	and.w	r3, r3, #1
  if ((SPI_CHECK_FLAG(itflag, SPI_FLAG_OVR) == RESET) &&
 80050ac:	2b00      	cmp	r3, #0
 80050ae:	d009      	beq.n	80050c4 <HAL_SPI_IRQHandler+0x40>
      (SPI_CHECK_FLAG(itflag, SPI_FLAG_RXNE) != RESET) && (SPI_CHECK_IT_SOURCE(itsource, SPI_IT_RXNE) != RESET))
 80050b0:	69fb      	ldr	r3, [r7, #28]
 80050b2:	f003 0340 	and.w	r3, r3, #64	@ 0x40
 80050b6:	2b00      	cmp	r3, #0
 80050b8:	d004      	beq.n	80050c4 <HAL_SPI_IRQHandler+0x40>
  {
    hspi->RxISR(hspi);
 80050ba:	687b      	ldr	r3, [r7, #4]
 80050bc:	6c1b      	ldr	r3, [r3, #64]	@ 0x40
 80050be:	6878      	ldr	r0, [r7, #4]
 80050c0:	4798      	blx	r3
    return;
 80050c2:	e0b7      	b.n	8005234 <HAL_SPI_IRQHandler+0x1b0>
  }

  /* SPI in mode Transmitter -------------------------------------------------*/
  if ((SPI_CHECK_FLAG(itflag, SPI_FLAG_TXE) != RESET) && (SPI_CHECK_IT_SOURCE(itsource, SPI_IT_TXE) != RESET))
 80050c4:	69bb      	ldr	r3, [r7, #24]
 80050c6:	f003 0302 	and.w	r3, r3, #2
 80050ca:	2b00      	cmp	r3, #0
 80050cc:	d009      	beq.n	80050e2 <HAL_SPI_IRQHandler+0x5e>
 80050ce:	69fb      	ldr	r3, [r7, #28]
 80050d0:	f003 0380 	and.w	r3, r3, #128	@ 0x80
 80050d4:	2b00      	cmp	r3, #0
 80050d6:	d004      	beq.n	80050e2 <HAL_SPI_IRQHandler+0x5e>
  {
    hspi->TxISR(hspi);
 80050d8:	687b      	ldr	r3, [r7, #4]
 80050da:	6c5b      	ldr	r3, [r3, #68]	@ 0x44
 80050dc:	6878      	ldr	r0, [r7, #4]
 80050de:	4798      	blx	r3
    return;
 80050e0:	e0a8      	b.n	8005234 <HAL_SPI_IRQHandler+0x1b0>
  }

  /* SPI in Error Treatment --------------------------------------------------*/
  if (((SPI_CHECK_FLAG(itflag, SPI_FLAG_MODF) != RESET) || (SPI_CHECK_FLAG(itflag, SPI_FLAG_OVR) != RESET))
 80050e2:	69bb      	ldr	r3, [r7, #24]
 80050e4:	f003 0320 	and.w	r3, r3, #32
 80050e8:	2b00      	cmp	r3, #0
 80050ea:	d105      	bne.n	80050f8 <HAL_SPI_IRQHandler+0x74>
 80050ec:	69bb      	ldr	r3, [r7, #24]
 80050ee:	f003 0340 	and.w	r3, r3, #64	@ 0x40
 80050f2:	2b00      	cmp	r3, #0
 80050f4:	f000 809e 	beq.w	8005234 <HAL_SPI_IRQHandler+0x1b0>
      && (SPI_CHECK_IT_SOURCE(itsource, SPI_IT_ERR) != RESET))
 80050f8:	69fb      	ldr	r3, [r7, #28]
 80050fa:	f003 0320 	and.w	r3, r3, #32
 80050fe:	2b00      	cmp	r3, #0
 8005100:	f000 8098 	beq.w	8005234 <HAL_SPI_IRQHandler+0x1b0>
  {
    /* SPI Overrun error interrupt occurred ----------------------------------*/
    if (SPI_CHECK_FLAG(itflag, SPI_FLAG_OVR) != RESET)
 8005104:	69bb      	ldr	r3, [r7, #24]
 8005106:	f003 0340 	and.w	r3, r3, #64	@ 0x40
 800510a:	2b00      	cmp	r3, #0
 800510c:	d023      	beq.n	8005156 <HAL_SPI_IRQHandler+0xd2>
    {
      if (hspi->State != HAL_SPI_STATE_BUSY_TX)
 800510e:	687b      	ldr	r3, [r7, #4]
 8005110:	f893 3051 	ldrb.w	r3, [r3, #81]	@ 0x51
 8005114:	b2db      	uxtb	r3, r3
 8005116:	2b03      	cmp	r3, #3
 8005118:	d011      	beq.n	800513e <HAL_SPI_IRQHandler+0xba>
      {
        SET_BIT(hspi->ErrorCode, HAL_SPI_ERROR_OVR);
 800511a:	687b      	ldr	r3, [r7, #4]
 800511c:	6d5b      	ldr	r3, [r3, #84]	@ 0x54
 800511e:	f043 0204 	orr.w	r2, r3, #4
 8005122:	687b      	ldr	r3, [r7, #4]
 8005124:	655a      	str	r2, [r3, #84]	@ 0x54
        __HAL_SPI_CLEAR_OVRFLAG(hspi);
 8005126:	2300      	movs	r3, #0
 8005128:	617b      	str	r3, [r7, #20]
 800512a:	687b      	ldr	r3, [r7, #4]
 800512c:	681b      	ldr	r3, [r3, #0]
 800512e:	68db      	ldr	r3, [r3, #12]
 8005130:	617b      	str	r3, [r7, #20]
 8005132:	687b      	ldr	r3, [r7, #4]
 8005134:	681b      	ldr	r3, [r3, #0]
 8005136:	689b      	ldr	r3, [r3, #8]
 8005138:	617b      	str	r3, [r7, #20]
 800513a:	697b      	ldr	r3, [r7, #20]
 800513c:	e00b      	b.n	8005156 <HAL_SPI_IRQHandler+0xd2>
      }
      else
      {
        __HAL_SPI_CLEAR_OVRFLAG(hspi);
 800513e:	2300      	movs	r3, #0
 8005140:	613b      	str	r3, [r7, #16]
 8005142:	687b      	ldr	r3, [r7, #4]
 8005144:	681b      	ldr	r3, [r3, #0]
 8005146:	68db      	ldr	r3, [r3, #12]
 8005148:	613b      	str	r3, [r7, #16]
 800514a:	687b      	ldr	r3, [r7, #4]
 800514c:	681b      	ldr	r3, [r3, #0]
 800514e:	689b      	ldr	r3, [r3, #8]
 8005150:	613b      	str	r3, [r7, #16]
 8005152:	693b      	ldr	r3, [r7, #16]
        return;
 8005154:	e06e      	b.n	8005234 <HAL_SPI_IRQHandler+0x1b0>
      }
    }

    /* SPI Mode Fault error interrupt occurred -------------------------------*/
    if (SPI_CHECK_FLAG(itflag, SPI_FLAG_MODF) != RESET)
 8005156:	69bb      	ldr	r3, [r7, #24]
 8005158:	f003 0320 	and.w	r3, r3, #32
 800515c:	2b00      	cmp	r3, #0
 800515e:	d014      	beq.n	800518a <HAL_SPI_IRQHandler+0x106>
    {
      SET_BIT(hspi->ErrorCode, HAL_SPI_ERROR_MODF);
 8005160:	687b      	ldr	r3, [r7, #4]
 8005162:	6d5b      	ldr	r3, [r3, #84]	@ 0x54
 8005164:	f043 0201 	orr.w	r2, r3, #1
 8005168:	687b      	ldr	r3, [r7, #4]
 800516a:	655a      	str	r2, [r3, #84]	@ 0x54
      __HAL_SPI_CLEAR_MODFFLAG(hspi);
 800516c:	2300      	movs	r3, #0
 800516e:	60fb      	str	r3, [r7, #12]
 8005170:	687b      	ldr	r3, [r7, #4]
 8005172:	681b      	ldr	r3, [r3, #0]
 8005174:	689b      	ldr	r3, [r3, #8]
 8005176:	60fb      	str	r3, [r7, #12]
 8005178:	687b      	ldr	r3, [r7, #4]
 800517a:	681b      	ldr	r3, [r3, #0]
 800517c:	681a      	ldr	r2, [r3, #0]
 800517e:	687b      	ldr	r3, [r7, #4]
 8005180:	681b      	ldr	r3, [r3, #0]
 8005182:	f022 0240 	bic.w	r2, r2, #64	@ 0x40
 8005186:	601a      	str	r2, [r3, #0]
 8005188:	68fb      	ldr	r3, [r7, #12]
    }

    /* SPI Frame error interrupt occurred ------------------------------------*/

    if (hspi->ErrorCode != HAL_SPI_ERROR_NONE)
 800518a:	687b      	ldr	r3, [r7, #4]
 800518c:	6d5b      	ldr	r3, [r3, #84]	@ 0x54
 800518e:	2b00      	cmp	r3, #0
 8005190:	d04f      	beq.n	8005232 <HAL_SPI_IRQHandler+0x1ae>
    {
      /* Disable all interrupts */
      __HAL_SPI_DISABLE_IT(hspi, SPI_IT_RXNE | SPI_IT_TXE | SPI_IT_ERR);
 8005192:	687b      	ldr	r3, [r7, #4]
 8005194:	681b      	ldr	r3, [r3, #0]
 8005196:	685a      	ldr	r2, [r3, #4]
 8005198:	687b      	ldr	r3, [r7, #4]
 800519a:	681b      	ldr	r3, [r3, #0]
 800519c:	f022 02e0 	bic.w	r2, r2, #224	@ 0xe0
 80051a0:	605a      	str	r2, [r3, #4]

      hspi->State = HAL_SPI_STATE_READY;
 80051a2:	687b      	ldr	r3, [r7, #4]
 80051a4:	2201      	movs	r2, #1
 80051a6:	f883 2051 	strb.w	r2, [r3, #81]	@ 0x51
      /* Disable the SPI DMA requests if enabled */
      if ((HAL_IS_BIT_SET(itsource, SPI_CR2_TXDMAEN)) || (HAL_IS_BIT_SET(itsource, SPI_CR2_RXDMAEN)))
 80051aa:	69fb      	ldr	r3, [r7, #28]
 80051ac:	f003 0302 	and.w	r3, r3, #2
 80051b0:	2b00      	cmp	r3, #0
 80051b2:	d104      	bne.n	80051be <HAL_SPI_IRQHandler+0x13a>
 80051b4:	69fb      	ldr	r3, [r7, #28]
 80051b6:	f003 0301 	and.w	r3, r3, #1
 80051ba:	2b00      	cmp	r3, #0
 80051bc:	d034      	beq.n	8005228 <HAL_SPI_IRQHandler+0x1a4>
      {
        CLEAR_BIT(hspi->Instance->CR2, (SPI_CR2_TXDMAEN | SPI_CR2_RXDMAEN));
 80051be:	687b      	ldr	r3, [r7, #4]
 80051c0:	681b      	ldr	r3, [r3, #0]
 80051c2:	685a      	ldr	r2, [r3, #4]
 80051c4:	687b      	ldr	r3, [r7, #4]
 80051c6:	681b      	ldr	r3, [r3, #0]
 80051c8:	f022 0203 	bic.w	r2, r2, #3
 80051cc:	605a      	str	r2, [r3, #4]

        /* Abort the SPI DMA Rx channel */
        if (hspi->hdmarx != NULL)
 80051ce:	687b      	ldr	r3, [r7, #4]
 80051d0:	6cdb      	ldr	r3, [r3, #76]	@ 0x4c
 80051d2:	2b00      	cmp	r3, #0
 80051d4:	d011      	beq.n	80051fa <HAL_SPI_IRQHandler+0x176>
        {
          /* Set the SPI DMA Abort callback :
          will lead to call HAL_SPI_ErrorCallback() at end of DMA abort procedure */
          hspi->hdmarx->XferAbortCallback = SPI_DMAAbortOnError;
 80051d6:	687b      	ldr	r3, [r7, #4]
 80051d8:	6cdb      	ldr	r3, [r3, #76]	@ 0x4c
 80051da:	4a18      	ldr	r2, [pc, #96]	@ (800523c <HAL_SPI_IRQHandler+0x1b8>)
 80051dc:	635a      	str	r2, [r3, #52]	@ 0x34
          if (HAL_OK != HAL_DMA_Abort_IT(hspi->hdmarx))
 80051de:	687b      	ldr	r3, [r7, #4]
 80051e0:	6cdb      	ldr	r3, [r3, #76]	@ 0x4c
 80051e2:	4618      	mov	r0, r3
 80051e4:	f7fe fe06 	bl	8003df4 <HAL_DMA_Abort_IT>
 80051e8:	4603      	mov	r3, r0
 80051ea:	2b00      	cmp	r3, #0
 80051ec:	d005      	beq.n	80051fa <HAL_SPI_IRQHandler+0x176>
          {
            SET_BIT(hspi->ErrorCode, HAL_SPI_ERROR_ABORT);
 80051ee:	687b      	ldr	r3, [r7, #4]
 80051f0:	6d5b      	ldr	r3, [r3, #84]	@ 0x54
 80051f2:	f043 0240 	orr.w	r2, r3, #64	@ 0x40
 80051f6:	687b      	ldr	r3, [r7, #4]
 80051f8:	655a      	str	r2, [r3, #84]	@ 0x54
          }
        }
        /* Abort the SPI DMA Tx channel */
        if (hspi->hdmatx != NULL)
 80051fa:	687b      	ldr	r3, [r7, #4]
 80051fc:	6c9b      	ldr	r3, [r3, #72]	@ 0x48
 80051fe:	2b00      	cmp	r3, #0
 8005200:	d016      	beq.n	8005230 <HAL_SPI_IRQHandler+0x1ac>
        {
          /* Set the SPI DMA Abort callback :
          will lead to call HAL_SPI_ErrorCallback() at end of DMA abort procedure */
          hspi->hdmatx->XferAbortCallback = SPI_DMAAbortOnError;
 8005202:	687b      	ldr	r3, [r7, #4]
 8005204:	6c9b      	ldr	r3, [r3, #72]	@ 0x48
 8005206:	4a0d      	ldr	r2, [pc, #52]	@ (800523c <HAL_SPI_IRQHandler+0x1b8>)
 8005208:	635a      	str	r2, [r3, #52]	@ 0x34
          if (HAL_OK != HAL_DMA_Abort_IT(hspi->hdmatx))
 800520a:	687b      	ldr	r3, [r7, #4]
 800520c:	6c9b      	ldr	r3, [r3, #72]	@ 0x48
 800520e:	4618      	mov	r0, r3
 8005210:	f7fe fdf0 	bl	8003df4 <HAL_DMA_Abort_IT>
 8005214:	4603      	mov	r3, r0
 8005216:	2b00      	cmp	r3, #0
 8005218:	d00a      	beq.n	8005230 <HAL_SPI_IRQHandler+0x1ac>
          {
            SET_BIT(hspi->ErrorCode, HAL_SPI_ERROR_ABORT);
 800521a:	687b      	ldr	r3, [r7, #4]
 800521c:	6d5b      	ldr	r3, [r3, #84]	@ 0x54
 800521e:	f043 0240 	orr.w	r2, r3, #64	@ 0x40
 8005222:	687b      	ldr	r3, [r7, #4]
 8005224:	655a      	str	r2, [r3, #84]	@ 0x54
        if (hspi->hdmatx != NULL)
 8005226:	e003      	b.n	8005230 <HAL_SPI_IRQHandler+0x1ac>
      {
        /* Call user error callback */
#if (USE_HAL_SPI_REGISTER_CALLBACKS == 1U)
        hspi->ErrorCallback(hspi);
#else
        HAL_SPI_ErrorCallback(hspi);
 8005228:	6878      	ldr	r0, [r7, #4]
 800522a:	f7fe f90f 	bl	800344c <HAL_SPI_ErrorCallback>
#endif /* USE_HAL_SPI_REGISTER_CALLBACKS */
      }
    }
    return;
 800522e:	e000      	b.n	8005232 <HAL_SPI_IRQHandler+0x1ae>
        if (hspi->hdmatx != NULL)
 8005230:	bf00      	nop
    return;
 8005232:	bf00      	nop
  }
}
 8005234:	3720      	adds	r7, #32
 8005236:	46bd      	mov	sp, r7
 8005238:	bd80      	pop	{r7, pc}
 800523a:	bf00      	nop
 800523c:	08005241 	.word	0x08005241

08005240 <SPI_DMAAbortOnError>:
  *         (To be called at end of DMA Abort procedure following error occurrence).
  * @param  hdma DMA handle.
  * @retval None
  */
static void SPI_DMAAbortOnError(DMA_HandleTypeDef *hdma)
{
 8005240:	b580      	push	{r7, lr}
 8005242:	b084      	sub	sp, #16
 8005244:	af00      	add	r7, sp, #0
 8005246:	6078      	str	r0, [r7, #4]
  SPI_HandleTypeDef *hspi = (SPI_HandleTypeDef *)(((DMA_HandleTypeDef *)hdma)->Parent);
 8005248:	687b      	ldr	r3, [r7, #4]
 800524a:	6a5b      	ldr	r3, [r3, #36]	@ 0x24
 800524c:	60fb      	str	r3, [r7, #12]
  hspi->RxXferCount = 0U;
 800524e:	68fb      	ldr	r3, [r7, #12]
 8005250:	2200      	movs	r2, #0
 8005252:	87da      	strh	r2, [r3, #62]	@ 0x3e
  hspi->TxXferCount = 0U;
 8005254:	68fb      	ldr	r3, [r7, #12]
 8005256:	2200      	movs	r2, #0
 8005258:	86da      	strh	r2, [r3, #54]	@ 0x36

  /* Call user error callback */
#if (USE_HAL_SPI_REGISTER_CALLBACKS == 1U)
  hspi->ErrorCallback(hspi);
#else
  HAL_SPI_ErrorCallback(hspi);
 800525a:	68f8      	ldr	r0, [r7, #12]
 800525c:	f7fe f8f6 	bl	800344c <HAL_SPI_ErrorCallback>
#endif /* USE_HAL_SPI_REGISTER_CALLBACKS */
}
 8005260:	bf00      	nop
 8005262:	3710      	adds	r7, #16
 8005264:	46bd      	mov	sp, r7
 8005266:	bd80      	pop	{r7, pc}

08005268 <SPI_WaitFlagStateUntilTimeout>:
  * @param  Tickstart tick start value
  * @retval HAL status
  */
static HAL_StatusTypeDef SPI_WaitFlagStateUntilTimeout(SPI_HandleTypeDef *hspi, uint32_t Flag, FlagStatus State,
                                                       uint32_t Timeout, uint32_t Tickstart)
{
 8005268:	b580      	push	{r7, lr}
 800526a:	b088      	sub	sp, #32
 800526c:	af00      	add	r7, sp, #0
 800526e:	60f8      	str	r0, [r7, #12]
 8005270:	60b9      	str	r1, [r7, #8]
 8005272:	603b      	str	r3, [r7, #0]
 8005274:	4613      	mov	r3, r2
 8005276:	71fb      	strb	r3, [r7, #7]
  __IO uint32_t count;
  uint32_t tmp_timeout;
  uint32_t tmp_tickstart;

  /* Adjust Timeout value  in case of end of transfer */
  tmp_timeout   = Timeout - (HAL_GetTick() - Tickstart);
 8005278:	f7fe fc26 	bl	8003ac8 <HAL_GetTick>
 800527c:	4602      	mov	r2, r0
 800527e:	6abb      	ldr	r3, [r7, #40]	@ 0x28
 8005280:	1a9b      	subs	r3, r3, r2
 8005282:	683a      	ldr	r2, [r7, #0]
 8005284:	4413      	add	r3, r2
 8005286:	61fb      	str	r3, [r7, #28]
  tmp_tickstart = HAL_GetTick();
 8005288:	f7fe fc1e 	bl	8003ac8 <HAL_GetTick>
 800528c:	61b8      	str	r0, [r7, #24]

  /* Calculate Timeout based on a software loop to avoid blocking issue if Systick is disabled */
  count = tmp_timeout * ((SystemCoreClock * 32U) >> 20U);
 800528e:	4b39      	ldr	r3, [pc, #228]	@ (8005374 <SPI_WaitFlagStateUntilTimeout+0x10c>)
 8005290:	681b      	ldr	r3, [r3, #0]
 8005292:	015b      	lsls	r3, r3, #5
 8005294:	0d1b      	lsrs	r3, r3, #20
 8005296:	69fa      	ldr	r2, [r7, #28]
 8005298:	fb02 f303 	mul.w	r3, r2, r3
 800529c:	617b      	str	r3, [r7, #20]

  while ((__HAL_SPI_GET_FLAG(hspi, Flag) ? SET : RESET) != State)
 800529e:	e054      	b.n	800534a <SPI_WaitFlagStateUntilTimeout+0xe2>
  {
    if (Timeout != HAL_MAX_DELAY)
 80052a0:	683b      	ldr	r3, [r7, #0]
 80052a2:	f1b3 3fff 	cmp.w	r3, #4294967295	@ 0xffffffff
 80052a6:	d050      	beq.n	800534a <SPI_WaitFlagStateUntilTimeout+0xe2>
    {
      if (((HAL_GetTick() - tmp_tickstart) >= tmp_timeout) || (tmp_timeout == 0U))
 80052a8:	f7fe fc0e 	bl	8003ac8 <HAL_GetTick>
 80052ac:	4602      	mov	r2, r0
 80052ae:	69bb      	ldr	r3, [r7, #24]
 80052b0:	1ad3      	subs	r3, r2, r3
 80052b2:	69fa      	ldr	r2, [r7, #28]
 80052b4:	429a      	cmp	r2, r3
 80052b6:	d902      	bls.n	80052be <SPI_WaitFlagStateUntilTimeout+0x56>
 80052b8:	69fb      	ldr	r3, [r7, #28]
 80052ba:	2b00      	cmp	r3, #0
 80052bc:	d13d      	bne.n	800533a <SPI_WaitFlagStateUntilTimeout+0xd2>
        /* Disable the SPI and reset the CRC: the CRC value should be cleared
           on both master and slave sides in order to resynchronize the master
           and slave for their respective CRC calculation */

        /* Disable TXE, RXNE and ERR interrupts for the interrupt process */
        __HAL_SPI_DISABLE_IT(hspi, (SPI_IT_TXE | SPI_IT_RXNE | SPI_IT_ERR));
 80052be:	68fb      	ldr	r3, [r7, #12]
 80052c0:	681b      	ldr	r3, [r3, #0]
 80052c2:	685a      	ldr	r2, [r3, #4]
 80052c4:	68fb      	ldr	r3, [r7, #12]
 80052c6:	681b      	ldr	r3, [r3, #0]
 80052c8:	f022 02e0 	bic.w	r2, r2, #224	@ 0xe0
 80052cc:	605a      	str	r2, [r3, #4]

        if ((hspi->Init.Mode == SPI_MODE_MASTER) && ((hspi->Init.Direction == SPI_DIRECTION_1LINE)
 80052ce:	68fb      	ldr	r3, [r7, #12]
 80052d0:	685b      	ldr	r3, [r3, #4]
 80052d2:	f5b3 7f82 	cmp.w	r3, #260	@ 0x104
 80052d6:	d111      	bne.n	80052fc <SPI_WaitFlagStateUntilTimeout+0x94>
 80052d8:	68fb      	ldr	r3, [r7, #12]
 80052da:	689b      	ldr	r3, [r3, #8]
 80052dc:	f5b3 4f00 	cmp.w	r3, #32768	@ 0x8000
 80052e0:	d004      	beq.n	80052ec <SPI_WaitFlagStateUntilTimeout+0x84>
                                                     || (hspi->Init.Direction == SPI_DIRECTION_2LINES_RXONLY)))
 80052e2:	68fb      	ldr	r3, [r7, #12]
 80052e4:	689b      	ldr	r3, [r3, #8]
 80052e6:	f5b3 6f80 	cmp.w	r3, #1024	@ 0x400
 80052ea:	d107      	bne.n	80052fc <SPI_WaitFlagStateUntilTimeout+0x94>
        {
          /* Disable SPI peripheral */
          __HAL_SPI_DISABLE(hspi);
 80052ec:	68fb      	ldr	r3, [r7, #12]
 80052ee:	681b      	ldr	r3, [r3, #0]
 80052f0:	681a      	ldr	r2, [r3, #0]
 80052f2:	68fb      	ldr	r3, [r7, #12]
 80052f4:	681b      	ldr	r3, [r3, #0]
 80052f6:	f022 0240 	bic.w	r2, r2, #64	@ 0x40
 80052fa:	601a      	str	r2, [r3, #0]
        }

        /* Reset CRC Calculation */
        if (hspi->Init.CRCCalculation == SPI_CRCCALCULATION_ENABLE)
 80052fc:	68fb      	ldr	r3, [r7, #12]
 80052fe:	6a9b      	ldr	r3, [r3, #40]	@ 0x28
 8005300:	f5b3 5f00 	cmp.w	r3, #8192	@ 0x2000
 8005304:	d10f      	bne.n	8005326 <SPI_WaitFlagStateUntilTimeout+0xbe>
        {
          SPI_RESET_CRC(hspi);
 8005306:	68fb      	ldr	r3, [r7, #12]
 8005308:	681b      	ldr	r3, [r3, #0]
 800530a:	681a      	ldr	r2, [r3, #0]
 800530c:	68fb      	ldr	r3, [r7, #12]
 800530e:	681b      	ldr	r3, [r3, #0]
 8005310:	f422 5200 	bic.w	r2, r2, #8192	@ 0x2000
 8005314:	601a      	str	r2, [r3, #0]
 8005316:	68fb      	ldr	r3, [r7, #12]
 8005318:	681b      	ldr	r3, [r3, #0]
 800531a:	681a      	ldr	r2, [r3, #0]
 800531c:	68fb      	ldr	r3, [r7, #12]
 800531e:	681b      	ldr	r3, [r3, #0]
 8005320:	f442 5200 	orr.w	r2, r2, #8192	@ 0x2000
 8005324:	601a      	str	r2, [r3, #0]
        }

        hspi->State = HAL_SPI_STATE_READY;
 8005326:	68fb      	ldr	r3, [r7, #12]
 8005328:	2201      	movs	r2, #1
 800532a:	f883 2051 	strb.w	r2, [r3, #81]	@ 0x51

        /* Process Unlocked */
        __HAL_UNLOCK(hspi);
 800532e:	68fb      	ldr	r3, [r7, #12]
 8005330:	2200      	movs	r2, #0
 8005332:	f883 2050 	strb.w	r2, [r3, #80]	@ 0x50

        return HAL_TIMEOUT;
 8005336:	2303      	movs	r3, #3
 8005338:	e017      	b.n	800536a <SPI_WaitFlagStateUntilTimeout+0x102>
      }
      /* If Systick is disabled or not incremented, deactivate timeout to go in disable loop procedure */
      if (count == 0U)
 800533a:	697b      	ldr	r3, [r7, #20]
 800533c:	2b00      	cmp	r3, #0
 800533e:	d101      	bne.n	8005344 <SPI_WaitFlagStateUntilTimeout+0xdc>
      {
        tmp_timeout = 0U;
 8005340:	2300      	movs	r3, #0
 8005342:	61fb      	str	r3, [r7, #28]
      }
      count--;
 8005344:	697b      	ldr	r3, [r7, #20]
 8005346:	3b01      	subs	r3, #1
 8005348:	617b      	str	r3, [r7, #20]
  while ((__HAL_SPI_GET_FLAG(hspi, Flag) ? SET : RESET) != State)
 800534a:	68fb      	ldr	r3, [r7, #12]
 800534c:	681b      	ldr	r3, [r3, #0]
 800534e:	689a      	ldr	r2, [r3, #8]
 8005350:	68bb      	ldr	r3, [r7, #8]
 8005352:	4013      	ands	r3, r2
 8005354:	68ba      	ldr	r2, [r7, #8]
 8005356:	429a      	cmp	r2, r3
 8005358:	bf0c      	ite	eq
 800535a:	2301      	moveq	r3, #1
 800535c:	2300      	movne	r3, #0
 800535e:	b2db      	uxtb	r3, r3
 8005360:	461a      	mov	r2, r3
 8005362:	79fb      	ldrb	r3, [r7, #7]
 8005364:	429a      	cmp	r2, r3
 8005366:	d19b      	bne.n	80052a0 <SPI_WaitFlagStateUntilTimeout+0x38>
    }
  }

  return HAL_OK;
 8005368:	2300      	movs	r3, #0
}
 800536a:	4618      	mov	r0, r3
 800536c:	3720      	adds	r7, #32
 800536e:	46bd      	mov	sp, r7
 8005370:	bd80      	pop	{r7, pc}
 8005372:	bf00      	nop
 8005374:	20000034 	.word	0x20000034

08005378 <SPI_EndRxTxTransaction>:
  * @param  Timeout Timeout duration
  * @param  Tickstart tick start value
  * @retval HAL status
  */
static HAL_StatusTypeDef SPI_EndRxTxTransaction(SPI_HandleTypeDef *hspi, uint32_t Timeout, uint32_t Tickstart)
{
 8005378:	b580      	push	{r7, lr}
 800537a:	b086      	sub	sp, #24
 800537c:	af02      	add	r7, sp, #8
 800537e:	60f8      	str	r0, [r7, #12]
 8005380:	60b9      	str	r1, [r7, #8]
 8005382:	607a      	str	r2, [r7, #4]
  /* Wait until TXE flag */
  if (SPI_WaitFlagStateUntilTimeout(hspi, SPI_FLAG_TXE, SET, Timeout, Tickstart) != HAL_OK)
 8005384:	687b      	ldr	r3, [r7, #4]
 8005386:	9300      	str	r3, [sp, #0]
 8005388:	68bb      	ldr	r3, [r7, #8]
 800538a:	2201      	movs	r2, #1
 800538c:	2102      	movs	r1, #2
 800538e:	68f8      	ldr	r0, [r7, #12]
 8005390:	f7ff ff6a 	bl	8005268 <SPI_WaitFlagStateUntilTimeout>
 8005394:	4603      	mov	r3, r0
 8005396:	2b00      	cmp	r3, #0
 8005398:	d007      	beq.n	80053aa <SPI_EndRxTxTransaction+0x32>
  {
    SET_BIT(hspi->ErrorCode, HAL_SPI_ERROR_FLAG);
 800539a:	68fb      	ldr	r3, [r7, #12]
 800539c:	6d5b      	ldr	r3, [r3, #84]	@ 0x54
 800539e:	f043 0220 	orr.w	r2, r3, #32
 80053a2:	68fb      	ldr	r3, [r7, #12]
 80053a4:	655a      	str	r2, [r3, #84]	@ 0x54
    return HAL_TIMEOUT;
 80053a6:	2303      	movs	r3, #3
 80053a8:	e013      	b.n	80053d2 <SPI_EndRxTxTransaction+0x5a>
  }

  /* Control the BSY flag */
  if (SPI_WaitFlagStateUntilTimeout(hspi, SPI_FLAG_BSY, RESET, Timeout, Tickstart) != HAL_OK)
 80053aa:	687b      	ldr	r3, [r7, #4]
 80053ac:	9300      	str	r3, [sp, #0]
 80053ae:	68bb      	ldr	r3, [r7, #8]
 80053b0:	2200      	movs	r2, #0
 80053b2:	2180      	movs	r1, #128	@ 0x80
 80053b4:	68f8      	ldr	r0, [r7, #12]
 80053b6:	f7ff ff57 	bl	8005268 <SPI_WaitFlagStateUntilTimeout>
 80053ba:	4603      	mov	r3, r0
 80053bc:	2b00      	cmp	r3, #0
 80053be:	d007      	beq.n	80053d0 <SPI_EndRxTxTransaction+0x58>
  {
    SET_BIT(hspi->ErrorCode, HAL_SPI_ERROR_FLAG);
 80053c0:	68fb      	ldr	r3, [r7, #12]
 80053c2:	6d5b      	ldr	r3, [r3, #84]	@ 0x54
 80053c4:	f043 0220 	orr.w	r2, r3, #32
 80053c8:	68fb      	ldr	r3, [r7, #12]
 80053ca:	655a      	str	r2, [r3, #84]	@ 0x54
    return HAL_TIMEOUT;
 80053cc:	2303      	movs	r3, #3
 80053ce:	e000      	b.n	80053d2 <SPI_EndRxTxTransaction+0x5a>
  }
  return HAL_OK;
 80053d0:	2300      	movs	r3, #0
}
 80053d2:	4618      	mov	r0, r3
 80053d4:	3710      	adds	r7, #16
 80053d6:	46bd      	mov	sp, r7
 80053d8:	bd80      	pop	{r7, pc}
	...

080053dc <HAL_TIM_Base_Start_IT>:
  * @brief  Starts the TIM Base generation in interrupt mode.
  * @param  htim TIM Base handle
  * @retval HAL status
  */
HAL_StatusTypeDef HAL_TIM_Base_Start_IT(TIM_HandleTypeDef *htim)
{
 80053dc:	b480      	push	{r7}
 80053de:	b085      	sub	sp, #20
 80053e0:	af00      	add	r7, sp, #0
 80053e2:	6078      	str	r0, [r7, #4]

  /* Check the parameters */
  assert_param(IS_TIM_INSTANCE(htim->Instance));

  /* Check the TIM state */
  if (htim->State != HAL_TIM_STATE_READY)
 80053e4:	687b      	ldr	r3, [r7, #4]
 80053e6:	f893 303d 	ldrb.w	r3, [r3, #61]	@ 0x3d
 80053ea:	b2db      	uxtb	r3, r3
 80053ec:	2b01      	cmp	r3, #1
 80053ee:	d001      	beq.n	80053f4 <HAL_TIM_Base_Start_IT+0x18>
  {
    return HAL_ERROR;
 80053f0:	2301      	movs	r3, #1
 80053f2:	e03a      	b.n	800546a <HAL_TIM_Base_Start_IT+0x8e>
  }

  /* Set the TIM state */
  htim->State = HAL_TIM_STATE_BUSY;
 80053f4:	687b      	ldr	r3, [r7, #4]
 80053f6:	2202      	movs	r2, #2
 80053f8:	f883 203d 	strb.w	r2, [r3, #61]	@ 0x3d

  /* Enable the TIM Update interrupt */
  __HAL_TIM_ENABLE_IT(htim, TIM_IT_UPDATE);
 80053fc:	687b      	ldr	r3, [r7, #4]
 80053fe:	681b      	ldr	r3, [r3, #0]
 8005400:	68da      	ldr	r2, [r3, #12]
 8005402:	687b      	ldr	r3, [r7, #4]
 8005404:	681b      	ldr	r3, [r3, #0]
 8005406:	f042 0201 	orr.w	r2, r2, #1
 800540a:	60da      	str	r2, [r3, #12]

  /* Enable the Peripheral, except in trigger mode where enable is automatically done with trigger */
  if (IS_TIM_SLAVE_INSTANCE(htim->Instance))
 800540c:	687b      	ldr	r3, [r7, #4]
 800540e:	681b      	ldr	r3, [r3, #0]
 8005410:	4a18      	ldr	r2, [pc, #96]	@ (8005474 <HAL_TIM_Base_Start_IT+0x98>)
 8005412:	4293      	cmp	r3, r2
 8005414:	d00e      	beq.n	8005434 <HAL_TIM_Base_Start_IT+0x58>
 8005416:	687b      	ldr	r3, [r7, #4]
 8005418:	681b      	ldr	r3, [r3, #0]
 800541a:	f1b3 4f80 	cmp.w	r3, #1073741824	@ 0x40000000
 800541e:	d009      	beq.n	8005434 <HAL_TIM_Base_Start_IT+0x58>
 8005420:	687b      	ldr	r3, [r7, #4]
 8005422:	681b      	ldr	r3, [r3, #0]
 8005424:	4a14      	ldr	r2, [pc, #80]	@ (8005478 <HAL_TIM_Base_Start_IT+0x9c>)
 8005426:	4293      	cmp	r3, r2
 8005428:	d004      	beq.n	8005434 <HAL_TIM_Base_Start_IT+0x58>
 800542a:	687b      	ldr	r3, [r7, #4]
 800542c:	681b      	ldr	r3, [r3, #0]
 800542e:	4a13      	ldr	r2, [pc, #76]	@ (800547c <HAL_TIM_Base_Start_IT+0xa0>)
 8005430:	4293      	cmp	r3, r2
 8005432:	d111      	bne.n	8005458 <HAL_TIM_Base_Start_IT+0x7c>
  {
    tmpsmcr = htim->Instance->SMCR & TIM_SMCR_SMS;
 8005434:	687b      	ldr	r3, [r7, #4]
 8005436:	681b      	ldr	r3, [r3, #0]
 8005438:	689b      	ldr	r3, [r3, #8]
 800543a:	f003 0307 	and.w	r3, r3, #7
 800543e:	60fb      	str	r3, [r7, #12]
    if (!IS_TIM_SLAVEMODE_TRIGGER_ENABLED(tmpsmcr))
 8005440:	68fb      	ldr	r3, [r7, #12]
 8005442:	2b06      	cmp	r3, #6
 8005444:	d010      	beq.n	8005468 <HAL_TIM_Base_Start_IT+0x8c>
    {
      __HAL_TIM_ENABLE(htim);
 8005446:	687b      	ldr	r3, [r7, #4]
 8005448:	681b      	ldr	r3, [r3, #0]
 800544a:	681a      	ldr	r2, [r3, #0]
 800544c:	687b      	ldr	r3, [r7, #4]
 800544e:	681b      	ldr	r3, [r3, #0]
 8005450:	f042 0201 	orr.w	r2, r2, #1
 8005454:	601a      	str	r2, [r3, #0]
    if (!IS_TIM_SLAVEMODE_TRIGGER_ENABLED(tmpsmcr))
 8005456:	e007      	b.n	8005468 <HAL_TIM_Base_Start_IT+0x8c>
    }
  }
  else
  {
    __HAL_TIM_ENABLE(htim);
 8005458:	687b      	ldr	r3, [r7, #4]
 800545a:	681b      	ldr	r3, [r3, #0]
 800545c:	681a      	ldr	r2, [r3, #0]
 800545e:	687b      	ldr	r3, [r7, #4]
 8005460:	681b      	ldr	r3, [r3, #0]
 8005462:	f042 0201 	orr.w	r2, r2, #1
 8005466:	601a      	str	r2, [r3, #0]
  }

  /* Return function status */
  return HAL_OK;
 8005468:	2300      	movs	r3, #0
}
 800546a:	4618      	mov	r0, r3
 800546c:	3714      	adds	r7, #20
 800546e:	46bd      	mov	sp, r7
 8005470:	bc80      	pop	{r7}
 8005472:	4770      	bx	lr
 8005474:	40012c00 	.word	0x40012c00
 8005478:	40000400 	.word	0x40000400
 800547c:	40000800 	.word	0x40000800

08005480 <HAL_TIM_PWM_Init>:
  *         Ex: call @ref HAL_TIM_PWM_DeInit() before HAL_TIM_PWM_Init()
  * @param  htim TIM PWM handle
  * @retval HAL status
  */
HAL_StatusTypeDef HAL_TIM_PWM_Init(TIM_HandleTypeDef *htim)
{
 8005480:	b580      	push	{r7, lr}
 8005482:	b082      	sub	sp, #8
 8005484:	af00      	add	r7, sp, #0
 8005486:	6078      	str	r0, [r7, #4]
  /* Check the TIM handle allocation */
  if (htim == NULL)
 8005488:	687b      	ldr	r3, [r7, #4]
 800548a:	2b00      	cmp	r3, #0
 800548c:	d101      	bne.n	8005492 <HAL_TIM_PWM_Init+0x12>
  {
    return HAL_ERROR;
 800548e:	2301      	movs	r3, #1
 8005490:	e041      	b.n	8005516 <HAL_TIM_PWM_Init+0x96>
  assert_param(IS_TIM_COUNTER_MODE(htim->Init.CounterMode));
  assert_param(IS_TIM_CLOCKDIVISION_DIV(htim->Init.ClockDivision));
  assert_param(IS_TIM_PERIOD(htim->Init.Period));
  assert_param(IS_TIM_AUTORELOAD_PRELOAD(htim->Init.AutoReloadPreload));

  if (htim->State == HAL_TIM_STATE_RESET)
 8005492:	687b      	ldr	r3, [r7, #4]
 8005494:	f893 303d 	ldrb.w	r3, [r3, #61]	@ 0x3d
 8005498:	b2db      	uxtb	r3, r3
 800549a:	2b00      	cmp	r3, #0
 800549c:	d106      	bne.n	80054ac <HAL_TIM_PWM_Init+0x2c>
  {
    /* Allocate lock resource and initialize it */
    htim->Lock = HAL_UNLOCKED;
 800549e:	687b      	ldr	r3, [r7, #4]
 80054a0:	2200      	movs	r2, #0
 80054a2:	f883 203c 	strb.w	r2, [r3, #60]	@ 0x3c
    }
    /* Init the low level hardware : GPIO, CLOCK, NVIC */
    htim->PWM_MspInitCallback(htim);
#else
    /* Init the low level hardware : GPIO, CLOCK, NVIC and DMA */
    HAL_TIM_PWM_MspInit(htim);
 80054a6:	6878      	ldr	r0, [r7, #4]
 80054a8:	f7fe f8c0 	bl	800362c <HAL_TIM_PWM_MspInit>
#endif /* USE_HAL_TIM_REGISTER_CALLBACKS */
  }

  /* Set the TIM state */
  htim->State = HAL_TIM_STATE_BUSY;
 80054ac:	687b      	ldr	r3, [r7, #4]
 80054ae:	2202      	movs	r2, #2
 80054b0:	f883 203d 	strb.w	r2, [r3, #61]	@ 0x3d

  /* Init the base time for the PWM */
  TIM_Base_SetConfig(htim->Instance, &htim->Init);
 80054b4:	687b      	ldr	r3, [r7, #4]
 80054b6:	681a      	ldr	r2, [r3, #0]
 80054b8:	687b      	ldr	r3, [r7, #4]
 80054ba:	3304      	adds	r3, #4
 80054bc:	4619      	mov	r1, r3
 80054be:	4610      	mov	r0, r2
 80054c0:	f000 fab0 	bl	8005a24 <TIM_Base_SetConfig>

  /* Initialize the DMA burst operation state */
  htim->DMABurstState = HAL_DMA_BURST_STATE_READY;
 80054c4:	687b      	ldr	r3, [r7, #4]
 80054c6:	2201      	movs	r2, #1
 80054c8:	f883 2046 	strb.w	r2, [r3, #70]	@ 0x46

  /* Initialize the TIM channels state */
  TIM_CHANNEL_STATE_SET_ALL(htim, HAL_TIM_CHANNEL_STATE_READY);
 80054cc:	687b      	ldr	r3, [r7, #4]
 80054ce:	2201      	movs	r2, #1
 80054d0:	f883 203e 	strb.w	r2, [r3, #62]	@ 0x3e
 80054d4:	687b      	ldr	r3, [r7, #4]
 80054d6:	2201      	movs	r2, #1
 80054d8:	f883 203f 	strb.w	r2, [r3, #63]	@ 0x3f
 80054dc:	687b      	ldr	r3, [r7, #4]
 80054de:	2201      	movs	r2, #1
 80054e0:	f883 2040 	strb.w	r2, [r3, #64]	@ 0x40
 80054e4:	687b      	ldr	r3, [r7, #4]
 80054e6:	2201      	movs	r2, #1
 80054e8:	f883 2041 	strb.w	r2, [r3, #65]	@ 0x41
  TIM_CHANNEL_N_STATE_SET_ALL(htim, HAL_TIM_CHANNEL_STATE_READY);
 80054ec:	687b      	ldr	r3, [r7, #4]
 80054ee:	2201      	movs	r2, #1
 80054f0:	f883 2042 	strb.w	r2, [r3, #66]	@ 0x42
 80054f4:	687b      	ldr	r3, [r7, #4]
 80054f6:	2201      	movs	r2, #1
 80054f8:	f883 2043 	strb.w	r2, [r3, #67]	@ 0x43
 80054fc:	687b      	ldr	r3, [r7, #4]
 80054fe:	2201      	movs	r2, #1
 8005500:	f883 2044 	strb.w	r2, [r3, #68]	@ 0x44
 8005504:	687b      	ldr	r3, [r7, #4]
 8005506:	2201      	movs	r2, #1
 8005508:	f883 2045 	strb.w	r2, [r3, #69]	@ 0x45

  /* Initialize the TIM state*/
  htim->State = HAL_TIM_STATE_READY;
 800550c:	687b      	ldr	r3, [r7, #4]
 800550e:	2201      	movs	r2, #1
 8005510:	f883 203d 	strb.w	r2, [r3, #61]	@ 0x3d

  return HAL_OK;
 8005514:	2300      	movs	r3, #0
}
 8005516:	4618      	mov	r0, r3
 8005518:	3708      	adds	r7, #8
 800551a:	46bd      	mov	sp, r7
 800551c:	bd80      	pop	{r7, pc}
	...

08005520 <HAL_TIM_PWM_Start>:
  *            @arg TIM_CHANNEL_3: TIM Channel 3 selected
  *            @arg TIM_CHANNEL_4: TIM Channel 4 selected
  * @retval HAL status
  */
HAL_StatusTypeDef HAL_TIM_PWM_Start(TIM_HandleTypeDef *htim, uint32_t Channel)
{
 8005520:	b580      	push	{r7, lr}
 8005522:	b084      	sub	sp, #16
 8005524:	af00      	add	r7, sp, #0
 8005526:	6078      	str	r0, [r7, #4]
 8005528:	6039      	str	r1, [r7, #0]

  /* Check the parameters */
  assert_param(IS_TIM_CCX_INSTANCE(htim->Instance, Channel));

  /* Check the TIM channel state */
  if (TIM_CHANNEL_STATE_GET(htim, Channel) != HAL_TIM_CHANNEL_STATE_READY)
 800552a:	683b      	ldr	r3, [r7, #0]
 800552c:	2b00      	cmp	r3, #0
 800552e:	d109      	bne.n	8005544 <HAL_TIM_PWM_Start+0x24>
 8005530:	687b      	ldr	r3, [r7, #4]
 8005532:	f893 303e 	ldrb.w	r3, [r3, #62]	@ 0x3e
 8005536:	b2db      	uxtb	r3, r3
 8005538:	2b01      	cmp	r3, #1
 800553a:	bf14      	ite	ne
 800553c:	2301      	movne	r3, #1
 800553e:	2300      	moveq	r3, #0
 8005540:	b2db      	uxtb	r3, r3
 8005542:	e022      	b.n	800558a <HAL_TIM_PWM_Start+0x6a>
 8005544:	683b      	ldr	r3, [r7, #0]
 8005546:	2b04      	cmp	r3, #4
 8005548:	d109      	bne.n	800555e <HAL_TIM_PWM_Start+0x3e>
 800554a:	687b      	ldr	r3, [r7, #4]
 800554c:	f893 303f 	ldrb.w	r3, [r3, #63]	@ 0x3f
 8005550:	b2db      	uxtb	r3, r3
 8005552:	2b01      	cmp	r3, #1
 8005554:	bf14      	ite	ne
 8005556:	2301      	movne	r3, #1
 8005558:	2300      	moveq	r3, #0
 800555a:	b2db      	uxtb	r3, r3
 800555c:	e015      	b.n	800558a <HAL_TIM_PWM_Start+0x6a>
 800555e:	683b      	ldr	r3, [r7, #0]
 8005560:	2b08      	cmp	r3, #8
 8005562:	d109      	bne.n	8005578 <HAL_TIM_PWM_Start+0x58>
 8005564:	687b      	ldr	r3, [r7, #4]
 8005566:	f893 3040 	ldrb.w	r3, [r3, #64]	@ 0x40
 800556a:	b2db      	uxtb	r3, r3
 800556c:	2b01      	cmp	r3, #1
 800556e:	bf14      	ite	ne
 8005570:	2301      	movne	r3, #1
 8005572:	2300      	moveq	r3, #0
 8005574:	b2db      	uxtb	r3, r3
 8005576:	e008      	b.n	800558a <HAL_TIM_PWM_Start+0x6a>
 8005578:	687b      	ldr	r3, [r7, #4]
 800557a:	f893 3041 	ldrb.w	r3, [r3, #65]	@ 0x41
 800557e:	b2db      	uxtb	r3, r3
 8005580:	2b01      	cmp	r3, #1
 8005582:	bf14      	ite	ne
 8005584:	2301      	movne	r3, #1
 8005586:	2300      	moveq	r3, #0
 8005588:	b2db      	uxtb	r3, r3
 800558a:	2b00      	cmp	r3, #0
 800558c:	d001      	beq.n	8005592 <HAL_TIM_PWM_Start+0x72>
  {
    return HAL_ERROR;
 800558e:	2301      	movs	r3, #1
 8005590:	e05e      	b.n	8005650 <HAL_TIM_PWM_Start+0x130>
  }

  /* Set the TIM channel state */
  TIM_CHANNEL_STATE_SET(htim, Channel, HAL_TIM_CHANNEL_STATE_BUSY);
 8005592:	683b      	ldr	r3, [r7, #0]
 8005594:	2b00      	cmp	r3, #0
 8005596:	d104      	bne.n	80055a2 <HAL_TIM_PWM_Start+0x82>
 8005598:	687b      	ldr	r3, [r7, #4]
 800559a:	2202      	movs	r2, #2
 800559c:	f883 203e 	strb.w	r2, [r3, #62]	@ 0x3e
 80055a0:	e013      	b.n	80055ca <HAL_TIM_PWM_Start+0xaa>
 80055a2:	683b      	ldr	r3, [r7, #0]
 80055a4:	2b04      	cmp	r3, #4
 80055a6:	d104      	bne.n	80055b2 <HAL_TIM_PWM_Start+0x92>
 80055a8:	687b      	ldr	r3, [r7, #4]
 80055aa:	2202      	movs	r2, #2
 80055ac:	f883 203f 	strb.w	r2, [r3, #63]	@ 0x3f
 80055b0:	e00b      	b.n	80055ca <HAL_TIM_PWM_Start+0xaa>
 80055b2:	683b      	ldr	r3, [r7, #0]
 80055b4:	2b08      	cmp	r3, #8
 80055b6:	d104      	bne.n	80055c2 <HAL_TIM_PWM_Start+0xa2>
 80055b8:	687b      	ldr	r3, [r7, #4]
 80055ba:	2202      	movs	r2, #2
 80055bc:	f883 2040 	strb.w	r2, [r3, #64]	@ 0x40
 80055c0:	e003      	b.n	80055ca <HAL_TIM_PWM_Start+0xaa>
 80055c2:	687b      	ldr	r3, [r7, #4]
 80055c4:	2202      	movs	r2, #2
 80055c6:	f883 2041 	strb.w	r2, [r3, #65]	@ 0x41

  /* Enable the Capture compare channel */
  TIM_CCxChannelCmd(htim->Instance, Channel, TIM_CCx_ENABLE);
 80055ca:	687b      	ldr	r3, [r7, #4]
 80055cc:	681b      	ldr	r3, [r3, #0]
 80055ce:	2201      	movs	r2, #1
 80055d0:	6839      	ldr	r1, [r7, #0]
 80055d2:	4618      	mov	r0, r3
 80055d4:	f000 fc1c 	bl	8005e10 <TIM_CCxChannelCmd>

  if (IS_TIM_BREAK_INSTANCE(htim->Instance) != RESET)
 80055d8:	687b      	ldr	r3, [r7, #4]
 80055da:	681b      	ldr	r3, [r3, #0]
 80055dc:	4a1e      	ldr	r2, [pc, #120]	@ (8005658 <HAL_TIM_PWM_Start+0x138>)
 80055de:	4293      	cmp	r3, r2
 80055e0:	d107      	bne.n	80055f2 <HAL_TIM_PWM_Start+0xd2>
  {
    /* Enable the main output */
    __HAL_TIM_MOE_ENABLE(htim);
 80055e2:	687b      	ldr	r3, [r7, #4]
 80055e4:	681b      	ldr	r3, [r3, #0]
 80055e6:	6c5a      	ldr	r2, [r3, #68]	@ 0x44
 80055e8:	687b      	ldr	r3, [r7, #4]
 80055ea:	681b      	ldr	r3, [r3, #0]
 80055ec:	f442 4200 	orr.w	r2, r2, #32768	@ 0x8000
 80055f0:	645a      	str	r2, [r3, #68]	@ 0x44
  }

  /* Enable the Peripheral, except in trigger mode where enable is automatically done with trigger */
  if (IS_TIM_SLAVE_INSTANCE(htim->Instance))
 80055f2:	687b      	ldr	r3, [r7, #4]
 80055f4:	681b      	ldr	r3, [r3, #0]
 80055f6:	4a18      	ldr	r2, [pc, #96]	@ (8005658 <HAL_TIM_PWM_Start+0x138>)
 80055f8:	4293      	cmp	r3, r2
 80055fa:	d00e      	beq.n	800561a <HAL_TIM_PWM_Start+0xfa>
 80055fc:	687b      	ldr	r3, [r7, #4]
 80055fe:	681b      	ldr	r3, [r3, #0]
 8005600:	f1b3 4f80 	cmp.w	r3, #1073741824	@ 0x40000000
 8005604:	d009      	beq.n	800561a <HAL_TIM_PWM_Start+0xfa>
 8005606:	687b      	ldr	r3, [r7, #4]
 8005608:	681b      	ldr	r3, [r3, #0]
 800560a:	4a14      	ldr	r2, [pc, #80]	@ (800565c <HAL_TIM_PWM_Start+0x13c>)
 800560c:	4293      	cmp	r3, r2
 800560e:	d004      	beq.n	800561a <HAL_TIM_PWM_Start+0xfa>
 8005610:	687b      	ldr	r3, [r7, #4]
 8005612:	681b      	ldr	r3, [r3, #0]
 8005614:	4a12      	ldr	r2, [pc, #72]	@ (8005660 <HAL_TIM_PWM_Start+0x140>)
 8005616:	4293      	cmp	r3, r2
 8005618:	d111      	bne.n	800563e <HAL_TIM_PWM_Start+0x11e>
  {
    tmpsmcr = htim->Instance->SMCR & TIM_SMCR_SMS;
 800561a:	687b      	ldr	r3, [r7, #4]
 800561c:	681b      	ldr	r3, [r3, #0]
 800561e:	689b      	ldr	r3, [r3, #8]
 8005620:	f003 0307 	and.w	r3, r3, #7
 8005624:	60fb      	str	r3, [r7, #12]
    if (!IS_TIM_SLAVEMODE_TRIGGER_ENABLED(tmpsmcr))
 8005626:	68fb      	ldr	r3, [r7, #12]
 8005628:	2b06      	cmp	r3, #6
 800562a:	d010      	beq.n	800564e <HAL_TIM_PWM_Start+0x12e>
    {
      __HAL_TIM_ENABLE(htim);
 800562c:	687b      	ldr	r3, [r7, #4]
 800562e:	681b      	ldr	r3, [r3, #0]
 8005630:	681a      	ldr	r2, [r3, #0]
 8005632:	687b      	ldr	r3, [r7, #4]
 8005634:	681b      	ldr	r3, [r3, #0]
 8005636:	f042 0201 	orr.w	r2, r2, #1
 800563a:	601a      	str	r2, [r3, #0]
    if (!IS_TIM_SLAVEMODE_TRIGGER_ENABLED(tmpsmcr))
 800563c:	e007      	b.n	800564e <HAL_TIM_PWM_Start+0x12e>
    }
  }
  else
  {
    __HAL_TIM_ENABLE(htim);
 800563e:	687b      	ldr	r3, [r7, #4]
 8005640:	681b      	ldr	r3, [r3, #0]
 8005642:	681a      	ldr	r2, [r3, #0]
 8005644:	687b      	ldr	r3, [r7, #4]
 8005646:	681b      	ldr	r3, [r3, #0]
 8005648:	f042 0201 	orr.w	r2, r2, #1
 800564c:	601a      	str	r2, [r3, #0]
  }

  /* Return function status */
  return HAL_OK;
 800564e:	2300      	movs	r3, #0
}
 8005650:	4618      	mov	r0, r3
 8005652:	3710      	adds	r7, #16
 8005654:	46bd      	mov	sp, r7
 8005656:	bd80      	pop	{r7, pc}
 8005658:	40012c00 	.word	0x40012c00
 800565c:	40000400 	.word	0x40000400
 8005660:	40000800 	.word	0x40000800

08005664 <HAL_TIM_IRQHandler>:
  * @brief  This function handles TIM interrupts requests.
  * @param  htim TIM  handle
  * @retval None
  */
void HAL_TIM_IRQHandler(TIM_HandleTypeDef *htim)
{
 8005664:	b580      	push	{r7, lr}
 8005666:	b084      	sub	sp, #16
 8005668:	af00      	add	r7, sp, #0
 800566a:	6078      	str	r0, [r7, #4]
  uint32_t itsource = htim->Instance->DIER;
 800566c:	687b      	ldr	r3, [r7, #4]
 800566e:	681b      	ldr	r3, [r3, #0]
 8005670:	68db      	ldr	r3, [r3, #12]
 8005672:	60fb      	str	r3, [r7, #12]
  uint32_t itflag   = htim->Instance->SR;
 8005674:	687b      	ldr	r3, [r7, #4]
 8005676:	681b      	ldr	r3, [r3, #0]
 8005678:	691b      	ldr	r3, [r3, #16]
 800567a:	60bb      	str	r3, [r7, #8]

  /* Capture compare 1 event */
  if ((itflag & (TIM_FLAG_CC1)) == (TIM_FLAG_CC1))
 800567c:	68bb      	ldr	r3, [r7, #8]
 800567e:	f003 0302 	and.w	r3, r3, #2
 8005682:	2b00      	cmp	r3, #0
 8005684:	d020      	beq.n	80056c8 <HAL_TIM_IRQHandler+0x64>
  {
    if ((itsource & (TIM_IT_CC1)) == (TIM_IT_CC1))
 8005686:	68fb      	ldr	r3, [r7, #12]
 8005688:	f003 0302 	and.w	r3, r3, #2
 800568c:	2b00      	cmp	r3, #0
 800568e:	d01b      	beq.n	80056c8 <HAL_TIM_IRQHandler+0x64>
    {
      {
        __HAL_TIM_CLEAR_FLAG(htim, TIM_FLAG_CC1);
 8005690:	687b      	ldr	r3, [r7, #4]
 8005692:	681b      	ldr	r3, [r3, #0]
 8005694:	f06f 0202 	mvn.w	r2, #2
 8005698:	611a      	str	r2, [r3, #16]
        htim->Channel = HAL_TIM_ACTIVE_CHANNEL_1;
 800569a:	687b      	ldr	r3, [r7, #4]
 800569c:	2201      	movs	r2, #1
 800569e:	771a      	strb	r2, [r3, #28]

        /* Input capture event */
        if ((htim->Instance->CCMR1 & TIM_CCMR1_CC1S) != 0x00U)
 80056a0:	687b      	ldr	r3, [r7, #4]
 80056a2:	681b      	ldr	r3, [r3, #0]
 80056a4:	699b      	ldr	r3, [r3, #24]
 80056a6:	f003 0303 	and.w	r3, r3, #3
 80056aa:	2b00      	cmp	r3, #0
 80056ac:	d003      	beq.n	80056b6 <HAL_TIM_IRQHandler+0x52>
        {
#if (USE_HAL_TIM_REGISTER_CALLBACKS == 1)
          htim->IC_CaptureCallback(htim);
#else
          HAL_TIM_IC_CaptureCallback(htim);
 80056ae:	6878      	ldr	r0, [r7, #4]
 80056b0:	f000 f99c 	bl	80059ec <HAL_TIM_IC_CaptureCallback>
 80056b4:	e005      	b.n	80056c2 <HAL_TIM_IRQHandler+0x5e>
        {
#if (USE_HAL_TIM_REGISTER_CALLBACKS == 1)
          htim->OC_DelayElapsedCallback(htim);
          htim->PWM_PulseFinishedCallback(htim);
#else
          HAL_TIM_OC_DelayElapsedCallback(htim);
 80056b6:	6878      	ldr	r0, [r7, #4]
 80056b8:	f000 f98f 	bl	80059da <HAL_TIM_OC_DelayElapsedCallback>
          HAL_TIM_PWM_PulseFinishedCallback(htim);
 80056bc:	6878      	ldr	r0, [r7, #4]
 80056be:	f000 f99e 	bl	80059fe <HAL_TIM_PWM_PulseFinishedCallback>
#endif /* USE_HAL_TIM_REGISTER_CALLBACKS */
        }
        htim->Channel = HAL_TIM_ACTIVE_CHANNEL_CLEARED;
 80056c2:	687b      	ldr	r3, [r7, #4]
 80056c4:	2200      	movs	r2, #0
 80056c6:	771a      	strb	r2, [r3, #28]
      }
    }
  }
  /* Capture compare 2 event */
  if ((itflag & (TIM_FLAG_CC2)) == (TIM_FLAG_CC2))
 80056c8:	68bb      	ldr	r3, [r7, #8]
 80056ca:	f003 0304 	and.w	r3, r3, #4
 80056ce:	2b00      	cmp	r3, #0
 80056d0:	d020      	beq.n	8005714 <HAL_TIM_IRQHandler+0xb0>
  {
    if ((itsource & (TIM_IT_CC2)) == (TIM_IT_CC2))
 80056d2:	68fb      	ldr	r3, [r7, #12]
 80056d4:	f003 0304 	and.w	r3, r3, #4
 80056d8:	2b00      	cmp	r3, #0
 80056da:	d01b      	beq.n	8005714 <HAL_TIM_IRQHandler+0xb0>
    {
      __HAL_TIM_CLEAR_FLAG(htim, TIM_FLAG_CC2);
 80056dc:	687b      	ldr	r3, [r7, #4]
 80056de:	681b      	ldr	r3, [r3, #0]
 80056e0:	f06f 0204 	mvn.w	r2, #4
 80056e4:	611a      	str	r2, [r3, #16]
      htim->Channel = HAL_TIM_ACTIVE_CHANNEL_2;
 80056e6:	687b      	ldr	r3, [r7, #4]
 80056e8:	2202      	movs	r2, #2
 80056ea:	771a      	strb	r2, [r3, #28]
      /* Input capture event */
      if ((htim->Instance->CCMR1 & TIM_CCMR1_CC2S) != 0x00U)
 80056ec:	687b      	ldr	r3, [r7, #4]
 80056ee:	681b      	ldr	r3, [r3, #0]
 80056f0:	699b      	ldr	r3, [r3, #24]
 80056f2:	f403 7340 	and.w	r3, r3, #768	@ 0x300
 80056f6:	2b00      	cmp	r3, #0
 80056f8:	d003      	beq.n	8005702 <HAL_TIM_IRQHandler+0x9e>
      {
#if (USE_HAL_TIM_REGISTER_CALLBACKS == 1)
        htim->IC_CaptureCallback(htim);
#else
        HAL_TIM_IC_CaptureCallback(htim);
 80056fa:	6878      	ldr	r0, [r7, #4]
 80056fc:	f000 f976 	bl	80059ec <HAL_TIM_IC_CaptureCallback>
 8005700:	e005      	b.n	800570e <HAL_TIM_IRQHandler+0xaa>
      {
#if (USE_HAL_TIM_REGISTER_CALLBACKS == 1)
        htim->OC_DelayElapsedCallback(htim);
        htim->PWM_PulseFinishedCallback(htim);
#else
        HAL_TIM_OC_DelayElapsedCallback(htim);
 8005702:	6878      	ldr	r0, [r7, #4]
 8005704:	f000 f969 	bl	80059da <HAL_TIM_OC_DelayElapsedCallback>
        HAL_TIM_PWM_PulseFinishedCallback(htim);
 8005708:	6878      	ldr	r0, [r7, #4]
 800570a:	f000 f978 	bl	80059fe <HAL_TIM_PWM_PulseFinishedCallback>
#endif /* USE_HAL_TIM_REGISTER_CALLBACKS */
      }
      htim->Channel = HAL_TIM_ACTIVE_CHANNEL_CLEARED;
 800570e:	687b      	ldr	r3, [r7, #4]
 8005710:	2200      	movs	r2, #0
 8005712:	771a      	strb	r2, [r3, #28]
    }
  }
  /* Capture compare 3 event */
  if ((itflag & (TIM_FLAG_CC3)) == (TIM_FLAG_CC3))
 8005714:	68bb      	ldr	r3, [r7, #8]
 8005716:	f003 0308 	and.w	r3, r3, #8
 800571a:	2b00      	cmp	r3, #0
 800571c:	d020      	beq.n	8005760 <HAL_TIM_IRQHandler+0xfc>
  {
    if ((itsource & (TIM_IT_CC3)) == (TIM_IT_CC3))
 800571e:	68fb      	ldr	r3, [r7, #12]
 8005720:	f003 0308 	and.w	r3, r3, #8
 8005724:	2b00      	cmp	r3, #0
 8005726:	d01b      	beq.n	8005760 <HAL_TIM_IRQHandler+0xfc>
    {
      __HAL_TIM_CLEAR_FLAG(htim, TIM_FLAG_CC3);
 8005728:	687b      	ldr	r3, [r7, #4]
 800572a:	681b      	ldr	r3, [r3, #0]
 800572c:	f06f 0208 	mvn.w	r2, #8
 8005730:	611a      	str	r2, [r3, #16]
      htim->Channel = HAL_TIM_ACTIVE_CHANNEL_3;
 8005732:	687b      	ldr	r3, [r7, #4]
 8005734:	2204      	movs	r2, #4
 8005736:	771a      	strb	r2, [r3, #28]
      /* Input capture event */
      if ((htim->Instance->CCMR2 & TIM_CCMR2_CC3S) != 0x00U)
 8005738:	687b      	ldr	r3, [r7, #4]
 800573a:	681b      	ldr	r3, [r3, #0]
 800573c:	69db      	ldr	r3, [r3, #28]
 800573e:	f003 0303 	and.w	r3, r3, #3
 8005742:	2b00      	cmp	r3, #0
 8005744:	d003      	beq.n	800574e <HAL_TIM_IRQHandler+0xea>
      {
#if (USE_HAL_TIM_REGISTER_CALLBACKS == 1)
        htim->IC_CaptureCallback(htim);
#else
        HAL_TIM_IC_CaptureCallback(htim);
 8005746:	6878      	ldr	r0, [r7, #4]
 8005748:	f000 f950 	bl	80059ec <HAL_TIM_IC_CaptureCallback>
 800574c:	e005      	b.n	800575a <HAL_TIM_IRQHandler+0xf6>
      {
#if (USE_HAL_TIM_REGISTER_CALLBACKS == 1)
        htim->OC_DelayElapsedCallback(htim);
        htim->PWM_PulseFinishedCallback(htim);
#else
        HAL_TIM_OC_DelayElapsedCallback(htim);
 800574e:	6878      	ldr	r0, [r7, #4]
 8005750:	f000 f943 	bl	80059da <HAL_TIM_OC_DelayElapsedCallback>
        HAL_TIM_PWM_PulseFinishedCallback(htim);
 8005754:	6878      	ldr	r0, [r7, #4]
 8005756:	f000 f952 	bl	80059fe <HAL_TIM_PWM_PulseFinishedCallback>
#endif /* USE_HAL_TIM_REGISTER_CALLBACKS */
      }
      htim->Channel = HAL_TIM_ACTIVE_CHANNEL_CLEARED;
 800575a:	687b      	ldr	r3, [r7, #4]
 800575c:	2200      	movs	r2, #0
 800575e:	771a      	strb	r2, [r3, #28]
    }
  }
  /* Capture compare 4 event */
  if ((itflag & (TIM_FLAG_CC4)) == (TIM_FLAG_CC4))
 8005760:	68bb      	ldr	r3, [r7, #8]
 8005762:	f003 0310 	and.w	r3, r3, #16
 8005766:	2b00      	cmp	r3, #0
 8005768:	d020      	beq.n	80057ac <HAL_TIM_IRQHandler+0x148>
  {
    if ((itsource & (TIM_IT_CC4)) == (TIM_IT_CC4))
 800576a:	68fb      	ldr	r3, [r7, #12]
 800576c:	f003 0310 	and.w	r3, r3, #16
 8005770:	2b00      	cmp	r3, #0
 8005772:	d01b      	beq.n	80057ac <HAL_TIM_IRQHandler+0x148>
    {
      __HAL_TIM_CLEAR_FLAG(htim, TIM_FLAG_CC4);
 8005774:	687b      	ldr	r3, [r7, #4]
 8005776:	681b      	ldr	r3, [r3, #0]
 8005778:	f06f 0210 	mvn.w	r2, #16
 800577c:	611a      	str	r2, [r3, #16]
      htim->Channel = HAL_TIM_ACTIVE_CHANNEL_4;
 800577e:	687b      	ldr	r3, [r7, #4]
 8005780:	2208      	movs	r2, #8
 8005782:	771a      	strb	r2, [r3, #28]
      /* Input capture event */
      if ((htim->Instance->CCMR2 & TIM_CCMR2_CC4S) != 0x00U)
 8005784:	687b      	ldr	r3, [r7, #4]
 8005786:	681b      	ldr	r3, [r3, #0]
 8005788:	69db      	ldr	r3, [r3, #28]
 800578a:	f403 7340 	and.w	r3, r3, #768	@ 0x300
 800578e:	2b00      	cmp	r3, #0
 8005790:	d003      	beq.n	800579a <HAL_TIM_IRQHandler+0x136>
      {
#if (USE_HAL_TIM_REGISTER_CALLBACKS == 1)
        htim->IC_CaptureCallback(htim);
#else
        HAL_TIM_IC_CaptureCallback(htim);
 8005792:	6878      	ldr	r0, [r7, #4]
 8005794:	f000 f92a 	bl	80059ec <HAL_TIM_IC_CaptureCallback>
 8005798:	e005      	b.n	80057a6 <HAL_TIM_IRQHandler+0x142>
      {
#if (USE_HAL_TIM_REGISTER_CALLBACKS == 1)
        htim->OC_DelayElapsedCallback(htim);
        htim->PWM_PulseFinishedCallback(htim);
#else
        HAL_TIM_OC_DelayElapsedCallback(htim);
 800579a:	6878      	ldr	r0, [r7, #4]
 800579c:	f000 f91d 	bl	80059da <HAL_TIM_OC_DelayElapsedCallback>
        HAL_TIM_PWM_PulseFinishedCallback(htim);
 80057a0:	6878      	ldr	r0, [r7, #4]
 80057a2:	f000 f92c 	bl	80059fe <HAL_TIM_PWM_PulseFinishedCallback>
#endif /* USE_HAL_TIM_REGISTER_CALLBACKS */
      }
      htim->Channel = HAL_TIM_ACTIVE_CHANNEL_CLEARED;
 80057a6:	687b      	ldr	r3, [r7, #4]
 80057a8:	2200      	movs	r2, #0
 80057aa:	771a      	strb	r2, [r3, #28]
    }
  }
  /* TIM Update event */
  if ((itflag & (TIM_FLAG_UPDATE)) == (TIM_FLAG_UPDATE))
 80057ac:	68bb      	ldr	r3, [r7, #8]
 80057ae:	f003 0301 	and.w	r3, r3, #1
 80057b2:	2b00      	cmp	r3, #0
 80057b4:	d00c      	beq.n	80057d0 <HAL_TIM_IRQHandler+0x16c>
  {
    if ((itsource & (TIM_IT_UPDATE)) == (TIM_IT_UPDATE))
 80057b6:	68fb      	ldr	r3, [r7, #12]
 80057b8:	f003 0301 	and.w	r3, r3, #1
 80057bc:	2b00      	cmp	r3, #0
 80057be:	d007      	beq.n	80057d0 <HAL_TIM_IRQHandler+0x16c>
    {
      __HAL_TIM_CLEAR_FLAG(htim, TIM_FLAG_UPDATE);
 80057c0:	687b      	ldr	r3, [r7, #4]
 80057c2:	681b      	ldr	r3, [r3, #0]
 80057c4:	f06f 0201 	mvn.w	r2, #1
 80057c8:	611a      	str	r2, [r3, #16]
#if (USE_HAL_TIM_REGISTER_CALLBACKS == 1)
      htim->PeriodElapsedCallback(htim);
#else
      HAL_TIM_PeriodElapsedCallback(htim);
 80057ca:	6878      	ldr	r0, [r7, #4]
 80057cc:	f000 f8fc 	bl	80059c8 <HAL_TIM_PeriodElapsedCallback>
#endif /* USE_HAL_TIM_REGISTER_CALLBACKS */
    }
  }
  /* TIM Break input event */
  if ((itflag & (TIM_FLAG_BREAK)) == (TIM_FLAG_BREAK))
 80057d0:	68bb      	ldr	r3, [r7, #8]
 80057d2:	f003 0380 	and.w	r3, r3, #128	@ 0x80
 80057d6:	2b00      	cmp	r3, #0
 80057d8:	d00c      	beq.n	80057f4 <HAL_TIM_IRQHandler+0x190>
  {
    if ((itsource & (TIM_IT_BREAK)) == (TIM_IT_BREAK))
 80057da:	68fb      	ldr	r3, [r7, #12]
 80057dc:	f003 0380 	and.w	r3, r3, #128	@ 0x80
 80057e0:	2b00      	cmp	r3, #0
 80057e2:	d007      	beq.n	80057f4 <HAL_TIM_IRQHandler+0x190>
    {
      __HAL_TIM_CLEAR_FLAG(htim, TIM_FLAG_BREAK);
 80057e4:	687b      	ldr	r3, [r7, #4]
 80057e6:	681b      	ldr	r3, [r3, #0]
 80057e8:	f06f 0280 	mvn.w	r2, #128	@ 0x80
 80057ec:	611a      	str	r2, [r3, #16]
#if (USE_HAL_TIM_REGISTER_CALLBACKS == 1)
      htim->BreakCallback(htim);
#else
      HAL_TIMEx_BreakCallback(htim);
 80057ee:	6878      	ldr	r0, [r7, #4]
 80057f0:	f000 fb99 	bl	8005f26 <HAL_TIMEx_BreakCallback>
#endif /* USE_HAL_TIM_REGISTER_CALLBACKS */
    }
  }
  /* TIM Trigger detection event */
  if ((itflag & (TIM_FLAG_TRIGGER)) == (TIM_FLAG_TRIGGER))
 80057f4:	68bb      	ldr	r3, [r7, #8]
 80057f6:	f003 0340 	and.w	r3, r3, #64	@ 0x40
 80057fa:	2b00      	cmp	r3, #0
 80057fc:	d00c      	beq.n	8005818 <HAL_TIM_IRQHandler+0x1b4>
  {
    if ((itsource & (TIM_IT_TRIGGER)) == (TIM_IT_TRIGGER))
 80057fe:	68fb      	ldr	r3, [r7, #12]
 8005800:	f003 0340 	and.w	r3, r3, #64	@ 0x40
 8005804:	2b00      	cmp	r3, #0
 8005806:	d007      	beq.n	8005818 <HAL_TIM_IRQHandler+0x1b4>
    {
      __HAL_TIM_CLEAR_FLAG(htim, TIM_FLAG_TRIGGER);
 8005808:	687b      	ldr	r3, [r7, #4]
 800580a:	681b      	ldr	r3, [r3, #0]
 800580c:	f06f 0240 	mvn.w	r2, #64	@ 0x40
 8005810:	611a      	str	r2, [r3, #16]
#if (USE_HAL_TIM_REGISTER_CALLBACKS == 1)
      htim->TriggerCallback(htim);
#else
      HAL_TIM_TriggerCallback(htim);
 8005812:	6878      	ldr	r0, [r7, #4]
 8005814:	f000 f8fc 	bl	8005a10 <HAL_TIM_TriggerCallback>
#endif /* USE_HAL_TIM_REGISTER_CALLBACKS */
    }
  }
  /* TIM commutation event */
  if ((itflag & (TIM_FLAG_COM)) == (TIM_FLAG_COM))
 8005818:	68bb      	ldr	r3, [r7, #8]
 800581a:	f003 0320 	and.w	r3, r3, #32
 800581e:	2b00      	cmp	r3, #0
 8005820:	d00c      	beq.n	800583c <HAL_TIM_IRQHandler+0x1d8>
  {
    if ((itsource & (TIM_IT_COM)) == (TIM_IT_COM))
 8005822:	68fb      	ldr	r3, [r7, #12]
 8005824:	f003 0320 	and.w	r3, r3, #32
 8005828:	2b00      	cmp	r3, #0
 800582a:	d007      	beq.n	800583c <HAL_TIM_IRQHandler+0x1d8>
    {
      __HAL_TIM_CLEAR_FLAG(htim, TIM_FLAG_COM);
 800582c:	687b      	ldr	r3, [r7, #4]
 800582e:	681b      	ldr	r3, [r3, #0]
 8005830:	f06f 0220 	mvn.w	r2, #32
 8005834:	611a      	str	r2, [r3, #16]
#if (USE_HAL_TIM_REGISTER_CALLBACKS == 1)
      htim->CommutationCallback(htim);
#else
      HAL_TIMEx_CommutCallback(htim);
 8005836:	6878      	ldr	r0, [r7, #4]
 8005838:	f000 fb6c 	bl	8005f14 <HAL_TIMEx_CommutCallback>
#endif /* USE_HAL_TIM_REGISTER_CALLBACKS */
    }
  }
}
 800583c:	bf00      	nop
 800583e:	3710      	adds	r7, #16
 8005840:	46bd      	mov	sp, r7
 8005842:	bd80      	pop	{r7, pc}

08005844 <HAL_TIM_PWM_ConfigChannel>:
  * @retval HAL status
  */
HAL_StatusTypeDef HAL_TIM_PWM_ConfigChannel(TIM_HandleTypeDef *htim,
                                            const TIM_OC_InitTypeDef *sConfig,
                                            uint32_t Channel)
{
 8005844:	b580      	push	{r7, lr}
 8005846:	b086      	sub	sp, #24
 8005848:	af00      	add	r7, sp, #0
 800584a:	60f8      	str	r0, [r7, #12]
 800584c:	60b9      	str	r1, [r7, #8]
 800584e:	607a      	str	r2, [r7, #4]
  HAL_StatusTypeDef status = HAL_OK;
 8005850:	2300      	movs	r3, #0
 8005852:	75fb      	strb	r3, [r7, #23]
  assert_param(IS_TIM_PWM_MODE(sConfig->OCMode));
  assert_param(IS_TIM_OC_POLARITY(sConfig->OCPolarity));
  assert_param(IS_TIM_FAST_STATE(sConfig->OCFastMode));

  /* Process Locked */
  __HAL_LOCK(htim);
 8005854:	68fb      	ldr	r3, [r7, #12]
 8005856:	f893 303c 	ldrb.w	r3, [r3, #60]	@ 0x3c
 800585a:	2b01      	cmp	r3, #1
 800585c:	d101      	bne.n	8005862 <HAL_TIM_PWM_ConfigChannel+0x1e>
 800585e:	2302      	movs	r3, #2
 8005860:	e0ae      	b.n	80059c0 <HAL_TIM_PWM_ConfigChannel+0x17c>
 8005862:	68fb      	ldr	r3, [r7, #12]
 8005864:	2201      	movs	r2, #1
 8005866:	f883 203c 	strb.w	r2, [r3, #60]	@ 0x3c

  switch (Channel)
 800586a:	687b      	ldr	r3, [r7, #4]
 800586c:	2b0c      	cmp	r3, #12
 800586e:	f200 809f 	bhi.w	80059b0 <HAL_TIM_PWM_ConfigChannel+0x16c>
 8005872:	a201      	add	r2, pc, #4	@ (adr r2, 8005878 <HAL_TIM_PWM_ConfigChannel+0x34>)
 8005874:	f852 f023 	ldr.w	pc, [r2, r3, lsl #2]
 8005878:	080058ad 	.word	0x080058ad
 800587c:	080059b1 	.word	0x080059b1
 8005880:	080059b1 	.word	0x080059b1
 8005884:	080059b1 	.word	0x080059b1
 8005888:	080058ed 	.word	0x080058ed
 800588c:	080059b1 	.word	0x080059b1
 8005890:	080059b1 	.word	0x080059b1
 8005894:	080059b1 	.word	0x080059b1
 8005898:	0800592f 	.word	0x0800592f
 800589c:	080059b1 	.word	0x080059b1
 80058a0:	080059b1 	.word	0x080059b1
 80058a4:	080059b1 	.word	0x080059b1
 80058a8:	0800596f 	.word	0x0800596f
    {
      /* Check the parameters */
      assert_param(IS_TIM_CC1_INSTANCE(htim->Instance));

      /* Configure the Channel 1 in PWM mode */
      TIM_OC1_SetConfig(htim->Instance, sConfig);
 80058ac:	68fb      	ldr	r3, [r7, #12]
 80058ae:	681b      	ldr	r3, [r3, #0]
 80058b0:	68b9      	ldr	r1, [r7, #8]
 80058b2:	4618      	mov	r0, r3
 80058b4:	f000 f924 	bl	8005b00 <TIM_OC1_SetConfig>

      /* Set the Preload enable bit for channel1 */
      htim->Instance->CCMR1 |= TIM_CCMR1_OC1PE;
 80058b8:	68fb      	ldr	r3, [r7, #12]
 80058ba:	681b      	ldr	r3, [r3, #0]
 80058bc:	699a      	ldr	r2, [r3, #24]
 80058be:	68fb      	ldr	r3, [r7, #12]
 80058c0:	681b      	ldr	r3, [r3, #0]
 80058c2:	f042 0208 	orr.w	r2, r2, #8
 80058c6:	619a      	str	r2, [r3, #24]

      /* Configure the Output Fast mode */
      htim->Instance->CCMR1 &= ~TIM_CCMR1_OC1FE;
 80058c8:	68fb      	ldr	r3, [r7, #12]
 80058ca:	681b      	ldr	r3, [r3, #0]
 80058cc:	699a      	ldr	r2, [r3, #24]
 80058ce:	68fb      	ldr	r3, [r7, #12]
 80058d0:	681b      	ldr	r3, [r3, #0]
 80058d2:	f022 0204 	bic.w	r2, r2, #4
 80058d6:	619a      	str	r2, [r3, #24]
      htim->Instance->CCMR1 |= sConfig->OCFastMode;
 80058d8:	68fb      	ldr	r3, [r7, #12]
 80058da:	681b      	ldr	r3, [r3, #0]
 80058dc:	6999      	ldr	r1, [r3, #24]
 80058de:	68bb      	ldr	r3, [r7, #8]
 80058e0:	691a      	ldr	r2, [r3, #16]
 80058e2:	68fb      	ldr	r3, [r7, #12]
 80058e4:	681b      	ldr	r3, [r3, #0]
 80058e6:	430a      	orrs	r2, r1
 80058e8:	619a      	str	r2, [r3, #24]
      break;
 80058ea:	e064      	b.n	80059b6 <HAL_TIM_PWM_ConfigChannel+0x172>
    {
      /* Check the parameters */
      assert_param(IS_TIM_CC2_INSTANCE(htim->Instance));

      /* Configure the Channel 2 in PWM mode */
      TIM_OC2_SetConfig(htim->Instance, sConfig);
 80058ec:	68fb      	ldr	r3, [r7, #12]
 80058ee:	681b      	ldr	r3, [r3, #0]
 80058f0:	68b9      	ldr	r1, [r7, #8]
 80058f2:	4618      	mov	r0, r3
 80058f4:	f000 f96a 	bl	8005bcc <TIM_OC2_SetConfig>

      /* Set the Preload enable bit for channel2 */
      htim->Instance->CCMR1 |= TIM_CCMR1_OC2PE;
 80058f8:	68fb      	ldr	r3, [r7, #12]
 80058fa:	681b      	ldr	r3, [r3, #0]
 80058fc:	699a      	ldr	r2, [r3, #24]
 80058fe:	68fb      	ldr	r3, [r7, #12]
 8005900:	681b      	ldr	r3, [r3, #0]
 8005902:	f442 6200 	orr.w	r2, r2, #2048	@ 0x800
 8005906:	619a      	str	r2, [r3, #24]

      /* Configure the Output Fast mode */
      htim->Instance->CCMR1 &= ~TIM_CCMR1_OC2FE;
 8005908:	68fb      	ldr	r3, [r7, #12]
 800590a:	681b      	ldr	r3, [r3, #0]
 800590c:	699a      	ldr	r2, [r3, #24]
 800590e:	68fb      	ldr	r3, [r7, #12]
 8005910:	681b      	ldr	r3, [r3, #0]
 8005912:	f422 6280 	bic.w	r2, r2, #1024	@ 0x400
 8005916:	619a      	str	r2, [r3, #24]
      htim->Instance->CCMR1 |= sConfig->OCFastMode << 8U;
 8005918:	68fb      	ldr	r3, [r7, #12]
 800591a:	681b      	ldr	r3, [r3, #0]
 800591c:	6999      	ldr	r1, [r3, #24]
 800591e:	68bb      	ldr	r3, [r7, #8]
 8005920:	691b      	ldr	r3, [r3, #16]
 8005922:	021a      	lsls	r2, r3, #8
 8005924:	68fb      	ldr	r3, [r7, #12]
 8005926:	681b      	ldr	r3, [r3, #0]
 8005928:	430a      	orrs	r2, r1
 800592a:	619a      	str	r2, [r3, #24]
      break;
 800592c:	e043      	b.n	80059b6 <HAL_TIM_PWM_ConfigChannel+0x172>
    {
      /* Check the parameters */
      assert_param(IS_TIM_CC3_INSTANCE(htim->Instance));

      /* Configure the Channel 3 in PWM mode */
      TIM_OC3_SetConfig(htim->Instance, sConfig);
 800592e:	68fb      	ldr	r3, [r7, #12]
 8005930:	681b      	ldr	r3, [r3, #0]
 8005932:	68b9      	ldr	r1, [r7, #8]
 8005934:	4618      	mov	r0, r3
 8005936:	f000 f9b3 	bl	8005ca0 <TIM_OC3_SetConfig>

      /* Set the Preload enable bit for channel3 */
      htim->Instance->CCMR2 |= TIM_CCMR2_OC3PE;
 800593a:	68fb      	ldr	r3, [r7, #12]
 800593c:	681b      	ldr	r3, [r3, #0]
 800593e:	69da      	ldr	r2, [r3, #28]
 8005940:	68fb      	ldr	r3, [r7, #12]
 8005942:	681b      	ldr	r3, [r3, #0]
 8005944:	f042 0208 	orr.w	r2, r2, #8
 8005948:	61da      	str	r2, [r3, #28]

      /* Configure the Output Fast mode */
      htim->Instance->CCMR2 &= ~TIM_CCMR2_OC3FE;
 800594a:	68fb      	ldr	r3, [r7, #12]
 800594c:	681b      	ldr	r3, [r3, #0]
 800594e:	69da      	ldr	r2, [r3, #28]
 8005950:	68fb      	ldr	r3, [r7, #12]
 8005952:	681b      	ldr	r3, [r3, #0]
 8005954:	f022 0204 	bic.w	r2, r2, #4
 8005958:	61da      	str	r2, [r3, #28]
      htim->Instance->CCMR2 |= sConfig->OCFastMode;
 800595a:	68fb      	ldr	r3, [r7, #12]
 800595c:	681b      	ldr	r3, [r3, #0]
 800595e:	69d9      	ldr	r1, [r3, #28]
 8005960:	68bb      	ldr	r3, [r7, #8]
 8005962:	691a      	ldr	r2, [r3, #16]
 8005964:	68fb      	ldr	r3, [r7, #12]
 8005966:	681b      	ldr	r3, [r3, #0]
 8005968:	430a      	orrs	r2, r1
 800596a:	61da      	str	r2, [r3, #28]
      break;
 800596c:	e023      	b.n	80059b6 <HAL_TIM_PWM_ConfigChannel+0x172>
    {
      /* Check the parameters */
      assert_param(IS_TIM_CC4_INSTANCE(htim->Instance));

      /* Configure the Channel 4 in PWM mode */
      TIM_OC4_SetConfig(htim->Instance, sConfig);
 800596e:	68fb      	ldr	r3, [r7, #12]
 8005970:	681b      	ldr	r3, [r3, #0]
 8005972:	68b9      	ldr	r1, [r7, #8]
 8005974:	4618      	mov	r0, r3
 8005976:	f000 f9fd 	bl	8005d74 <TIM_OC4_SetConfig>

      /* Set the Preload enable bit for channel4 */
      htim->Instance->CCMR2 |= TIM_CCMR2_OC4PE;
 800597a:	68fb      	ldr	r3, [r7, #12]
 800597c:	681b      	ldr	r3, [r3, #0]
 800597e:	69da      	ldr	r2, [r3, #28]
 8005980:	68fb      	ldr	r3, [r7, #12]
 8005982:	681b      	ldr	r3, [r3, #0]
 8005984:	f442 6200 	orr.w	r2, r2, #2048	@ 0x800
 8005988:	61da      	str	r2, [r3, #28]

      /* Configure the Output Fast mode */
      htim->Instance->CCMR2 &= ~TIM_CCMR2_OC4FE;
 800598a:	68fb      	ldr	r3, [r7, #12]
 800598c:	681b      	ldr	r3, [r3, #0]
 800598e:	69da      	ldr	r2, [r3, #28]
 8005990:	68fb      	ldr	r3, [r7, #12]
 8005992:	681b      	ldr	r3, [r3, #0]
 8005994:	f422 6280 	bic.w	r2, r2, #1024	@ 0x400
 8005998:	61da      	str	r2, [r3, #28]
      htim->Instance->CCMR2 |= sConfig->OCFastMode << 8U;
 800599a:	68fb      	ldr	r3, [r7, #12]
 800599c:	681b      	ldr	r3, [r3, #0]
 800599e:	69d9      	ldr	r1, [r3, #28]
 80059a0:	68bb      	ldr	r3, [r7, #8]
 80059a2:	691b      	ldr	r3, [r3, #16]
 80059a4:	021a      	lsls	r2, r3, #8
 80059a6:	68fb      	ldr	r3, [r7, #12]
 80059a8:	681b      	ldr	r3, [r3, #0]
 80059aa:	430a      	orrs	r2, r1
 80059ac:	61da      	str	r2, [r3, #28]
      break;
 80059ae:	e002      	b.n	80059b6 <HAL_TIM_PWM_ConfigChannel+0x172>
    }

    default:
      status = HAL_ERROR;
 80059b0:	2301      	movs	r3, #1
 80059b2:	75fb      	strb	r3, [r7, #23]
      break;
 80059b4:	bf00      	nop
  }

  __HAL_UNLOCK(htim);
 80059b6:	68fb      	ldr	r3, [r7, #12]
 80059b8:	2200      	movs	r2, #0
 80059ba:	f883 203c 	strb.w	r2, [r3, #60]	@ 0x3c

  return status;
 80059be:	7dfb      	ldrb	r3, [r7, #23]
}
 80059c0:	4618      	mov	r0, r3
 80059c2:	3718      	adds	r7, #24
 80059c4:	46bd      	mov	sp, r7
 80059c6:	bd80      	pop	{r7, pc}

080059c8 <HAL_TIM_PeriodElapsedCallback>:
  * @brief  Period elapsed callback in non-blocking mode
  * @param  htim TIM handle
  * @retval None
  */
__weak void HAL_TIM_PeriodElapsedCallback(TIM_HandleTypeDef *htim)
{
 80059c8:	b480      	push	{r7}
 80059ca:	b083      	sub	sp, #12
 80059cc:	af00      	add	r7, sp, #0
 80059ce:	6078      	str	r0, [r7, #4]
  UNUSED(htim);

  /* NOTE : This function should not be modified, when the callback is needed,
            the HAL_TIM_PeriodElapsedCallback could be implemented in the user file
   */
}
 80059d0:	bf00      	nop
 80059d2:	370c      	adds	r7, #12
 80059d4:	46bd      	mov	sp, r7
 80059d6:	bc80      	pop	{r7}
 80059d8:	4770      	bx	lr

080059da <HAL_TIM_OC_DelayElapsedCallback>:
  * @brief  Output Compare callback in non-blocking mode
  * @param  htim TIM OC handle
  * @retval None
  */
__weak void HAL_TIM_OC_DelayElapsedCallback(TIM_HandleTypeDef *htim)
{
 80059da:	b480      	push	{r7}
 80059dc:	b083      	sub	sp, #12
 80059de:	af00      	add	r7, sp, #0
 80059e0:	6078      	str	r0, [r7, #4]
  UNUSED(htim);

  /* NOTE : This function should not be modified, when the callback is needed,
            the HAL_TIM_OC_DelayElapsedCallback could be implemented in the user file
   */
}
 80059e2:	bf00      	nop
 80059e4:	370c      	adds	r7, #12
 80059e6:	46bd      	mov	sp, r7
 80059e8:	bc80      	pop	{r7}
 80059ea:	4770      	bx	lr

080059ec <HAL_TIM_IC_CaptureCallback>:
  * @brief  Input Capture callback in non-blocking mode
  * @param  htim TIM IC handle
  * @retval None
  */
__weak void HAL_TIM_IC_CaptureCallback(TIM_HandleTypeDef *htim)
{
 80059ec:	b480      	push	{r7}
 80059ee:	b083      	sub	sp, #12
 80059f0:	af00      	add	r7, sp, #0
 80059f2:	6078      	str	r0, [r7, #4]
  UNUSED(htim);

  /* NOTE : This function should not be modified, when the callback is needed,
            the HAL_TIM_IC_CaptureCallback could be implemented in the user file
   */
}
 80059f4:	bf00      	nop
 80059f6:	370c      	adds	r7, #12
 80059f8:	46bd      	mov	sp, r7
 80059fa:	bc80      	pop	{r7}
 80059fc:	4770      	bx	lr

080059fe <HAL_TIM_PWM_PulseFinishedCallback>:
  * @brief  PWM Pulse finished callback in non-blocking mode
  * @param  htim TIM handle
  * @retval None
  */
__weak void HAL_TIM_PWM_PulseFinishedCallback(TIM_HandleTypeDef *htim)
{
 80059fe:	b480      	push	{r7}
 8005a00:	b083      	sub	sp, #12
 8005a02:	af00      	add	r7, sp, #0
 8005a04:	6078      	str	r0, [r7, #4]
  UNUSED(htim);

  /* NOTE : This function should not be modified, when the callback is needed,
            the HAL_TIM_PWM_PulseFinishedCallback could be implemented in the user file
   */
}
 8005a06:	bf00      	nop
 8005a08:	370c      	adds	r7, #12
 8005a0a:	46bd      	mov	sp, r7
 8005a0c:	bc80      	pop	{r7}
 8005a0e:	4770      	bx	lr

08005a10 <HAL_TIM_TriggerCallback>:
  * @brief  Hall Trigger detection callback in non-blocking mode
  * @param  htim TIM handle
  * @retval None
  */
__weak void HAL_TIM_TriggerCallback(TIM_HandleTypeDef *htim)
{
 8005a10:	b480      	push	{r7}
 8005a12:	b083      	sub	sp, #12
 8005a14:	af00      	add	r7, sp, #0
 8005a16:	6078      	str	r0, [r7, #4]
  UNUSED(htim);

  /* NOTE : This function should not be modified, when the callback is needed,
            the HAL_TIM_TriggerCallback could be implemented in the user file
   */
}
 8005a18:	bf00      	nop
 8005a1a:	370c      	adds	r7, #12
 8005a1c:	46bd      	mov	sp, r7
 8005a1e:	bc80      	pop	{r7}
 8005a20:	4770      	bx	lr
	...

08005a24 <TIM_Base_SetConfig>:
  * @param  TIMx TIM peripheral
  * @param  Structure TIM Base configuration structure
  * @retval None
  */
void TIM_Base_SetConfig(TIM_TypeDef *TIMx, const TIM_Base_InitTypeDef *Structure)
{
 8005a24:	b480      	push	{r7}
 8005a26:	b085      	sub	sp, #20
 8005a28:	af00      	add	r7, sp, #0
 8005a2a:	6078      	str	r0, [r7, #4]
 8005a2c:	6039      	str	r1, [r7, #0]
  uint32_t tmpcr1;
  tmpcr1 = TIMx->CR1;
 8005a2e:	687b      	ldr	r3, [r7, #4]
 8005a30:	681b      	ldr	r3, [r3, #0]
 8005a32:	60fb      	str	r3, [r7, #12]

  /* Set TIM Time Base Unit parameters ---------------------------------------*/
  if (IS_TIM_COUNTER_MODE_SELECT_INSTANCE(TIMx))
 8005a34:	687b      	ldr	r3, [r7, #4]
 8005a36:	4a2f      	ldr	r2, [pc, #188]	@ (8005af4 <TIM_Base_SetConfig+0xd0>)
 8005a38:	4293      	cmp	r3, r2
 8005a3a:	d00b      	beq.n	8005a54 <TIM_Base_SetConfig+0x30>
 8005a3c:	687b      	ldr	r3, [r7, #4]
 8005a3e:	f1b3 4f80 	cmp.w	r3, #1073741824	@ 0x40000000
 8005a42:	d007      	beq.n	8005a54 <TIM_Base_SetConfig+0x30>
 8005a44:	687b      	ldr	r3, [r7, #4]
 8005a46:	4a2c      	ldr	r2, [pc, #176]	@ (8005af8 <TIM_Base_SetConfig+0xd4>)
 8005a48:	4293      	cmp	r3, r2
 8005a4a:	d003      	beq.n	8005a54 <TIM_Base_SetConfig+0x30>
 8005a4c:	687b      	ldr	r3, [r7, #4]
 8005a4e:	4a2b      	ldr	r2, [pc, #172]	@ (8005afc <TIM_Base_SetConfig+0xd8>)
 8005a50:	4293      	cmp	r3, r2
 8005a52:	d108      	bne.n	8005a66 <TIM_Base_SetConfig+0x42>
  {
    /* Select the Counter Mode */
    tmpcr1 &= ~(TIM_CR1_DIR | TIM_CR1_CMS);
 8005a54:	68fb      	ldr	r3, [r7, #12]
 8005a56:	f023 0370 	bic.w	r3, r3, #112	@ 0x70
 8005a5a:	60fb      	str	r3, [r7, #12]
    tmpcr1 |= Structure->CounterMode;
 8005a5c:	683b      	ldr	r3, [r7, #0]
 8005a5e:	685b      	ldr	r3, [r3, #4]
 8005a60:	68fa      	ldr	r2, [r7, #12]
 8005a62:	4313      	orrs	r3, r2
 8005a64:	60fb      	str	r3, [r7, #12]
  }

  if (IS_TIM_CLOCK_DIVISION_INSTANCE(TIMx))
 8005a66:	687b      	ldr	r3, [r7, #4]
 8005a68:	4a22      	ldr	r2, [pc, #136]	@ (8005af4 <TIM_Base_SetConfig+0xd0>)
 8005a6a:	4293      	cmp	r3, r2
 8005a6c:	d00b      	beq.n	8005a86 <TIM_Base_SetConfig+0x62>
 8005a6e:	687b      	ldr	r3, [r7, #4]
 8005a70:	f1b3 4f80 	cmp.w	r3, #1073741824	@ 0x40000000
 8005a74:	d007      	beq.n	8005a86 <TIM_Base_SetConfig+0x62>
 8005a76:	687b      	ldr	r3, [r7, #4]
 8005a78:	4a1f      	ldr	r2, [pc, #124]	@ (8005af8 <TIM_Base_SetConfig+0xd4>)
 8005a7a:	4293      	cmp	r3, r2
 8005a7c:	d003      	beq.n	8005a86 <TIM_Base_SetConfig+0x62>
 8005a7e:	687b      	ldr	r3, [r7, #4]
 8005a80:	4a1e      	ldr	r2, [pc, #120]	@ (8005afc <TIM_Base_SetConfig+0xd8>)
 8005a82:	4293      	cmp	r3, r2
 8005a84:	d108      	bne.n	8005a98 <TIM_Base_SetConfig+0x74>
  {
    /* Set the clock division */
    tmpcr1 &= ~TIM_CR1_CKD;
 8005a86:	68fb      	ldr	r3, [r7, #12]
 8005a88:	f423 7340 	bic.w	r3, r3, #768	@ 0x300
 8005a8c:	60fb      	str	r3, [r7, #12]
    tmpcr1 |= (uint32_t)Structure->ClockDivision;
 8005a8e:	683b      	ldr	r3, [r7, #0]
 8005a90:	68db      	ldr	r3, [r3, #12]
 8005a92:	68fa      	ldr	r2, [r7, #12]
 8005a94:	4313      	orrs	r3, r2
 8005a96:	60fb      	str	r3, [r7, #12]
  }

  /* Set the auto-reload preload */
  MODIFY_REG(tmpcr1, TIM_CR1_ARPE, Structure->AutoReloadPreload);
 8005a98:	68fb      	ldr	r3, [r7, #12]
 8005a9a:	f023 0280 	bic.w	r2, r3, #128	@ 0x80
 8005a9e:	683b      	ldr	r3, [r7, #0]
 8005aa0:	695b      	ldr	r3, [r3, #20]
 8005aa2:	4313      	orrs	r3, r2
 8005aa4:	60fb      	str	r3, [r7, #12]

  TIMx->CR1 = tmpcr1;
 8005aa6:	687b      	ldr	r3, [r7, #4]
 8005aa8:	68fa      	ldr	r2, [r7, #12]
 8005aaa:	601a      	str	r2, [r3, #0]

  /* Set the Autoreload value */
  TIMx->ARR = (uint32_t)Structure->Period ;
 8005aac:	683b      	ldr	r3, [r7, #0]
 8005aae:	689a      	ldr	r2, [r3, #8]
 8005ab0:	687b      	ldr	r3, [r7, #4]
 8005ab2:	62da      	str	r2, [r3, #44]	@ 0x2c

  /* Set the Prescaler value */
  TIMx->PSC = Structure->Prescaler;
 8005ab4:	683b      	ldr	r3, [r7, #0]
 8005ab6:	681a      	ldr	r2, [r3, #0]
 8005ab8:	687b      	ldr	r3, [r7, #4]
 8005aba:	629a      	str	r2, [r3, #40]	@ 0x28

  if (IS_TIM_REPETITION_COUNTER_INSTANCE(TIMx))
 8005abc:	687b      	ldr	r3, [r7, #4]
 8005abe:	4a0d      	ldr	r2, [pc, #52]	@ (8005af4 <TIM_Base_SetConfig+0xd0>)
 8005ac0:	4293      	cmp	r3, r2
 8005ac2:	d103      	bne.n	8005acc <TIM_Base_SetConfig+0xa8>
  {
    /* Set the Repetition Counter value */
    TIMx->RCR = Structure->RepetitionCounter;
 8005ac4:	683b      	ldr	r3, [r7, #0]
 8005ac6:	691a      	ldr	r2, [r3, #16]
 8005ac8:	687b      	ldr	r3, [r7, #4]
 8005aca:	631a      	str	r2, [r3, #48]	@ 0x30
  }

  /* Generate an update event to reload the Prescaler
     and the repetition counter (only for advanced timer) value immediately */
  TIMx->EGR = TIM_EGR_UG;
 8005acc:	687b      	ldr	r3, [r7, #4]
 8005ace:	2201      	movs	r2, #1
 8005ad0:	615a      	str	r2, [r3, #20]

  /* Check if the update flag is set after the Update Generation, if so clear the UIF flag */
  if (HAL_IS_BIT_SET(TIMx->SR, TIM_FLAG_UPDATE))
 8005ad2:	687b      	ldr	r3, [r7, #4]
 8005ad4:	691b      	ldr	r3, [r3, #16]
 8005ad6:	f003 0301 	and.w	r3, r3, #1
 8005ada:	2b00      	cmp	r3, #0
 8005adc:	d005      	beq.n	8005aea <TIM_Base_SetConfig+0xc6>
  {
    /* Clear the update flag */
    CLEAR_BIT(TIMx->SR, TIM_FLAG_UPDATE);
 8005ade:	687b      	ldr	r3, [r7, #4]
 8005ae0:	691b      	ldr	r3, [r3, #16]
 8005ae2:	f023 0201 	bic.w	r2, r3, #1
 8005ae6:	687b      	ldr	r3, [r7, #4]
 8005ae8:	611a      	str	r2, [r3, #16]
  }
}
 8005aea:	bf00      	nop
 8005aec:	3714      	adds	r7, #20
 8005aee:	46bd      	mov	sp, r7
 8005af0:	bc80      	pop	{r7}
 8005af2:	4770      	bx	lr
 8005af4:	40012c00 	.word	0x40012c00
 8005af8:	40000400 	.word	0x40000400
 8005afc:	40000800 	.word	0x40000800

08005b00 <TIM_OC1_SetConfig>:
  * @param  TIMx to select the TIM peripheral
  * @param  OC_Config The output configuration structure
  * @retval None
  */
static void TIM_OC1_SetConfig(TIM_TypeDef *TIMx, const TIM_OC_InitTypeDef *OC_Config)
{
 8005b00:	b480      	push	{r7}
 8005b02:	b087      	sub	sp, #28
 8005b04:	af00      	add	r7, sp, #0
 8005b06:	6078      	str	r0, [r7, #4]
 8005b08:	6039      	str	r1, [r7, #0]
  uint32_t tmpccmrx;
  uint32_t tmpccer;
  uint32_t tmpcr2;

  /* Get the TIMx CCER register value */
  tmpccer = TIMx->CCER;
 8005b0a:	687b      	ldr	r3, [r7, #4]
 8005b0c:	6a1b      	ldr	r3, [r3, #32]
 8005b0e:	617b      	str	r3, [r7, #20]

  /* Disable the Channel 1: Reset the CC1E Bit */
  TIMx->CCER &= ~TIM_CCER_CC1E;
 8005b10:	687b      	ldr	r3, [r7, #4]
 8005b12:	6a1b      	ldr	r3, [r3, #32]
 8005b14:	f023 0201 	bic.w	r2, r3, #1
 8005b18:	687b      	ldr	r3, [r7, #4]
 8005b1a:	621a      	str	r2, [r3, #32]

  /* Get the TIMx CR2 register value */
  tmpcr2 =  TIMx->CR2;
 8005b1c:	687b      	ldr	r3, [r7, #4]
 8005b1e:	685b      	ldr	r3, [r3, #4]
 8005b20:	613b      	str	r3, [r7, #16]

  /* Get the TIMx CCMR1 register value */
  tmpccmrx = TIMx->CCMR1;
 8005b22:	687b      	ldr	r3, [r7, #4]
 8005b24:	699b      	ldr	r3, [r3, #24]
 8005b26:	60fb      	str	r3, [r7, #12]

  /* Reset the Output Compare Mode Bits */
  tmpccmrx &= ~TIM_CCMR1_OC1M;
 8005b28:	68fb      	ldr	r3, [r7, #12]
 8005b2a:	f023 0370 	bic.w	r3, r3, #112	@ 0x70
 8005b2e:	60fb      	str	r3, [r7, #12]
  tmpccmrx &= ~TIM_CCMR1_CC1S;
 8005b30:	68fb      	ldr	r3, [r7, #12]
 8005b32:	f023 0303 	bic.w	r3, r3, #3
 8005b36:	60fb      	str	r3, [r7, #12]
  /* Select the Output Compare Mode */
  tmpccmrx |= OC_Config->OCMode;
 8005b38:	683b      	ldr	r3, [r7, #0]
 8005b3a:	681b      	ldr	r3, [r3, #0]
 8005b3c:	68fa      	ldr	r2, [r7, #12]
 8005b3e:	4313      	orrs	r3, r2
 8005b40:	60fb      	str	r3, [r7, #12]

  /* Reset the Output Polarity level */
  tmpccer &= ~TIM_CCER_CC1P;
 8005b42:	697b      	ldr	r3, [r7, #20]
 8005b44:	f023 0302 	bic.w	r3, r3, #2
 8005b48:	617b      	str	r3, [r7, #20]
  /* Set the Output Compare Polarity */
  tmpccer |= OC_Config->OCPolarity;
 8005b4a:	683b      	ldr	r3, [r7, #0]
 8005b4c:	689b      	ldr	r3, [r3, #8]
 8005b4e:	697a      	ldr	r2, [r7, #20]
 8005b50:	4313      	orrs	r3, r2
 8005b52:	617b      	str	r3, [r7, #20]

  if (IS_TIM_CCXN_INSTANCE(TIMx, TIM_CHANNEL_1))
 8005b54:	687b      	ldr	r3, [r7, #4]
 8005b56:	4a1c      	ldr	r2, [pc, #112]	@ (8005bc8 <TIM_OC1_SetConfig+0xc8>)
 8005b58:	4293      	cmp	r3, r2
 8005b5a:	d10c      	bne.n	8005b76 <TIM_OC1_SetConfig+0x76>
  {
    /* Check parameters */
    assert_param(IS_TIM_OCN_POLARITY(OC_Config->OCNPolarity));

    /* Reset the Output N Polarity level */
    tmpccer &= ~TIM_CCER_CC1NP;
 8005b5c:	697b      	ldr	r3, [r7, #20]
 8005b5e:	f023 0308 	bic.w	r3, r3, #8
 8005b62:	617b      	str	r3, [r7, #20]
    /* Set the Output N Polarity */
    tmpccer |= OC_Config->OCNPolarity;
 8005b64:	683b      	ldr	r3, [r7, #0]
 8005b66:	68db      	ldr	r3, [r3, #12]
 8005b68:	697a      	ldr	r2, [r7, #20]
 8005b6a:	4313      	orrs	r3, r2
 8005b6c:	617b      	str	r3, [r7, #20]
    /* Reset the Output N State */
    tmpccer &= ~TIM_CCER_CC1NE;
 8005b6e:	697b      	ldr	r3, [r7, #20]
 8005b70:	f023 0304 	bic.w	r3, r3, #4
 8005b74:	617b      	str	r3, [r7, #20]
  }

  if (IS_TIM_BREAK_INSTANCE(TIMx))
 8005b76:	687b      	ldr	r3, [r7, #4]
 8005b78:	4a13      	ldr	r2, [pc, #76]	@ (8005bc8 <TIM_OC1_SetConfig+0xc8>)
 8005b7a:	4293      	cmp	r3, r2
 8005b7c:	d111      	bne.n	8005ba2 <TIM_OC1_SetConfig+0xa2>
    /* Check parameters */
    assert_param(IS_TIM_OCNIDLE_STATE(OC_Config->OCNIdleState));
    assert_param(IS_TIM_OCIDLE_STATE(OC_Config->OCIdleState));

    /* Reset the Output Compare and Output Compare N IDLE State */
    tmpcr2 &= ~TIM_CR2_OIS1;
 8005b7e:	693b      	ldr	r3, [r7, #16]
 8005b80:	f423 7380 	bic.w	r3, r3, #256	@ 0x100
 8005b84:	613b      	str	r3, [r7, #16]
    tmpcr2 &= ~TIM_CR2_OIS1N;
 8005b86:	693b      	ldr	r3, [r7, #16]
 8005b88:	f423 7300 	bic.w	r3, r3, #512	@ 0x200
 8005b8c:	613b      	str	r3, [r7, #16]
    /* Set the Output Idle state */
    tmpcr2 |= OC_Config->OCIdleState;
 8005b8e:	683b      	ldr	r3, [r7, #0]
 8005b90:	695b      	ldr	r3, [r3, #20]
 8005b92:	693a      	ldr	r2, [r7, #16]
 8005b94:	4313      	orrs	r3, r2
 8005b96:	613b      	str	r3, [r7, #16]
    /* Set the Output N Idle state */
    tmpcr2 |= OC_Config->OCNIdleState;
 8005b98:	683b      	ldr	r3, [r7, #0]
 8005b9a:	699b      	ldr	r3, [r3, #24]
 8005b9c:	693a      	ldr	r2, [r7, #16]
 8005b9e:	4313      	orrs	r3, r2
 8005ba0:	613b      	str	r3, [r7, #16]
  }

  /* Write to TIMx CR2 */
  TIMx->CR2 = tmpcr2;
 8005ba2:	687b      	ldr	r3, [r7, #4]
 8005ba4:	693a      	ldr	r2, [r7, #16]
 8005ba6:	605a      	str	r2, [r3, #4]

  /* Write to TIMx CCMR1 */
  TIMx->CCMR1 = tmpccmrx;
 8005ba8:	687b      	ldr	r3, [r7, #4]
 8005baa:	68fa      	ldr	r2, [r7, #12]
 8005bac:	619a      	str	r2, [r3, #24]

  /* Set the Capture Compare Register value */
  TIMx->CCR1 = OC_Config->Pulse;
 8005bae:	683b      	ldr	r3, [r7, #0]
 8005bb0:	685a      	ldr	r2, [r3, #4]
 8005bb2:	687b      	ldr	r3, [r7, #4]
 8005bb4:	635a      	str	r2, [r3, #52]	@ 0x34

  /* Write to TIMx CCER */
  TIMx->CCER = tmpccer;
 8005bb6:	687b      	ldr	r3, [r7, #4]
 8005bb8:	697a      	ldr	r2, [r7, #20]
 8005bba:	621a      	str	r2, [r3, #32]
}
 8005bbc:	bf00      	nop
 8005bbe:	371c      	adds	r7, #28
 8005bc0:	46bd      	mov	sp, r7
 8005bc2:	bc80      	pop	{r7}
 8005bc4:	4770      	bx	lr
 8005bc6:	bf00      	nop
 8005bc8:	40012c00 	.word	0x40012c00

08005bcc <TIM_OC2_SetConfig>:
  * @param  TIMx to select the TIM peripheral
  * @param  OC_Config The output configuration structure
  * @retval None
  */
void TIM_OC2_SetConfig(TIM_TypeDef *TIMx, const TIM_OC_InitTypeDef *OC_Config)
{
 8005bcc:	b480      	push	{r7}
 8005bce:	b087      	sub	sp, #28
 8005bd0:	af00      	add	r7, sp, #0
 8005bd2:	6078      	str	r0, [r7, #4]
 8005bd4:	6039      	str	r1, [r7, #0]
  uint32_t tmpccmrx;
  uint32_t tmpccer;
  uint32_t tmpcr2;

  /* Get the TIMx CCER register value */
  tmpccer = TIMx->CCER;
 8005bd6:	687b      	ldr	r3, [r7, #4]
 8005bd8:	6a1b      	ldr	r3, [r3, #32]
 8005bda:	617b      	str	r3, [r7, #20]

  /* Disable the Channel 2: Reset the CC2E Bit */
  TIMx->CCER &= ~TIM_CCER_CC2E;
 8005bdc:	687b      	ldr	r3, [r7, #4]
 8005bde:	6a1b      	ldr	r3, [r3, #32]
 8005be0:	f023 0210 	bic.w	r2, r3, #16
 8005be4:	687b      	ldr	r3, [r7, #4]
 8005be6:	621a      	str	r2, [r3, #32]

  /* Get the TIMx CR2 register value */
  tmpcr2 =  TIMx->CR2;
 8005be8:	687b      	ldr	r3, [r7, #4]
 8005bea:	685b      	ldr	r3, [r3, #4]
 8005bec:	613b      	str	r3, [r7, #16]

  /* Get the TIMx CCMR1 register value */
  tmpccmrx = TIMx->CCMR1;
 8005bee:	687b      	ldr	r3, [r7, #4]
 8005bf0:	699b      	ldr	r3, [r3, #24]
 8005bf2:	60fb      	str	r3, [r7, #12]

  /* Reset the Output Compare mode and Capture/Compare selection Bits */
  tmpccmrx &= ~TIM_CCMR1_OC2M;
 8005bf4:	68fb      	ldr	r3, [r7, #12]
 8005bf6:	f423 43e0 	bic.w	r3, r3, #28672	@ 0x7000
 8005bfa:	60fb      	str	r3, [r7, #12]
  tmpccmrx &= ~TIM_CCMR1_CC2S;
 8005bfc:	68fb      	ldr	r3, [r7, #12]
 8005bfe:	f423 7340 	bic.w	r3, r3, #768	@ 0x300
 8005c02:	60fb      	str	r3, [r7, #12]

  /* Select the Output Compare Mode */
  tmpccmrx |= (OC_Config->OCMode << 8U);
 8005c04:	683b      	ldr	r3, [r7, #0]
 8005c06:	681b      	ldr	r3, [r3, #0]
 8005c08:	021b      	lsls	r3, r3, #8
 8005c0a:	68fa      	ldr	r2, [r7, #12]
 8005c0c:	4313      	orrs	r3, r2
 8005c0e:	60fb      	str	r3, [r7, #12]

  /* Reset the Output Polarity level */
  tmpccer &= ~TIM_CCER_CC2P;
 8005c10:	697b      	ldr	r3, [r7, #20]
 8005c12:	f023 0320 	bic.w	r3, r3, #32
 8005c16:	617b      	str	r3, [r7, #20]
  /* Set the Output Compare Polarity */
  tmpccer |= (OC_Config->OCPolarity << 4U);
 8005c18:	683b      	ldr	r3, [r7, #0]
 8005c1a:	689b      	ldr	r3, [r3, #8]
 8005c1c:	011b      	lsls	r3, r3, #4
 8005c1e:	697a      	ldr	r2, [r7, #20]
 8005c20:	4313      	orrs	r3, r2
 8005c22:	617b      	str	r3, [r7, #20]

  if (IS_TIM_CCXN_INSTANCE(TIMx, TIM_CHANNEL_2))
 8005c24:	687b      	ldr	r3, [r7, #4]
 8005c26:	4a1d      	ldr	r2, [pc, #116]	@ (8005c9c <TIM_OC2_SetConfig+0xd0>)
 8005c28:	4293      	cmp	r3, r2
 8005c2a:	d10d      	bne.n	8005c48 <TIM_OC2_SetConfig+0x7c>
  {
    assert_param(IS_TIM_OCN_POLARITY(OC_Config->OCNPolarity));

    /* Reset the Output N Polarity level */
    tmpccer &= ~TIM_CCER_CC2NP;
 8005c2c:	697b      	ldr	r3, [r7, #20]
 8005c2e:	f023 0380 	bic.w	r3, r3, #128	@ 0x80
 8005c32:	617b      	str	r3, [r7, #20]
    /* Set the Output N Polarity */
    tmpccer |= (OC_Config->OCNPolarity << 4U);
 8005c34:	683b      	ldr	r3, [r7, #0]
 8005c36:	68db      	ldr	r3, [r3, #12]
 8005c38:	011b      	lsls	r3, r3, #4
 8005c3a:	697a      	ldr	r2, [r7, #20]
 8005c3c:	4313      	orrs	r3, r2
 8005c3e:	617b      	str	r3, [r7, #20]
    /* Reset the Output N State */
    tmpccer &= ~TIM_CCER_CC2NE;
 8005c40:	697b      	ldr	r3, [r7, #20]
 8005c42:	f023 0340 	bic.w	r3, r3, #64	@ 0x40
 8005c46:	617b      	str	r3, [r7, #20]
  }

  if (IS_TIM_BREAK_INSTANCE(TIMx))
 8005c48:	687b      	ldr	r3, [r7, #4]
 8005c4a:	4a14      	ldr	r2, [pc, #80]	@ (8005c9c <TIM_OC2_SetConfig+0xd0>)
 8005c4c:	4293      	cmp	r3, r2
 8005c4e:	d113      	bne.n	8005c78 <TIM_OC2_SetConfig+0xac>
    /* Check parameters */
    assert_param(IS_TIM_OCNIDLE_STATE(OC_Config->OCNIdleState));
    assert_param(IS_TIM_OCIDLE_STATE(OC_Config->OCIdleState));

    /* Reset the Output Compare and Output Compare N IDLE State */
    tmpcr2 &= ~TIM_CR2_OIS2;
 8005c50:	693b      	ldr	r3, [r7, #16]
 8005c52:	f423 6380 	bic.w	r3, r3, #1024	@ 0x400
 8005c56:	613b      	str	r3, [r7, #16]
    tmpcr2 &= ~TIM_CR2_OIS2N;
 8005c58:	693b      	ldr	r3, [r7, #16]
 8005c5a:	f423 6300 	bic.w	r3, r3, #2048	@ 0x800
 8005c5e:	613b      	str	r3, [r7, #16]
    /* Set the Output Idle state */
    tmpcr2 |= (OC_Config->OCIdleState << 2U);
 8005c60:	683b      	ldr	r3, [r7, #0]
 8005c62:	695b      	ldr	r3, [r3, #20]
 8005c64:	009b      	lsls	r3, r3, #2
 8005c66:	693a      	ldr	r2, [r7, #16]
 8005c68:	4313      	orrs	r3, r2
 8005c6a:	613b      	str	r3, [r7, #16]
    /* Set the Output N Idle state */
    tmpcr2 |= (OC_Config->OCNIdleState << 2U);
 8005c6c:	683b      	ldr	r3, [r7, #0]
 8005c6e:	699b      	ldr	r3, [r3, #24]
 8005c70:	009b      	lsls	r3, r3, #2
 8005c72:	693a      	ldr	r2, [r7, #16]
 8005c74:	4313      	orrs	r3, r2
 8005c76:	613b      	str	r3, [r7, #16]
  }

  /* Write to TIMx CR2 */
  TIMx->CR2 = tmpcr2;
 8005c78:	687b      	ldr	r3, [r7, #4]
 8005c7a:	693a      	ldr	r2, [r7, #16]
 8005c7c:	605a      	str	r2, [r3, #4]

  /* Write to TIMx CCMR1 */
  TIMx->CCMR1 = tmpccmrx;
 8005c7e:	687b      	ldr	r3, [r7, #4]
 8005c80:	68fa      	ldr	r2, [r7, #12]
 8005c82:	619a      	str	r2, [r3, #24]

  /* Set the Capture Compare Register value */
  TIMx->CCR2 = OC_Config->Pulse;
 8005c84:	683b      	ldr	r3, [r7, #0]
 8005c86:	685a      	ldr	r2, [r3, #4]
 8005c88:	687b      	ldr	r3, [r7, #4]
 8005c8a:	639a      	str	r2, [r3, #56]	@ 0x38

  /* Write to TIMx CCER */
  TIMx->CCER = tmpccer;
 8005c8c:	687b      	ldr	r3, [r7, #4]
 8005c8e:	697a      	ldr	r2, [r7, #20]
 8005c90:	621a      	str	r2, [r3, #32]
}
 8005c92:	bf00      	nop
 8005c94:	371c      	adds	r7, #28
 8005c96:	46bd      	mov	sp, r7
 8005c98:	bc80      	pop	{r7}
 8005c9a:	4770      	bx	lr
 8005c9c:	40012c00 	.word	0x40012c00

08005ca0 <TIM_OC3_SetConfig>:
  * @param  TIMx to select the TIM peripheral
  * @param  OC_Config The output configuration structure
  * @retval None
  */
static void TIM_OC3_SetConfig(TIM_TypeDef *TIMx, const TIM_OC_InitTypeDef *OC_Config)
{
 8005ca0:	b480      	push	{r7}
 8005ca2:	b087      	sub	sp, #28
 8005ca4:	af00      	add	r7, sp, #0
 8005ca6:	6078      	str	r0, [r7, #4]
 8005ca8:	6039      	str	r1, [r7, #0]
  uint32_t tmpccmrx;
  uint32_t tmpccer;
  uint32_t tmpcr2;

  /* Get the TIMx CCER register value */
  tmpccer = TIMx->CCER;
 8005caa:	687b      	ldr	r3, [r7, #4]
 8005cac:	6a1b      	ldr	r3, [r3, #32]
 8005cae:	617b      	str	r3, [r7, #20]

  /* Disable the Channel 3: Reset the CC2E Bit */
  TIMx->CCER &= ~TIM_CCER_CC3E;
 8005cb0:	687b      	ldr	r3, [r7, #4]
 8005cb2:	6a1b      	ldr	r3, [r3, #32]
 8005cb4:	f423 7280 	bic.w	r2, r3, #256	@ 0x100
 8005cb8:	687b      	ldr	r3, [r7, #4]
 8005cba:	621a      	str	r2, [r3, #32]

  /* Get the TIMx CR2 register value */
  tmpcr2 =  TIMx->CR2;
 8005cbc:	687b      	ldr	r3, [r7, #4]
 8005cbe:	685b      	ldr	r3, [r3, #4]
 8005cc0:	613b      	str	r3, [r7, #16]

  /* Get the TIMx CCMR2 register value */
  tmpccmrx = TIMx->CCMR2;
 8005cc2:	687b      	ldr	r3, [r7, #4]
 8005cc4:	69db      	ldr	r3, [r3, #28]
 8005cc6:	60fb      	str	r3, [r7, #12]

  /* Reset the Output Compare mode and Capture/Compare selection Bits */
  tmpccmrx &= ~TIM_CCMR2_OC3M;
 8005cc8:	68fb      	ldr	r3, [r7, #12]
 8005cca:	f023 0370 	bic.w	r3, r3, #112	@ 0x70
 8005cce:	60fb      	str	r3, [r7, #12]
  tmpccmrx &= ~TIM_CCMR2_CC3S;
 8005cd0:	68fb      	ldr	r3, [r7, #12]
 8005cd2:	f023 0303 	bic.w	r3, r3, #3
 8005cd6:	60fb      	str	r3, [r7, #12]
  /* Select the Output Compare Mode */
  tmpccmrx |= OC_Config->OCMode;
 8005cd8:	683b      	ldr	r3, [r7, #0]
 8005cda:	681b      	ldr	r3, [r3, #0]
 8005cdc:	68fa      	ldr	r2, [r7, #12]
 8005cde:	4313      	orrs	r3, r2
 8005ce0:	60fb      	str	r3, [r7, #12]

  /* Reset the Output Polarity level */
  tmpccer &= ~TIM_CCER_CC3P;
 8005ce2:	697b      	ldr	r3, [r7, #20]
 8005ce4:	f423 7300 	bic.w	r3, r3, #512	@ 0x200
 8005ce8:	617b      	str	r3, [r7, #20]
  /* Set the Output Compare Polarity */
  tmpccer |= (OC_Config->OCPolarity << 8U);
 8005cea:	683b      	ldr	r3, [r7, #0]
 8005cec:	689b      	ldr	r3, [r3, #8]
 8005cee:	021b      	lsls	r3, r3, #8
 8005cf0:	697a      	ldr	r2, [r7, #20]
 8005cf2:	4313      	orrs	r3, r2
 8005cf4:	617b      	str	r3, [r7, #20]

  if (IS_TIM_CCXN_INSTANCE(TIMx, TIM_CHANNEL_3))
 8005cf6:	687b      	ldr	r3, [r7, #4]
 8005cf8:	4a1d      	ldr	r2, [pc, #116]	@ (8005d70 <TIM_OC3_SetConfig+0xd0>)
 8005cfa:	4293      	cmp	r3, r2
 8005cfc:	d10d      	bne.n	8005d1a <TIM_OC3_SetConfig+0x7a>
  {
    assert_param(IS_TIM_OCN_POLARITY(OC_Config->OCNPolarity));

    /* Reset the Output N Polarity level */
    tmpccer &= ~TIM_CCER_CC3NP;
 8005cfe:	697b      	ldr	r3, [r7, #20]
 8005d00:	f423 6300 	bic.w	r3, r3, #2048	@ 0x800
 8005d04:	617b      	str	r3, [r7, #20]
    /* Set the Output N Polarity */
    tmpccer |= (OC_Config->OCNPolarity << 8U);
 8005d06:	683b      	ldr	r3, [r7, #0]
 8005d08:	68db      	ldr	r3, [r3, #12]
 8005d0a:	021b      	lsls	r3, r3, #8
 8005d0c:	697a      	ldr	r2, [r7, #20]
 8005d0e:	4313      	orrs	r3, r2
 8005d10:	617b      	str	r3, [r7, #20]
    /* Reset the Output N State */
    tmpccer &= ~TIM_CCER_CC3NE;
 8005d12:	697b      	ldr	r3, [r7, #20]
 8005d14:	f423 6380 	bic.w	r3, r3, #1024	@ 0x400
 8005d18:	617b      	str	r3, [r7, #20]
  }

  if (IS_TIM_BREAK_INSTANCE(TIMx))
 8005d1a:	687b      	ldr	r3, [r7, #4]
 8005d1c:	4a14      	ldr	r2, [pc, #80]	@ (8005d70 <TIM_OC3_SetConfig+0xd0>)
 8005d1e:	4293      	cmp	r3, r2
 8005d20:	d113      	bne.n	8005d4a <TIM_OC3_SetConfig+0xaa>
    /* Check parameters */
    assert_param(IS_TIM_OCNIDLE_STATE(OC_Config->OCNIdleState));
    assert_param(IS_TIM_OCIDLE_STATE(OC_Config->OCIdleState));

    /* Reset the Output Compare and Output Compare N IDLE State */
    tmpcr2 &= ~TIM_CR2_OIS3;
 8005d22:	693b      	ldr	r3, [r7, #16]
 8005d24:	f423 5380 	bic.w	r3, r3, #4096	@ 0x1000
 8005d28:	613b      	str	r3, [r7, #16]
    tmpcr2 &= ~TIM_CR2_OIS3N;
 8005d2a:	693b      	ldr	r3, [r7, #16]
 8005d2c:	f423 5300 	bic.w	r3, r3, #8192	@ 0x2000
 8005d30:	613b      	str	r3, [r7, #16]
    /* Set the Output Idle state */
    tmpcr2 |= (OC_Config->OCIdleState << 4U);
 8005d32:	683b      	ldr	r3, [r7, #0]
 8005d34:	695b      	ldr	r3, [r3, #20]
 8005d36:	011b      	lsls	r3, r3, #4
 8005d38:	693a      	ldr	r2, [r7, #16]
 8005d3a:	4313      	orrs	r3, r2
 8005d3c:	613b      	str	r3, [r7, #16]
    /* Set the Output N Idle state */
    tmpcr2 |= (OC_Config->OCNIdleState << 4U);
 8005d3e:	683b      	ldr	r3, [r7, #0]
 8005d40:	699b      	ldr	r3, [r3, #24]
 8005d42:	011b      	lsls	r3, r3, #4
 8005d44:	693a      	ldr	r2, [r7, #16]
 8005d46:	4313      	orrs	r3, r2
 8005d48:	613b      	str	r3, [r7, #16]
  }

  /* Write to TIMx CR2 */
  TIMx->CR2 = tmpcr2;
 8005d4a:	687b      	ldr	r3, [r7, #4]
 8005d4c:	693a      	ldr	r2, [r7, #16]
 8005d4e:	605a      	str	r2, [r3, #4]

  /* Write to TIMx CCMR2 */
  TIMx->CCMR2 = tmpccmrx;
 8005d50:	687b      	ldr	r3, [r7, #4]
 8005d52:	68fa      	ldr	r2, [r7, #12]
 8005d54:	61da      	str	r2, [r3, #28]

  /* Set the Capture Compare Register value */
  TIMx->CCR3 = OC_Config->Pulse;
 8005d56:	683b      	ldr	r3, [r7, #0]
 8005d58:	685a      	ldr	r2, [r3, #4]
 8005d5a:	687b      	ldr	r3, [r7, #4]
 8005d5c:	63da      	str	r2, [r3, #60]	@ 0x3c

  /* Write to TIMx CCER */
  TIMx->CCER = tmpccer;
 8005d5e:	687b      	ldr	r3, [r7, #4]
 8005d60:	697a      	ldr	r2, [r7, #20]
 8005d62:	621a      	str	r2, [r3, #32]
}
 8005d64:	bf00      	nop
 8005d66:	371c      	adds	r7, #28
 8005d68:	46bd      	mov	sp, r7
 8005d6a:	bc80      	pop	{r7}
 8005d6c:	4770      	bx	lr
 8005d6e:	bf00      	nop
 8005d70:	40012c00 	.word	0x40012c00

08005d74 <TIM_OC4_SetConfig>:
  * @param  TIMx to select the TIM peripheral
  * @param  OC_Config The output configuration structure
  * @retval None
  */
static void TIM_OC4_SetConfig(TIM_TypeDef *TIMx, const TIM_OC_InitTypeDef *OC_Config)
{
 8005d74:	b480      	push	{r7}
 8005d76:	b087      	sub	sp, #28
 8005d78:	af00      	add	r7, sp, #0
 8005d7a:	6078      	str	r0, [r7, #4]
 8005d7c:	6039      	str	r1, [r7, #0]
  uint32_t tmpccmrx;
  uint32_t tmpccer;
  uint32_t tmpcr2;

  /* Get the TIMx CCER register value */
  tmpccer = TIMx->CCER;
 8005d7e:	687b      	ldr	r3, [r7, #4]
 8005d80:	6a1b      	ldr	r3, [r3, #32]
 8005d82:	613b      	str	r3, [r7, #16]

  /* Disable the Channel 4: Reset the CC4E Bit */
  TIMx->CCER &= ~TIM_CCER_CC4E;
 8005d84:	687b      	ldr	r3, [r7, #4]
 8005d86:	6a1b      	ldr	r3, [r3, #32]
 8005d88:	f423 5280 	bic.w	r2, r3, #4096	@ 0x1000
 8005d8c:	687b      	ldr	r3, [r7, #4]
 8005d8e:	621a      	str	r2, [r3, #32]

  /* Get the TIMx CR2 register value */
  tmpcr2 =  TIMx->CR2;
 8005d90:	687b      	ldr	r3, [r7, #4]
 8005d92:	685b      	ldr	r3, [r3, #4]
 8005d94:	617b      	str	r3, [r7, #20]

  /* Get the TIMx CCMR2 register value */
  tmpccmrx = TIMx->CCMR2;
 8005d96:	687b      	ldr	r3, [r7, #4]
 8005d98:	69db      	ldr	r3, [r3, #28]
 8005d9a:	60fb      	str	r3, [r7, #12]

  /* Reset the Output Compare mode and Capture/Compare selection Bits */
  tmpccmrx &= ~TIM_CCMR2_OC4M;
 8005d9c:	68fb      	ldr	r3, [r7, #12]
 8005d9e:	f423 43e0 	bic.w	r3, r3, #28672	@ 0x7000
 8005da2:	60fb      	str	r3, [r7, #12]
  tmpccmrx &= ~TIM_CCMR2_CC4S;
 8005da4:	68fb      	ldr	r3, [r7, #12]
 8005da6:	f423 7340 	bic.w	r3, r3, #768	@ 0x300
 8005daa:	60fb      	str	r3, [r7, #12]

  /* Select the Output Compare Mode */
  tmpccmrx |= (OC_Config->OCMode << 8U);
 8005dac:	683b      	ldr	r3, [r7, #0]
 8005dae:	681b      	ldr	r3, [r3, #0]
 8005db0:	021b      	lsls	r3, r3, #8
 8005db2:	68fa      	ldr	r2, [r7, #12]
 8005db4:	4313      	orrs	r3, r2
 8005db6:	60fb      	str	r3, [r7, #12]

  /* Reset the Output Polarity level */
  tmpccer &= ~TIM_CCER_CC4P;
 8005db8:	693b      	ldr	r3, [r7, #16]
 8005dba:	f423 5300 	bic.w	r3, r3, #8192	@ 0x2000
 8005dbe:	613b      	str	r3, [r7, #16]
  /* Set the Output Compare Polarity */
  tmpccer |= (OC_Config->OCPolarity << 12U);
 8005dc0:	683b      	ldr	r3, [r7, #0]
 8005dc2:	689b      	ldr	r3, [r3, #8]
 8005dc4:	031b      	lsls	r3, r3, #12
 8005dc6:	693a      	ldr	r2, [r7, #16]
 8005dc8:	4313      	orrs	r3, r2
 8005dca:	613b      	str	r3, [r7, #16]

  if (IS_TIM_BREAK_INSTANCE(TIMx))
 8005dcc:	687b      	ldr	r3, [r7, #4]
 8005dce:	4a0f      	ldr	r2, [pc, #60]	@ (8005e0c <TIM_OC4_SetConfig+0x98>)
 8005dd0:	4293      	cmp	r3, r2
 8005dd2:	d109      	bne.n	8005de8 <TIM_OC4_SetConfig+0x74>
  {
    /* Check parameters */
    assert_param(IS_TIM_OCIDLE_STATE(OC_Config->OCIdleState));

    /* Reset the Output Compare IDLE State */
    tmpcr2 &= ~TIM_CR2_OIS4;
 8005dd4:	697b      	ldr	r3, [r7, #20]
 8005dd6:	f423 4380 	bic.w	r3, r3, #16384	@ 0x4000
 8005dda:	617b      	str	r3, [r7, #20]

    /* Set the Output Idle state */
    tmpcr2 |= (OC_Config->OCIdleState << 6U);
 8005ddc:	683b      	ldr	r3, [r7, #0]
 8005dde:	695b      	ldr	r3, [r3, #20]
 8005de0:	019b      	lsls	r3, r3, #6
 8005de2:	697a      	ldr	r2, [r7, #20]
 8005de4:	4313      	orrs	r3, r2
 8005de6:	617b      	str	r3, [r7, #20]
  }

  /* Write to TIMx CR2 */
  TIMx->CR2 = tmpcr2;
 8005de8:	687b      	ldr	r3, [r7, #4]
 8005dea:	697a      	ldr	r2, [r7, #20]
 8005dec:	605a      	str	r2, [r3, #4]

  /* Write to TIMx CCMR2 */
  TIMx->CCMR2 = tmpccmrx;
 8005dee:	687b      	ldr	r3, [r7, #4]
 8005df0:	68fa      	ldr	r2, [r7, #12]
 8005df2:	61da      	str	r2, [r3, #28]

  /* Set the Capture Compare Register value */
  TIMx->CCR4 = OC_Config->Pulse;
 8005df4:	683b      	ldr	r3, [r7, #0]
 8005df6:	685a      	ldr	r2, [r3, #4]
 8005df8:	687b      	ldr	r3, [r7, #4]
 8005dfa:	641a      	str	r2, [r3, #64]	@ 0x40

  /* Write to TIMx CCER */
  TIMx->CCER = tmpccer;
 8005dfc:	687b      	ldr	r3, [r7, #4]
 8005dfe:	693a      	ldr	r2, [r7, #16]
 8005e00:	621a      	str	r2, [r3, #32]
}
 8005e02:	bf00      	nop
 8005e04:	371c      	adds	r7, #28
 8005e06:	46bd      	mov	sp, r7
 8005e08:	bc80      	pop	{r7}
 8005e0a:	4770      	bx	lr
 8005e0c:	40012c00 	.word	0x40012c00

08005e10 <TIM_CCxChannelCmd>:
  * @param  ChannelState specifies the TIM Channel CCxE bit new state.
  *          This parameter can be: TIM_CCx_ENABLE or TIM_CCx_DISABLE.
  * @retval None
  */
void TIM_CCxChannelCmd(TIM_TypeDef *TIMx, uint32_t Channel, uint32_t ChannelState)
{
 8005e10:	b480      	push	{r7}
 8005e12:	b087      	sub	sp, #28
 8005e14:	af00      	add	r7, sp, #0
 8005e16:	60f8      	str	r0, [r7, #12]
 8005e18:	60b9      	str	r1, [r7, #8]
 8005e1a:	607a      	str	r2, [r7, #4]

  /* Check the parameters */
  assert_param(IS_TIM_CC1_INSTANCE(TIMx));
  assert_param(IS_TIM_CHANNELS(Channel));

  tmp = TIM_CCER_CC1E << (Channel & 0x1FU); /* 0x1FU = 31 bits max shift */
 8005e1c:	68bb      	ldr	r3, [r7, #8]
 8005e1e:	f003 031f 	and.w	r3, r3, #31
 8005e22:	2201      	movs	r2, #1
 8005e24:	fa02 f303 	lsl.w	r3, r2, r3
 8005e28:	617b      	str	r3, [r7, #20]

  /* Reset the CCxE Bit */
  TIMx->CCER &= ~tmp;
 8005e2a:	68fb      	ldr	r3, [r7, #12]
 8005e2c:	6a1a      	ldr	r2, [r3, #32]
 8005e2e:	697b      	ldr	r3, [r7, #20]
 8005e30:	43db      	mvns	r3, r3
 8005e32:	401a      	ands	r2, r3
 8005e34:	68fb      	ldr	r3, [r7, #12]
 8005e36:	621a      	str	r2, [r3, #32]

  /* Set or reset the CCxE Bit */
  TIMx->CCER |= (uint32_t)(ChannelState << (Channel & 0x1FU)); /* 0x1FU = 31 bits max shift */
 8005e38:	68fb      	ldr	r3, [r7, #12]
 8005e3a:	6a1a      	ldr	r2, [r3, #32]
 8005e3c:	68bb      	ldr	r3, [r7, #8]
 8005e3e:	f003 031f 	and.w	r3, r3, #31
 8005e42:	6879      	ldr	r1, [r7, #4]
 8005e44:	fa01 f303 	lsl.w	r3, r1, r3
 8005e48:	431a      	orrs	r2, r3
 8005e4a:	68fb      	ldr	r3, [r7, #12]
 8005e4c:	621a      	str	r2, [r3, #32]
}
 8005e4e:	bf00      	nop
 8005e50:	371c      	adds	r7, #28
 8005e52:	46bd      	mov	sp, r7
 8005e54:	bc80      	pop	{r7}
 8005e56:	4770      	bx	lr

08005e58 <HAL_TIMEx_MasterConfigSynchronization>:
  *         mode.
  * @retval HAL status
  */
HAL_StatusTypeDef HAL_TIMEx_MasterConfigSynchronization(TIM_HandleTypeDef *htim,
                                                        const TIM_MasterConfigTypeDef *sMasterConfig)
{
 8005e58:	b480      	push	{r7}
 8005e5a:	b085      	sub	sp, #20
 8005e5c:	af00      	add	r7, sp, #0
 8005e5e:	6078      	str	r0, [r7, #4]
 8005e60:	6039      	str	r1, [r7, #0]
  assert_param(IS_TIM_MASTER_INSTANCE(htim->Instance));
  assert_param(IS_TIM_TRGO_SOURCE(sMasterConfig->MasterOutputTrigger));
  assert_param(IS_TIM_MSM_STATE(sMasterConfig->MasterSlaveMode));

  /* Check input state */
  __HAL_LOCK(htim);
 8005e62:	687b      	ldr	r3, [r7, #4]
 8005e64:	f893 303c 	ldrb.w	r3, [r3, #60]	@ 0x3c
 8005e68:	2b01      	cmp	r3, #1
 8005e6a:	d101      	bne.n	8005e70 <HAL_TIMEx_MasterConfigSynchronization+0x18>
 8005e6c:	2302      	movs	r3, #2
 8005e6e:	e046      	b.n	8005efe <HAL_TIMEx_MasterConfigSynchronization+0xa6>
 8005e70:	687b      	ldr	r3, [r7, #4]
 8005e72:	2201      	movs	r2, #1
 8005e74:	f883 203c 	strb.w	r2, [r3, #60]	@ 0x3c

  /* Change the handler state */
  htim->State = HAL_TIM_STATE_BUSY;
 8005e78:	687b      	ldr	r3, [r7, #4]
 8005e7a:	2202      	movs	r2, #2
 8005e7c:	f883 203d 	strb.w	r2, [r3, #61]	@ 0x3d

  /* Get the TIMx CR2 register value */
  tmpcr2 = htim->Instance->CR2;
 8005e80:	687b      	ldr	r3, [r7, #4]
 8005e82:	681b      	ldr	r3, [r3, #0]
 8005e84:	685b      	ldr	r3, [r3, #4]
 8005e86:	60fb      	str	r3, [r7, #12]

  /* Get the TIMx SMCR register value */
  tmpsmcr = htim->Instance->SMCR;
 8005e88:	687b      	ldr	r3, [r7, #4]
 8005e8a:	681b      	ldr	r3, [r3, #0]
 8005e8c:	689b      	ldr	r3, [r3, #8]
 8005e8e:	60bb      	str	r3, [r7, #8]

  /* Reset the MMS Bits */
  tmpcr2 &= ~TIM_CR2_MMS;
 8005e90:	68fb      	ldr	r3, [r7, #12]
 8005e92:	f023 0370 	bic.w	r3, r3, #112	@ 0x70
 8005e96:	60fb      	str	r3, [r7, #12]
  /* Select the TRGO source */
  tmpcr2 |=  sMasterConfig->MasterOutputTrigger;
 8005e98:	683b      	ldr	r3, [r7, #0]
 8005e9a:	681b      	ldr	r3, [r3, #0]
 8005e9c:	68fa      	ldr	r2, [r7, #12]
 8005e9e:	4313      	orrs	r3, r2
 8005ea0:	60fb      	str	r3, [r7, #12]

  /* Update TIMx CR2 */
  htim->Instance->CR2 = tmpcr2;
 8005ea2:	687b      	ldr	r3, [r7, #4]
 8005ea4:	681b      	ldr	r3, [r3, #0]
 8005ea6:	68fa      	ldr	r2, [r7, #12]
 8005ea8:	605a      	str	r2, [r3, #4]

  if (IS_TIM_SLAVE_INSTANCE(htim->Instance))
 8005eaa:	687b      	ldr	r3, [r7, #4]
 8005eac:	681b      	ldr	r3, [r3, #0]
 8005eae:	4a16      	ldr	r2, [pc, #88]	@ (8005f08 <HAL_TIMEx_MasterConfigSynchronization+0xb0>)
 8005eb0:	4293      	cmp	r3, r2
 8005eb2:	d00e      	beq.n	8005ed2 <HAL_TIMEx_MasterConfigSynchronization+0x7a>
 8005eb4:	687b      	ldr	r3, [r7, #4]
 8005eb6:	681b      	ldr	r3, [r3, #0]
 8005eb8:	f1b3 4f80 	cmp.w	r3, #1073741824	@ 0x40000000
 8005ebc:	d009      	beq.n	8005ed2 <HAL_TIMEx_MasterConfigSynchronization+0x7a>
 8005ebe:	687b      	ldr	r3, [r7, #4]
 8005ec0:	681b      	ldr	r3, [r3, #0]
 8005ec2:	4a12      	ldr	r2, [pc, #72]	@ (8005f0c <HAL_TIMEx_MasterConfigSynchronization+0xb4>)
 8005ec4:	4293      	cmp	r3, r2
 8005ec6:	d004      	beq.n	8005ed2 <HAL_TIMEx_MasterConfigSynchronization+0x7a>
 8005ec8:	687b      	ldr	r3, [r7, #4]
 8005eca:	681b      	ldr	r3, [r3, #0]
 8005ecc:	4a10      	ldr	r2, [pc, #64]	@ (8005f10 <HAL_TIMEx_MasterConfigSynchronization+0xb8>)
 8005ece:	4293      	cmp	r3, r2
 8005ed0:	d10c      	bne.n	8005eec <HAL_TIMEx_MasterConfigSynchronization+0x94>
  {
    /* Reset the MSM Bit */
    tmpsmcr &= ~TIM_SMCR_MSM;
 8005ed2:	68bb      	ldr	r3, [r7, #8]
 8005ed4:	f023 0380 	bic.w	r3, r3, #128	@ 0x80
 8005ed8:	60bb      	str	r3, [r7, #8]
    /* Set master mode */
    tmpsmcr |= sMasterConfig->MasterSlaveMode;
 8005eda:	683b      	ldr	r3, [r7, #0]
 8005edc:	685b      	ldr	r3, [r3, #4]
 8005ede:	68ba      	ldr	r2, [r7, #8]
 8005ee0:	4313      	orrs	r3, r2
 8005ee2:	60bb      	str	r3, [r7, #8]

    /* Update TIMx SMCR */
    htim->Instance->SMCR = tmpsmcr;
 8005ee4:	687b      	ldr	r3, [r7, #4]
 8005ee6:	681b      	ldr	r3, [r3, #0]
 8005ee8:	68ba      	ldr	r2, [r7, #8]
 8005eea:	609a      	str	r2, [r3, #8]
  }

  /* Change the htim state */
  htim->State = HAL_TIM_STATE_READY;
 8005eec:	687b      	ldr	r3, [r7, #4]
 8005eee:	2201      	movs	r2, #1
 8005ef0:	f883 203d 	strb.w	r2, [r3, #61]	@ 0x3d

  __HAL_UNLOCK(htim);
 8005ef4:	687b      	ldr	r3, [r7, #4]
 8005ef6:	2200      	movs	r2, #0
 8005ef8:	f883 203c 	strb.w	r2, [r3, #60]	@ 0x3c

  return HAL_OK;
 8005efc:	2300      	movs	r3, #0
}
 8005efe:	4618      	mov	r0, r3
 8005f00:	3714      	adds	r7, #20
 8005f02:	46bd      	mov	sp, r7
 8005f04:	bc80      	pop	{r7}
 8005f06:	4770      	bx	lr
 8005f08:	40012c00 	.word	0x40012c00
 8005f0c:	40000400 	.word	0x40000400
 8005f10:	40000800 	.word	0x40000800

08005f14 <HAL_TIMEx_CommutCallback>:
  * @brief  Commutation callback in non-blocking mode
  * @param  htim TIM handle
  * @retval None
  */
__weak void HAL_TIMEx_CommutCallback(TIM_HandleTypeDef *htim)
{
 8005f14:	b480      	push	{r7}
 8005f16:	b083      	sub	sp, #12
 8005f18:	af00      	add	r7, sp, #0
 8005f1a:	6078      	str	r0, [r7, #4]
  UNUSED(htim);

  /* NOTE : This function should not be modified, when the callback is needed,
            the HAL_TIMEx_CommutCallback could be implemented in the user file
   */
}
 8005f1c:	bf00      	nop
 8005f1e:	370c      	adds	r7, #12
 8005f20:	46bd      	mov	sp, r7
 8005f22:	bc80      	pop	{r7}
 8005f24:	4770      	bx	lr

08005f26 <HAL_TIMEx_BreakCallback>:
  * @brief  Break detection callback in non-blocking mode
  * @param  htim TIM handle
  * @retval None
  */
__weak void HAL_TIMEx_BreakCallback(TIM_HandleTypeDef *htim)
{
 8005f26:	b480      	push	{r7}
 8005f28:	b083      	sub	sp, #12
 8005f2a:	af00      	add	r7, sp, #0
 8005f2c:	6078      	str	r0, [r7, #4]
  UNUSED(htim);

  /* NOTE : This function should not be modified, when the callback is needed,
            the HAL_TIMEx_BreakCallback could be implemented in the user file
   */
}
 8005f2e:	bf00      	nop
 8005f30:	370c      	adds	r7, #12
 8005f32:	46bd      	mov	sp, r7
 8005f34:	bc80      	pop	{r7}
 8005f36:	4770      	bx	lr

08005f38 <_ZdlPvj>:
 8005f38:	f000 b811 	b.w	8005f5e <_ZdlPv>

08005f3c <_Znwj>:
 8005f3c:	2801      	cmp	r0, #1
 8005f3e:	bf38      	it	cc
 8005f40:	2001      	movcc	r0, #1
 8005f42:	b510      	push	{r4, lr}
 8005f44:	4604      	mov	r4, r0
 8005f46:	4620      	mov	r0, r4
 8005f48:	f000 faf8 	bl	800653c <malloc>
 8005f4c:	b100      	cbz	r0, 8005f50 <_Znwj+0x14>
 8005f4e:	bd10      	pop	{r4, pc}
 8005f50:	f000 f808 	bl	8005f64 <_ZSt15get_new_handlerv>
 8005f54:	b908      	cbnz	r0, 8005f5a <_Znwj+0x1e>
 8005f56:	f000 f80d 	bl	8005f74 <abort>
 8005f5a:	4780      	blx	r0
 8005f5c:	e7f3      	b.n	8005f46 <_Znwj+0xa>

08005f5e <_ZdlPv>:
 8005f5e:	f000 baf5 	b.w	800654c <free>
	...

08005f64 <_ZSt15get_new_handlerv>:
 8005f64:	4b02      	ldr	r3, [pc, #8]	@ (8005f70 <_ZSt15get_new_handlerv+0xc>)
 8005f66:	6818      	ldr	r0, [r3, #0]
 8005f68:	f3bf 8f5b 	dmb	ish
 8005f6c:	4770      	bx	lr
 8005f6e:	bf00      	nop
 8005f70:	2000038c 	.word	0x2000038c

08005f74 <abort>:
 8005f74:	2006      	movs	r0, #6
 8005f76:	b508      	push	{r3, lr}
 8005f78:	f000 fe96 	bl	8006ca8 <raise>
 8005f7c:	2001      	movs	r0, #1
 8005f7e:	f7fd fc74 	bl	800386a <_exit>
	...

08005f84 <exit>:
 8005f84:	b508      	push	{r3, lr}
 8005f86:	4b06      	ldr	r3, [pc, #24]	@ (8005fa0 <exit+0x1c>)
 8005f88:	4604      	mov	r4, r0
 8005f8a:	b113      	cbz	r3, 8005f92 <exit+0xe>
 8005f8c:	2100      	movs	r1, #0
 8005f8e:	f3af 8000 	nop.w
 8005f92:	4b04      	ldr	r3, [pc, #16]	@ (8005fa4 <exit+0x20>)
 8005f94:	681b      	ldr	r3, [r3, #0]
 8005f96:	b103      	cbz	r3, 8005f9a <exit+0x16>
 8005f98:	4798      	blx	r3
 8005f9a:	4620      	mov	r0, r4
 8005f9c:	f7fd fc65 	bl	800386a <_exit>
 8005fa0:	00000000 	.word	0x00000000
 8005fa4:	200004d0 	.word	0x200004d0

08005fa8 <__cvt>:
 8005fa8:	2b00      	cmp	r3, #0
 8005faa:	e92d 47f0 	stmdb	sp!, {r4, r5, r6, r7, r8, r9, sl, lr}
 8005fae:	461d      	mov	r5, r3
 8005fb0:	bfbb      	ittet	lt
 8005fb2:	f103 4300 	addlt.w	r3, r3, #2147483648	@ 0x80000000
 8005fb6:	461d      	movlt	r5, r3
 8005fb8:	2300      	movge	r3, #0
 8005fba:	232d      	movlt	r3, #45	@ 0x2d
 8005fbc:	b088      	sub	sp, #32
 8005fbe:	4614      	mov	r4, r2
 8005fc0:	bfb8      	it	lt
 8005fc2:	4614      	movlt	r4, r2
 8005fc4:	9a12      	ldr	r2, [sp, #72]	@ 0x48
 8005fc6:	9e10      	ldr	r6, [sp, #64]	@ 0x40
 8005fc8:	7013      	strb	r3, [r2, #0]
 8005fca:	9b14      	ldr	r3, [sp, #80]	@ 0x50
 8005fcc:	f8dd a04c 	ldr.w	sl, [sp, #76]	@ 0x4c
 8005fd0:	f023 0820 	bic.w	r8, r3, #32
 8005fd4:	f1b8 0f46 	cmp.w	r8, #70	@ 0x46
 8005fd8:	d005      	beq.n	8005fe6 <__cvt+0x3e>
 8005fda:	f1b8 0f45 	cmp.w	r8, #69	@ 0x45
 8005fde:	d100      	bne.n	8005fe2 <__cvt+0x3a>
 8005fe0:	3601      	adds	r6, #1
 8005fe2:	2302      	movs	r3, #2
 8005fe4:	e000      	b.n	8005fe8 <__cvt+0x40>
 8005fe6:	2303      	movs	r3, #3
 8005fe8:	aa07      	add	r2, sp, #28
 8005fea:	9204      	str	r2, [sp, #16]
 8005fec:	aa06      	add	r2, sp, #24
 8005fee:	e9cd a202 	strd	sl, r2, [sp, #8]
 8005ff2:	e9cd 3600 	strd	r3, r6, [sp]
 8005ff6:	4622      	mov	r2, r4
 8005ff8:	462b      	mov	r3, r5
 8005ffa:	f000 ff45 	bl	8006e88 <_dtoa_r>
 8005ffe:	f1b8 0f47 	cmp.w	r8, #71	@ 0x47
 8006002:	4607      	mov	r7, r0
 8006004:	d119      	bne.n	800603a <__cvt+0x92>
 8006006:	9b11      	ldr	r3, [sp, #68]	@ 0x44
 8006008:	07db      	lsls	r3, r3, #31
 800600a:	d50e      	bpl.n	800602a <__cvt+0x82>
 800600c:	eb00 0906 	add.w	r9, r0, r6
 8006010:	2200      	movs	r2, #0
 8006012:	2300      	movs	r3, #0
 8006014:	4620      	mov	r0, r4
 8006016:	4629      	mov	r1, r5
 8006018:	f7fa fcc6 	bl	80009a8 <__aeabi_dcmpeq>
 800601c:	b108      	cbz	r0, 8006022 <__cvt+0x7a>
 800601e:	f8cd 901c 	str.w	r9, [sp, #28]
 8006022:	2230      	movs	r2, #48	@ 0x30
 8006024:	9b07      	ldr	r3, [sp, #28]
 8006026:	454b      	cmp	r3, r9
 8006028:	d31e      	bcc.n	8006068 <__cvt+0xc0>
 800602a:	4638      	mov	r0, r7
 800602c:	9b07      	ldr	r3, [sp, #28]
 800602e:	9a15      	ldr	r2, [sp, #84]	@ 0x54
 8006030:	1bdb      	subs	r3, r3, r7
 8006032:	6013      	str	r3, [r2, #0]
 8006034:	b008      	add	sp, #32
 8006036:	e8bd 87f0 	ldmia.w	sp!, {r4, r5, r6, r7, r8, r9, sl, pc}
 800603a:	f1b8 0f46 	cmp.w	r8, #70	@ 0x46
 800603e:	eb00 0906 	add.w	r9, r0, r6
 8006042:	d1e5      	bne.n	8006010 <__cvt+0x68>
 8006044:	7803      	ldrb	r3, [r0, #0]
 8006046:	2b30      	cmp	r3, #48	@ 0x30
 8006048:	d10a      	bne.n	8006060 <__cvt+0xb8>
 800604a:	2200      	movs	r2, #0
 800604c:	2300      	movs	r3, #0
 800604e:	4620      	mov	r0, r4
 8006050:	4629      	mov	r1, r5
 8006052:	f7fa fca9 	bl	80009a8 <__aeabi_dcmpeq>
 8006056:	b918      	cbnz	r0, 8006060 <__cvt+0xb8>
 8006058:	f1c6 0601 	rsb	r6, r6, #1
 800605c:	f8ca 6000 	str.w	r6, [sl]
 8006060:	f8da 3000 	ldr.w	r3, [sl]
 8006064:	4499      	add	r9, r3
 8006066:	e7d3      	b.n	8006010 <__cvt+0x68>
 8006068:	1c59      	adds	r1, r3, #1
 800606a:	9107      	str	r1, [sp, #28]
 800606c:	701a      	strb	r2, [r3, #0]
 800606e:	e7d9      	b.n	8006024 <__cvt+0x7c>

08006070 <__exponent>:
 8006070:	b5f7      	push	{r0, r1, r2, r4, r5, r6, r7, lr}
 8006072:	2900      	cmp	r1, #0
 8006074:	bfb6      	itet	lt
 8006076:	232d      	movlt	r3, #45	@ 0x2d
 8006078:	232b      	movge	r3, #43	@ 0x2b
 800607a:	4249      	neglt	r1, r1
 800607c:	2909      	cmp	r1, #9
 800607e:	7002      	strb	r2, [r0, #0]
 8006080:	7043      	strb	r3, [r0, #1]
 8006082:	dd29      	ble.n	80060d8 <__exponent+0x68>
 8006084:	f10d 0307 	add.w	r3, sp, #7
 8006088:	461d      	mov	r5, r3
 800608a:	270a      	movs	r7, #10
 800608c:	fbb1 f6f7 	udiv	r6, r1, r7
 8006090:	461a      	mov	r2, r3
 8006092:	fb07 1416 	mls	r4, r7, r6, r1
 8006096:	3430      	adds	r4, #48	@ 0x30
 8006098:	f802 4c01 	strb.w	r4, [r2, #-1]
 800609c:	460c      	mov	r4, r1
 800609e:	2c63      	cmp	r4, #99	@ 0x63
 80060a0:	4631      	mov	r1, r6
 80060a2:	f103 33ff 	add.w	r3, r3, #4294967295	@ 0xffffffff
 80060a6:	dcf1      	bgt.n	800608c <__exponent+0x1c>
 80060a8:	3130      	adds	r1, #48	@ 0x30
 80060aa:	1e94      	subs	r4, r2, #2
 80060ac:	f803 1c01 	strb.w	r1, [r3, #-1]
 80060b0:	4623      	mov	r3, r4
 80060b2:	1c41      	adds	r1, r0, #1
 80060b4:	42ab      	cmp	r3, r5
 80060b6:	d30a      	bcc.n	80060ce <__exponent+0x5e>
 80060b8:	f10d 0309 	add.w	r3, sp, #9
 80060bc:	1a9b      	subs	r3, r3, r2
 80060be:	42ac      	cmp	r4, r5
 80060c0:	bf88      	it	hi
 80060c2:	2300      	movhi	r3, #0
 80060c4:	3302      	adds	r3, #2
 80060c6:	4403      	add	r3, r0
 80060c8:	1a18      	subs	r0, r3, r0
 80060ca:	b003      	add	sp, #12
 80060cc:	bdf0      	pop	{r4, r5, r6, r7, pc}
 80060ce:	f813 6b01 	ldrb.w	r6, [r3], #1
 80060d2:	f801 6f01 	strb.w	r6, [r1, #1]!
 80060d6:	e7ed      	b.n	80060b4 <__exponent+0x44>
 80060d8:	2330      	movs	r3, #48	@ 0x30
 80060da:	3130      	adds	r1, #48	@ 0x30
 80060dc:	7083      	strb	r3, [r0, #2]
 80060de:	70c1      	strb	r1, [r0, #3]
 80060e0:	1d03      	adds	r3, r0, #4
 80060e2:	e7f1      	b.n	80060c8 <__exponent+0x58>

080060e4 <_printf_float>:
 80060e4:	e92d 4ff0 	stmdb	sp!, {r4, r5, r6, r7, r8, r9, sl, fp, lr}
 80060e8:	b091      	sub	sp, #68	@ 0x44
 80060ea:	460c      	mov	r4, r1
 80060ec:	f8dd 8068 	ldr.w	r8, [sp, #104]	@ 0x68
 80060f0:	4616      	mov	r6, r2
 80060f2:	461f      	mov	r7, r3
 80060f4:	4605      	mov	r5, r0
 80060f6:	f000 fdab 	bl	8006c50 <_localeconv_r>
 80060fa:	6803      	ldr	r3, [r0, #0]
 80060fc:	4618      	mov	r0, r3
 80060fe:	9308      	str	r3, [sp, #32]
 8006100:	f7fa f826 	bl	8000150 <strlen>
 8006104:	2300      	movs	r3, #0
 8006106:	930e      	str	r3, [sp, #56]	@ 0x38
 8006108:	f8d8 3000 	ldr.w	r3, [r8]
 800610c:	9009      	str	r0, [sp, #36]	@ 0x24
 800610e:	3307      	adds	r3, #7
 8006110:	f023 0307 	bic.w	r3, r3, #7
 8006114:	f103 0208 	add.w	r2, r3, #8
 8006118:	f894 a018 	ldrb.w	sl, [r4, #24]
 800611c:	f8d4 b000 	ldr.w	fp, [r4]
 8006120:	f8c8 2000 	str.w	r2, [r8]
 8006124:	e9d3 8900 	ldrd	r8, r9, [r3]
 8006128:	f029 4300 	bic.w	r3, r9, #2147483648	@ 0x80000000
 800612c:	930b      	str	r3, [sp, #44]	@ 0x2c
 800612e:	f8cd 8028 	str.w	r8, [sp, #40]	@ 0x28
 8006132:	f04f 32ff 	mov.w	r2, #4294967295	@ 0xffffffff
 8006136:	e9dd 010a 	ldrd	r0, r1, [sp, #40]	@ 0x28
 800613a:	e9c4 8912 	strd	r8, r9, [r4, #72]	@ 0x48
 800613e:	4b9c      	ldr	r3, [pc, #624]	@ (80063b0 <_printf_float+0x2cc>)
 8006140:	f7fa fc64 	bl	8000a0c <__aeabi_dcmpun>
 8006144:	bb70      	cbnz	r0, 80061a4 <_printf_float+0xc0>
 8006146:	e9dd 010a 	ldrd	r0, r1, [sp, #40]	@ 0x28
 800614a:	f04f 32ff 	mov.w	r2, #4294967295	@ 0xffffffff
 800614e:	4b98      	ldr	r3, [pc, #608]	@ (80063b0 <_printf_float+0x2cc>)
 8006150:	f7fa fc3e 	bl	80009d0 <__aeabi_dcmple>
 8006154:	bb30      	cbnz	r0, 80061a4 <_printf_float+0xc0>
 8006156:	2200      	movs	r2, #0
 8006158:	2300      	movs	r3, #0
 800615a:	4640      	mov	r0, r8
 800615c:	4649      	mov	r1, r9
 800615e:	f7fa fc2d 	bl	80009bc <__aeabi_dcmplt>
 8006162:	b110      	cbz	r0, 800616a <_printf_float+0x86>
 8006164:	232d      	movs	r3, #45	@ 0x2d
 8006166:	f884 3043 	strb.w	r3, [r4, #67]	@ 0x43
 800616a:	4a92      	ldr	r2, [pc, #584]	@ (80063b4 <_printf_float+0x2d0>)
 800616c:	4b92      	ldr	r3, [pc, #584]	@ (80063b8 <_printf_float+0x2d4>)
 800616e:	f1ba 0f47 	cmp.w	sl, #71	@ 0x47
 8006172:	bf94      	ite	ls
 8006174:	4690      	movls	r8, r2
 8006176:	4698      	movhi	r8, r3
 8006178:	2303      	movs	r3, #3
 800617a:	f04f 0900 	mov.w	r9, #0
 800617e:	6123      	str	r3, [r4, #16]
 8006180:	f02b 0304 	bic.w	r3, fp, #4
 8006184:	6023      	str	r3, [r4, #0]
 8006186:	4633      	mov	r3, r6
 8006188:	4621      	mov	r1, r4
 800618a:	4628      	mov	r0, r5
 800618c:	9700      	str	r7, [sp, #0]
 800618e:	aa0f      	add	r2, sp, #60	@ 0x3c
 8006190:	f000 fa86 	bl	80066a0 <_printf_common>
 8006194:	3001      	adds	r0, #1
 8006196:	f040 8090 	bne.w	80062ba <_printf_float+0x1d6>
 800619a:	f04f 30ff 	mov.w	r0, #4294967295	@ 0xffffffff
 800619e:	b011      	add	sp, #68	@ 0x44
 80061a0:	e8bd 8ff0 	ldmia.w	sp!, {r4, r5, r6, r7, r8, r9, sl, fp, pc}
 80061a4:	4642      	mov	r2, r8
 80061a6:	464b      	mov	r3, r9
 80061a8:	4640      	mov	r0, r8
 80061aa:	4649      	mov	r1, r9
 80061ac:	f7fa fc2e 	bl	8000a0c <__aeabi_dcmpun>
 80061b0:	b148      	cbz	r0, 80061c6 <_printf_float+0xe2>
 80061b2:	464b      	mov	r3, r9
 80061b4:	2b00      	cmp	r3, #0
 80061b6:	bfb8      	it	lt
 80061b8:	232d      	movlt	r3, #45	@ 0x2d
 80061ba:	4a80      	ldr	r2, [pc, #512]	@ (80063bc <_printf_float+0x2d8>)
 80061bc:	bfb8      	it	lt
 80061be:	f884 3043 	strblt.w	r3, [r4, #67]	@ 0x43
 80061c2:	4b7f      	ldr	r3, [pc, #508]	@ (80063c0 <_printf_float+0x2dc>)
 80061c4:	e7d3      	b.n	800616e <_printf_float+0x8a>
 80061c6:	6863      	ldr	r3, [r4, #4]
 80061c8:	f00a 01df 	and.w	r1, sl, #223	@ 0xdf
 80061cc:	1c5a      	adds	r2, r3, #1
 80061ce:	d13f      	bne.n	8006250 <_printf_float+0x16c>
 80061d0:	2306      	movs	r3, #6
 80061d2:	6063      	str	r3, [r4, #4]
 80061d4:	2200      	movs	r2, #0
 80061d6:	f44b 6380 	orr.w	r3, fp, #1024	@ 0x400
 80061da:	6023      	str	r3, [r4, #0]
 80061dc:	9206      	str	r2, [sp, #24]
 80061de:	aa0e      	add	r2, sp, #56	@ 0x38
 80061e0:	e9cd a204 	strd	sl, r2, [sp, #16]
 80061e4:	aa0d      	add	r2, sp, #52	@ 0x34
 80061e6:	9203      	str	r2, [sp, #12]
 80061e8:	f10d 0233 	add.w	r2, sp, #51	@ 0x33
 80061ec:	e9cd 3201 	strd	r3, r2, [sp, #4]
 80061f0:	6863      	ldr	r3, [r4, #4]
 80061f2:	4642      	mov	r2, r8
 80061f4:	9300      	str	r3, [sp, #0]
 80061f6:	4628      	mov	r0, r5
 80061f8:	464b      	mov	r3, r9
 80061fa:	910a      	str	r1, [sp, #40]	@ 0x28
 80061fc:	f7ff fed4 	bl	8005fa8 <__cvt>
 8006200:	990a      	ldr	r1, [sp, #40]	@ 0x28
 8006202:	4680      	mov	r8, r0
 8006204:	2947      	cmp	r1, #71	@ 0x47
 8006206:	990d      	ldr	r1, [sp, #52]	@ 0x34
 8006208:	d128      	bne.n	800625c <_printf_float+0x178>
 800620a:	1cc8      	adds	r0, r1, #3
 800620c:	db02      	blt.n	8006214 <_printf_float+0x130>
 800620e:	6863      	ldr	r3, [r4, #4]
 8006210:	4299      	cmp	r1, r3
 8006212:	dd40      	ble.n	8006296 <_printf_float+0x1b2>
 8006214:	f1aa 0a02 	sub.w	sl, sl, #2
 8006218:	fa5f fa8a 	uxtb.w	sl, sl
 800621c:	4652      	mov	r2, sl
 800621e:	3901      	subs	r1, #1
 8006220:	f104 0050 	add.w	r0, r4, #80	@ 0x50
 8006224:	910d      	str	r1, [sp, #52]	@ 0x34
 8006226:	f7ff ff23 	bl	8006070 <__exponent>
 800622a:	9a0e      	ldr	r2, [sp, #56]	@ 0x38
 800622c:	4681      	mov	r9, r0
 800622e:	1813      	adds	r3, r2, r0
 8006230:	2a01      	cmp	r2, #1
 8006232:	6123      	str	r3, [r4, #16]
 8006234:	dc02      	bgt.n	800623c <_printf_float+0x158>
 8006236:	6822      	ldr	r2, [r4, #0]
 8006238:	07d2      	lsls	r2, r2, #31
 800623a:	d501      	bpl.n	8006240 <_printf_float+0x15c>
 800623c:	3301      	adds	r3, #1
 800623e:	6123      	str	r3, [r4, #16]
 8006240:	f89d 3033 	ldrb.w	r3, [sp, #51]	@ 0x33
 8006244:	2b00      	cmp	r3, #0
 8006246:	d09e      	beq.n	8006186 <_printf_float+0xa2>
 8006248:	232d      	movs	r3, #45	@ 0x2d
 800624a:	f884 3043 	strb.w	r3, [r4, #67]	@ 0x43
 800624e:	e79a      	b.n	8006186 <_printf_float+0xa2>
 8006250:	2947      	cmp	r1, #71	@ 0x47
 8006252:	d1bf      	bne.n	80061d4 <_printf_float+0xf0>
 8006254:	2b00      	cmp	r3, #0
 8006256:	d1bd      	bne.n	80061d4 <_printf_float+0xf0>
 8006258:	2301      	movs	r3, #1
 800625a:	e7ba      	b.n	80061d2 <_printf_float+0xee>
 800625c:	f1ba 0f65 	cmp.w	sl, #101	@ 0x65
 8006260:	d9dc      	bls.n	800621c <_printf_float+0x138>
 8006262:	f1ba 0f66 	cmp.w	sl, #102	@ 0x66
 8006266:	d118      	bne.n	800629a <_printf_float+0x1b6>
 8006268:	2900      	cmp	r1, #0
 800626a:	6863      	ldr	r3, [r4, #4]
 800626c:	dd0b      	ble.n	8006286 <_printf_float+0x1a2>
 800626e:	6121      	str	r1, [r4, #16]
 8006270:	b913      	cbnz	r3, 8006278 <_printf_float+0x194>
 8006272:	6822      	ldr	r2, [r4, #0]
 8006274:	07d0      	lsls	r0, r2, #31
 8006276:	d502      	bpl.n	800627e <_printf_float+0x19a>
 8006278:	3301      	adds	r3, #1
 800627a:	440b      	add	r3, r1
 800627c:	6123      	str	r3, [r4, #16]
 800627e:	f04f 0900 	mov.w	r9, #0
 8006282:	65a1      	str	r1, [r4, #88]	@ 0x58
 8006284:	e7dc      	b.n	8006240 <_printf_float+0x15c>
 8006286:	b913      	cbnz	r3, 800628e <_printf_float+0x1aa>
 8006288:	6822      	ldr	r2, [r4, #0]
 800628a:	07d2      	lsls	r2, r2, #31
 800628c:	d501      	bpl.n	8006292 <_printf_float+0x1ae>
 800628e:	3302      	adds	r3, #2
 8006290:	e7f4      	b.n	800627c <_printf_float+0x198>
 8006292:	2301      	movs	r3, #1
 8006294:	e7f2      	b.n	800627c <_printf_float+0x198>
 8006296:	f04f 0a67 	mov.w	sl, #103	@ 0x67
 800629a:	9b0e      	ldr	r3, [sp, #56]	@ 0x38
 800629c:	4299      	cmp	r1, r3
 800629e:	db05      	blt.n	80062ac <_printf_float+0x1c8>
 80062a0:	6823      	ldr	r3, [r4, #0]
 80062a2:	6121      	str	r1, [r4, #16]
 80062a4:	07d8      	lsls	r0, r3, #31
 80062a6:	d5ea      	bpl.n	800627e <_printf_float+0x19a>
 80062a8:	1c4b      	adds	r3, r1, #1
 80062aa:	e7e7      	b.n	800627c <_printf_float+0x198>
 80062ac:	2900      	cmp	r1, #0
 80062ae:	bfcc      	ite	gt
 80062b0:	2201      	movgt	r2, #1
 80062b2:	f1c1 0202 	rsble	r2, r1, #2
 80062b6:	4413      	add	r3, r2
 80062b8:	e7e0      	b.n	800627c <_printf_float+0x198>
 80062ba:	6823      	ldr	r3, [r4, #0]
 80062bc:	055a      	lsls	r2, r3, #21
 80062be:	d407      	bmi.n	80062d0 <_printf_float+0x1ec>
 80062c0:	6923      	ldr	r3, [r4, #16]
 80062c2:	4642      	mov	r2, r8
 80062c4:	4631      	mov	r1, r6
 80062c6:	4628      	mov	r0, r5
 80062c8:	47b8      	blx	r7
 80062ca:	3001      	adds	r0, #1
 80062cc:	d12b      	bne.n	8006326 <_printf_float+0x242>
 80062ce:	e764      	b.n	800619a <_printf_float+0xb6>
 80062d0:	f1ba 0f65 	cmp.w	sl, #101	@ 0x65
 80062d4:	f240 80dc 	bls.w	8006490 <_printf_float+0x3ac>
 80062d8:	e9d4 0112 	ldrd	r0, r1, [r4, #72]	@ 0x48
 80062dc:	2200      	movs	r2, #0
 80062de:	2300      	movs	r3, #0
 80062e0:	f7fa fb62 	bl	80009a8 <__aeabi_dcmpeq>
 80062e4:	2800      	cmp	r0, #0
 80062e6:	d033      	beq.n	8006350 <_printf_float+0x26c>
 80062e8:	2301      	movs	r3, #1
 80062ea:	4631      	mov	r1, r6
 80062ec:	4628      	mov	r0, r5
 80062ee:	4a35      	ldr	r2, [pc, #212]	@ (80063c4 <_printf_float+0x2e0>)
 80062f0:	47b8      	blx	r7
 80062f2:	3001      	adds	r0, #1
 80062f4:	f43f af51 	beq.w	800619a <_printf_float+0xb6>
 80062f8:	e9dd 380d 	ldrd	r3, r8, [sp, #52]	@ 0x34
 80062fc:	4543      	cmp	r3, r8
 80062fe:	db02      	blt.n	8006306 <_printf_float+0x222>
 8006300:	6823      	ldr	r3, [r4, #0]
 8006302:	07d8      	lsls	r0, r3, #31
 8006304:	d50f      	bpl.n	8006326 <_printf_float+0x242>
 8006306:	e9dd 2308 	ldrd	r2, r3, [sp, #32]
 800630a:	4631      	mov	r1, r6
 800630c:	4628      	mov	r0, r5
 800630e:	47b8      	blx	r7
 8006310:	3001      	adds	r0, #1
 8006312:	f43f af42 	beq.w	800619a <_printf_float+0xb6>
 8006316:	f04f 0900 	mov.w	r9, #0
 800631a:	f108 38ff 	add.w	r8, r8, #4294967295	@ 0xffffffff
 800631e:	f104 0a1a 	add.w	sl, r4, #26
 8006322:	45c8      	cmp	r8, r9
 8006324:	dc09      	bgt.n	800633a <_printf_float+0x256>
 8006326:	6823      	ldr	r3, [r4, #0]
 8006328:	079b      	lsls	r3, r3, #30
 800632a:	f100 8102 	bmi.w	8006532 <_printf_float+0x44e>
 800632e:	68e0      	ldr	r0, [r4, #12]
 8006330:	9b0f      	ldr	r3, [sp, #60]	@ 0x3c
 8006332:	4298      	cmp	r0, r3
 8006334:	bfb8      	it	lt
 8006336:	4618      	movlt	r0, r3
 8006338:	e731      	b.n	800619e <_printf_float+0xba>
 800633a:	2301      	movs	r3, #1
 800633c:	4652      	mov	r2, sl
 800633e:	4631      	mov	r1, r6
 8006340:	4628      	mov	r0, r5
 8006342:	47b8      	blx	r7
 8006344:	3001      	adds	r0, #1
 8006346:	f43f af28 	beq.w	800619a <_printf_float+0xb6>
 800634a:	f109 0901 	add.w	r9, r9, #1
 800634e:	e7e8      	b.n	8006322 <_printf_float+0x23e>
 8006350:	9b0d      	ldr	r3, [sp, #52]	@ 0x34
 8006352:	2b00      	cmp	r3, #0
 8006354:	dc38      	bgt.n	80063c8 <_printf_float+0x2e4>
 8006356:	2301      	movs	r3, #1
 8006358:	4631      	mov	r1, r6
 800635a:	4628      	mov	r0, r5
 800635c:	4a19      	ldr	r2, [pc, #100]	@ (80063c4 <_printf_float+0x2e0>)
 800635e:	47b8      	blx	r7
 8006360:	3001      	adds	r0, #1
 8006362:	f43f af1a 	beq.w	800619a <_printf_float+0xb6>
 8006366:	e9dd 390d 	ldrd	r3, r9, [sp, #52]	@ 0x34
 800636a:	ea59 0303 	orrs.w	r3, r9, r3
 800636e:	d102      	bne.n	8006376 <_printf_float+0x292>
 8006370:	6823      	ldr	r3, [r4, #0]
 8006372:	07d9      	lsls	r1, r3, #31
 8006374:	d5d7      	bpl.n	8006326 <_printf_float+0x242>
 8006376:	e9dd 2308 	ldrd	r2, r3, [sp, #32]
 800637a:	4631      	mov	r1, r6
 800637c:	4628      	mov	r0, r5
 800637e:	47b8      	blx	r7
 8006380:	3001      	adds	r0, #1
 8006382:	f43f af0a 	beq.w	800619a <_printf_float+0xb6>
 8006386:	f04f 0a00 	mov.w	sl, #0
 800638a:	f104 0b1a 	add.w	fp, r4, #26
 800638e:	9b0d      	ldr	r3, [sp, #52]	@ 0x34
 8006390:	425b      	negs	r3, r3
 8006392:	4553      	cmp	r3, sl
 8006394:	dc01      	bgt.n	800639a <_printf_float+0x2b6>
 8006396:	464b      	mov	r3, r9
 8006398:	e793      	b.n	80062c2 <_printf_float+0x1de>
 800639a:	2301      	movs	r3, #1
 800639c:	465a      	mov	r2, fp
 800639e:	4631      	mov	r1, r6
 80063a0:	4628      	mov	r0, r5
 80063a2:	47b8      	blx	r7
 80063a4:	3001      	adds	r0, #1
 80063a6:	f43f aef8 	beq.w	800619a <_printf_float+0xb6>
 80063aa:	f10a 0a01 	add.w	sl, sl, #1
 80063ae:	e7ee      	b.n	800638e <_printf_float+0x2aa>
 80063b0:	7fefffff 	.word	0x7fefffff
 80063b4:	08008c22 	.word	0x08008c22
 80063b8:	08008c26 	.word	0x08008c26
 80063bc:	08008c2a 	.word	0x08008c2a
 80063c0:	08008c2e 	.word	0x08008c2e
 80063c4:	08008c32 	.word	0x08008c32
 80063c8:	6da3      	ldr	r3, [r4, #88]	@ 0x58
 80063ca:	f8dd a038 	ldr.w	sl, [sp, #56]	@ 0x38
 80063ce:	4553      	cmp	r3, sl
 80063d0:	bfa8      	it	ge
 80063d2:	4653      	movge	r3, sl
 80063d4:	2b00      	cmp	r3, #0
 80063d6:	4699      	mov	r9, r3
 80063d8:	dc36      	bgt.n	8006448 <_printf_float+0x364>
 80063da:	f04f 0b00 	mov.w	fp, #0
 80063de:	ea29 79e9 	bic.w	r9, r9, r9, asr #31
 80063e2:	f104 021a 	add.w	r2, r4, #26
 80063e6:	6da3      	ldr	r3, [r4, #88]	@ 0x58
 80063e8:	930a      	str	r3, [sp, #40]	@ 0x28
 80063ea:	eba3 0309 	sub.w	r3, r3, r9
 80063ee:	455b      	cmp	r3, fp
 80063f0:	dc31      	bgt.n	8006456 <_printf_float+0x372>
 80063f2:	9b0d      	ldr	r3, [sp, #52]	@ 0x34
 80063f4:	459a      	cmp	sl, r3
 80063f6:	dc3a      	bgt.n	800646e <_printf_float+0x38a>
 80063f8:	6823      	ldr	r3, [r4, #0]
 80063fa:	07da      	lsls	r2, r3, #31
 80063fc:	d437      	bmi.n	800646e <_printf_float+0x38a>
 80063fe:	9b0d      	ldr	r3, [sp, #52]	@ 0x34
 8006400:	ebaa 0903 	sub.w	r9, sl, r3
 8006404:	9b0a      	ldr	r3, [sp, #40]	@ 0x28
 8006406:	ebaa 0303 	sub.w	r3, sl, r3
 800640a:	4599      	cmp	r9, r3
 800640c:	bfa8      	it	ge
 800640e:	4699      	movge	r9, r3
 8006410:	f1b9 0f00 	cmp.w	r9, #0
 8006414:	dc33      	bgt.n	800647e <_printf_float+0x39a>
 8006416:	f04f 0800 	mov.w	r8, #0
 800641a:	ea29 79e9 	bic.w	r9, r9, r9, asr #31
 800641e:	f104 0b1a 	add.w	fp, r4, #26
 8006422:	9b0d      	ldr	r3, [sp, #52]	@ 0x34
 8006424:	ebaa 0303 	sub.w	r3, sl, r3
 8006428:	eba3 0309 	sub.w	r3, r3, r9
 800642c:	4543      	cmp	r3, r8
 800642e:	f77f af7a 	ble.w	8006326 <_printf_float+0x242>
 8006432:	2301      	movs	r3, #1
 8006434:	465a      	mov	r2, fp
 8006436:	4631      	mov	r1, r6
 8006438:	4628      	mov	r0, r5
 800643a:	47b8      	blx	r7
 800643c:	3001      	adds	r0, #1
 800643e:	f43f aeac 	beq.w	800619a <_printf_float+0xb6>
 8006442:	f108 0801 	add.w	r8, r8, #1
 8006446:	e7ec      	b.n	8006422 <_printf_float+0x33e>
 8006448:	4642      	mov	r2, r8
 800644a:	4631      	mov	r1, r6
 800644c:	4628      	mov	r0, r5
 800644e:	47b8      	blx	r7
 8006450:	3001      	adds	r0, #1
 8006452:	d1c2      	bne.n	80063da <_printf_float+0x2f6>
 8006454:	e6a1      	b.n	800619a <_printf_float+0xb6>
 8006456:	2301      	movs	r3, #1
 8006458:	4631      	mov	r1, r6
 800645a:	4628      	mov	r0, r5
 800645c:	920a      	str	r2, [sp, #40]	@ 0x28
 800645e:	47b8      	blx	r7
 8006460:	3001      	adds	r0, #1
 8006462:	f43f ae9a 	beq.w	800619a <_printf_float+0xb6>
 8006466:	9a0a      	ldr	r2, [sp, #40]	@ 0x28
 8006468:	f10b 0b01 	add.w	fp, fp, #1
 800646c:	e7bb      	b.n	80063e6 <_printf_float+0x302>
 800646e:	4631      	mov	r1, r6
 8006470:	e9dd 2308 	ldrd	r2, r3, [sp, #32]
 8006474:	4628      	mov	r0, r5
 8006476:	47b8      	blx	r7
 8006478:	3001      	adds	r0, #1
 800647a:	d1c0      	bne.n	80063fe <_printf_float+0x31a>
 800647c:	e68d      	b.n	800619a <_printf_float+0xb6>
 800647e:	9a0a      	ldr	r2, [sp, #40]	@ 0x28
 8006480:	464b      	mov	r3, r9
 8006482:	4631      	mov	r1, r6
 8006484:	4628      	mov	r0, r5
 8006486:	4442      	add	r2, r8
 8006488:	47b8      	blx	r7
 800648a:	3001      	adds	r0, #1
 800648c:	d1c3      	bne.n	8006416 <_printf_float+0x332>
 800648e:	e684      	b.n	800619a <_printf_float+0xb6>
 8006490:	f8dd a038 	ldr.w	sl, [sp, #56]	@ 0x38
 8006494:	f1ba 0f01 	cmp.w	sl, #1
 8006498:	dc01      	bgt.n	800649e <_printf_float+0x3ba>
 800649a:	07db      	lsls	r3, r3, #31
 800649c:	d536      	bpl.n	800650c <_printf_float+0x428>
 800649e:	2301      	movs	r3, #1
 80064a0:	4642      	mov	r2, r8
 80064a2:	4631      	mov	r1, r6
 80064a4:	4628      	mov	r0, r5
 80064a6:	47b8      	blx	r7
 80064a8:	3001      	adds	r0, #1
 80064aa:	f43f ae76 	beq.w	800619a <_printf_float+0xb6>
 80064ae:	e9dd 2308 	ldrd	r2, r3, [sp, #32]
 80064b2:	4631      	mov	r1, r6
 80064b4:	4628      	mov	r0, r5
 80064b6:	47b8      	blx	r7
 80064b8:	3001      	adds	r0, #1
 80064ba:	f43f ae6e 	beq.w	800619a <_printf_float+0xb6>
 80064be:	e9d4 0112 	ldrd	r0, r1, [r4, #72]	@ 0x48
 80064c2:	2200      	movs	r2, #0
 80064c4:	2300      	movs	r3, #0
 80064c6:	f10a 3aff 	add.w	sl, sl, #4294967295	@ 0xffffffff
 80064ca:	f7fa fa6d 	bl	80009a8 <__aeabi_dcmpeq>
 80064ce:	b9c0      	cbnz	r0, 8006502 <_printf_float+0x41e>
 80064d0:	4653      	mov	r3, sl
 80064d2:	f108 0201 	add.w	r2, r8, #1
 80064d6:	4631      	mov	r1, r6
 80064d8:	4628      	mov	r0, r5
 80064da:	47b8      	blx	r7
 80064dc:	3001      	adds	r0, #1
 80064de:	d10c      	bne.n	80064fa <_printf_float+0x416>
 80064e0:	e65b      	b.n	800619a <_printf_float+0xb6>
 80064e2:	2301      	movs	r3, #1
 80064e4:	465a      	mov	r2, fp
 80064e6:	4631      	mov	r1, r6
 80064e8:	4628      	mov	r0, r5
 80064ea:	47b8      	blx	r7
 80064ec:	3001      	adds	r0, #1
 80064ee:	f43f ae54 	beq.w	800619a <_printf_float+0xb6>
 80064f2:	f108 0801 	add.w	r8, r8, #1
 80064f6:	45d0      	cmp	r8, sl
 80064f8:	dbf3      	blt.n	80064e2 <_printf_float+0x3fe>
 80064fa:	464b      	mov	r3, r9
 80064fc:	f104 0250 	add.w	r2, r4, #80	@ 0x50
 8006500:	e6e0      	b.n	80062c4 <_printf_float+0x1e0>
 8006502:	f04f 0800 	mov.w	r8, #0
 8006506:	f104 0b1a 	add.w	fp, r4, #26
 800650a:	e7f4      	b.n	80064f6 <_printf_float+0x412>
 800650c:	2301      	movs	r3, #1
 800650e:	4642      	mov	r2, r8
 8006510:	e7e1      	b.n	80064d6 <_printf_float+0x3f2>
 8006512:	2301      	movs	r3, #1
 8006514:	464a      	mov	r2, r9
 8006516:	4631      	mov	r1, r6
 8006518:	4628      	mov	r0, r5
 800651a:	47b8      	blx	r7
 800651c:	3001      	adds	r0, #1
 800651e:	f43f ae3c 	beq.w	800619a <_printf_float+0xb6>
 8006522:	f108 0801 	add.w	r8, r8, #1
 8006526:	68e3      	ldr	r3, [r4, #12]
 8006528:	990f      	ldr	r1, [sp, #60]	@ 0x3c
 800652a:	1a5b      	subs	r3, r3, r1
 800652c:	4543      	cmp	r3, r8
 800652e:	dcf0      	bgt.n	8006512 <_printf_float+0x42e>
 8006530:	e6fd      	b.n	800632e <_printf_float+0x24a>
 8006532:	f04f 0800 	mov.w	r8, #0
 8006536:	f104 0919 	add.w	r9, r4, #25
 800653a:	e7f4      	b.n	8006526 <_printf_float+0x442>

0800653c <malloc>:
 800653c:	4b02      	ldr	r3, [pc, #8]	@ (8006548 <malloc+0xc>)
 800653e:	4601      	mov	r1, r0
 8006540:	6818      	ldr	r0, [r3, #0]
 8006542:	f000 b82d 	b.w	80065a0 <_malloc_r>
 8006546:	bf00      	nop
 8006548:	2000004c 	.word	0x2000004c

0800654c <free>:
 800654c:	4b02      	ldr	r3, [pc, #8]	@ (8006558 <free+0xc>)
 800654e:	4601      	mov	r1, r0
 8006550:	6818      	ldr	r0, [r3, #0]
 8006552:	f001 ba61 	b.w	8007a18 <_free_r>
 8006556:	bf00      	nop
 8006558:	2000004c 	.word	0x2000004c

0800655c <sbrk_aligned>:
 800655c:	b570      	push	{r4, r5, r6, lr}
 800655e:	4e0f      	ldr	r6, [pc, #60]	@ (800659c <sbrk_aligned+0x40>)
 8006560:	460c      	mov	r4, r1
 8006562:	6831      	ldr	r1, [r6, #0]
 8006564:	4605      	mov	r5, r0
 8006566:	b911      	cbnz	r1, 800656e <sbrk_aligned+0x12>
 8006568:	f000 fbba 	bl	8006ce0 <_sbrk_r>
 800656c:	6030      	str	r0, [r6, #0]
 800656e:	4621      	mov	r1, r4
 8006570:	4628      	mov	r0, r5
 8006572:	f000 fbb5 	bl	8006ce0 <_sbrk_r>
 8006576:	1c43      	adds	r3, r0, #1
 8006578:	d103      	bne.n	8006582 <sbrk_aligned+0x26>
 800657a:	f04f 34ff 	mov.w	r4, #4294967295	@ 0xffffffff
 800657e:	4620      	mov	r0, r4
 8006580:	bd70      	pop	{r4, r5, r6, pc}
 8006582:	1cc4      	adds	r4, r0, #3
 8006584:	f024 0403 	bic.w	r4, r4, #3
 8006588:	42a0      	cmp	r0, r4
 800658a:	d0f8      	beq.n	800657e <sbrk_aligned+0x22>
 800658c:	1a21      	subs	r1, r4, r0
 800658e:	4628      	mov	r0, r5
 8006590:	f000 fba6 	bl	8006ce0 <_sbrk_r>
 8006594:	3001      	adds	r0, #1
 8006596:	d1f2      	bne.n	800657e <sbrk_aligned+0x22>
 8006598:	e7ef      	b.n	800657a <sbrk_aligned+0x1e>
 800659a:	bf00      	nop
 800659c:	20000390 	.word	0x20000390

080065a0 <_malloc_r>:
 80065a0:	e92d 43f8 	stmdb	sp!, {r3, r4, r5, r6, r7, r8, r9, lr}
 80065a4:	1ccd      	adds	r5, r1, #3
 80065a6:	f025 0503 	bic.w	r5, r5, #3
 80065aa:	3508      	adds	r5, #8
 80065ac:	2d0c      	cmp	r5, #12
 80065ae:	bf38      	it	cc
 80065b0:	250c      	movcc	r5, #12
 80065b2:	2d00      	cmp	r5, #0
 80065b4:	4606      	mov	r6, r0
 80065b6:	db01      	blt.n	80065bc <_malloc_r+0x1c>
 80065b8:	42a9      	cmp	r1, r5
 80065ba:	d904      	bls.n	80065c6 <_malloc_r+0x26>
 80065bc:	230c      	movs	r3, #12
 80065be:	6033      	str	r3, [r6, #0]
 80065c0:	2000      	movs	r0, #0
 80065c2:	e8bd 83f8 	ldmia.w	sp!, {r3, r4, r5, r6, r7, r8, r9, pc}
 80065c6:	f8df 80d4 	ldr.w	r8, [pc, #212]	@ 800669c <_malloc_r+0xfc>
 80065ca:	f000 f9fb 	bl	80069c4 <__malloc_lock>
 80065ce:	f8d8 3000 	ldr.w	r3, [r8]
 80065d2:	461c      	mov	r4, r3
 80065d4:	bb44      	cbnz	r4, 8006628 <_malloc_r+0x88>
 80065d6:	4629      	mov	r1, r5
 80065d8:	4630      	mov	r0, r6
 80065da:	f7ff ffbf 	bl	800655c <sbrk_aligned>
 80065de:	1c43      	adds	r3, r0, #1
 80065e0:	4604      	mov	r4, r0
 80065e2:	d158      	bne.n	8006696 <_malloc_r+0xf6>
 80065e4:	f8d8 4000 	ldr.w	r4, [r8]
 80065e8:	4627      	mov	r7, r4
 80065ea:	2f00      	cmp	r7, #0
 80065ec:	d143      	bne.n	8006676 <_malloc_r+0xd6>
 80065ee:	2c00      	cmp	r4, #0
 80065f0:	d04b      	beq.n	800668a <_malloc_r+0xea>
 80065f2:	6823      	ldr	r3, [r4, #0]
 80065f4:	4639      	mov	r1, r7
 80065f6:	4630      	mov	r0, r6
 80065f8:	eb04 0903 	add.w	r9, r4, r3
 80065fc:	f000 fb70 	bl	8006ce0 <_sbrk_r>
 8006600:	4581      	cmp	r9, r0
 8006602:	d142      	bne.n	800668a <_malloc_r+0xea>
 8006604:	6821      	ldr	r1, [r4, #0]
 8006606:	4630      	mov	r0, r6
 8006608:	1a6d      	subs	r5, r5, r1
 800660a:	4629      	mov	r1, r5
 800660c:	f7ff ffa6 	bl	800655c <sbrk_aligned>
 8006610:	3001      	adds	r0, #1
 8006612:	d03a      	beq.n	800668a <_malloc_r+0xea>
 8006614:	6823      	ldr	r3, [r4, #0]
 8006616:	442b      	add	r3, r5
 8006618:	6023      	str	r3, [r4, #0]
 800661a:	f8d8 3000 	ldr.w	r3, [r8]
 800661e:	685a      	ldr	r2, [r3, #4]
 8006620:	bb62      	cbnz	r2, 800667c <_malloc_r+0xdc>
 8006622:	f8c8 7000 	str.w	r7, [r8]
 8006626:	e00f      	b.n	8006648 <_malloc_r+0xa8>
 8006628:	6822      	ldr	r2, [r4, #0]
 800662a:	1b52      	subs	r2, r2, r5
 800662c:	d420      	bmi.n	8006670 <_malloc_r+0xd0>
 800662e:	2a0b      	cmp	r2, #11
 8006630:	d917      	bls.n	8006662 <_malloc_r+0xc2>
 8006632:	1961      	adds	r1, r4, r5
 8006634:	42a3      	cmp	r3, r4
 8006636:	6025      	str	r5, [r4, #0]
 8006638:	bf18      	it	ne
 800663a:	6059      	strne	r1, [r3, #4]
 800663c:	6863      	ldr	r3, [r4, #4]
 800663e:	bf08      	it	eq
 8006640:	f8c8 1000 	streq.w	r1, [r8]
 8006644:	5162      	str	r2, [r4, r5]
 8006646:	604b      	str	r3, [r1, #4]
 8006648:	4630      	mov	r0, r6
 800664a:	f000 f9c1 	bl	80069d0 <__malloc_unlock>
 800664e:	f104 000b 	add.w	r0, r4, #11
 8006652:	1d23      	adds	r3, r4, #4
 8006654:	f020 0007 	bic.w	r0, r0, #7
 8006658:	1ac2      	subs	r2, r0, r3
 800665a:	bf1c      	itt	ne
 800665c:	1a1b      	subne	r3, r3, r0
 800665e:	50a3      	strne	r3, [r4, r2]
 8006660:	e7af      	b.n	80065c2 <_malloc_r+0x22>
 8006662:	6862      	ldr	r2, [r4, #4]
 8006664:	42a3      	cmp	r3, r4
 8006666:	bf0c      	ite	eq
 8006668:	f8c8 2000 	streq.w	r2, [r8]
 800666c:	605a      	strne	r2, [r3, #4]
 800666e:	e7eb      	b.n	8006648 <_malloc_r+0xa8>
 8006670:	4623      	mov	r3, r4
 8006672:	6864      	ldr	r4, [r4, #4]
 8006674:	e7ae      	b.n	80065d4 <_malloc_r+0x34>
 8006676:	463c      	mov	r4, r7
 8006678:	687f      	ldr	r7, [r7, #4]
 800667a:	e7b6      	b.n	80065ea <_malloc_r+0x4a>
 800667c:	461a      	mov	r2, r3
 800667e:	685b      	ldr	r3, [r3, #4]
 8006680:	42a3      	cmp	r3, r4
 8006682:	d1fb      	bne.n	800667c <_malloc_r+0xdc>
 8006684:	2300      	movs	r3, #0
 8006686:	6053      	str	r3, [r2, #4]
 8006688:	e7de      	b.n	8006648 <_malloc_r+0xa8>
 800668a:	230c      	movs	r3, #12
 800668c:	4630      	mov	r0, r6
 800668e:	6033      	str	r3, [r6, #0]
 8006690:	f000 f99e 	bl	80069d0 <__malloc_unlock>
 8006694:	e794      	b.n	80065c0 <_malloc_r+0x20>
 8006696:	6005      	str	r5, [r0, #0]
 8006698:	e7d6      	b.n	8006648 <_malloc_r+0xa8>
 800669a:	bf00      	nop
 800669c:	20000394 	.word	0x20000394

080066a0 <_printf_common>:
 80066a0:	e92d 47f0 	stmdb	sp!, {r4, r5, r6, r7, r8, r9, sl, lr}
 80066a4:	4616      	mov	r6, r2
 80066a6:	4698      	mov	r8, r3
 80066a8:	688a      	ldr	r2, [r1, #8]
 80066aa:	690b      	ldr	r3, [r1, #16]
 80066ac:	4607      	mov	r7, r0
 80066ae:	4293      	cmp	r3, r2
 80066b0:	bfb8      	it	lt
 80066b2:	4613      	movlt	r3, r2
 80066b4:	6033      	str	r3, [r6, #0]
 80066b6:	f891 2043 	ldrb.w	r2, [r1, #67]	@ 0x43
 80066ba:	460c      	mov	r4, r1
 80066bc:	f8dd 9020 	ldr.w	r9, [sp, #32]
 80066c0:	b10a      	cbz	r2, 80066c6 <_printf_common+0x26>
 80066c2:	3301      	adds	r3, #1
 80066c4:	6033      	str	r3, [r6, #0]
 80066c6:	6823      	ldr	r3, [r4, #0]
 80066c8:	0699      	lsls	r1, r3, #26
 80066ca:	bf42      	ittt	mi
 80066cc:	6833      	ldrmi	r3, [r6, #0]
 80066ce:	3302      	addmi	r3, #2
 80066d0:	6033      	strmi	r3, [r6, #0]
 80066d2:	6825      	ldr	r5, [r4, #0]
 80066d4:	f015 0506 	ands.w	r5, r5, #6
 80066d8:	d106      	bne.n	80066e8 <_printf_common+0x48>
 80066da:	f104 0a19 	add.w	sl, r4, #25
 80066de:	68e3      	ldr	r3, [r4, #12]
 80066e0:	6832      	ldr	r2, [r6, #0]
 80066e2:	1a9b      	subs	r3, r3, r2
 80066e4:	42ab      	cmp	r3, r5
 80066e6:	dc2b      	bgt.n	8006740 <_printf_common+0xa0>
 80066e8:	f894 3043 	ldrb.w	r3, [r4, #67]	@ 0x43
 80066ec:	6822      	ldr	r2, [r4, #0]
 80066ee:	3b00      	subs	r3, #0
 80066f0:	bf18      	it	ne
 80066f2:	2301      	movne	r3, #1
 80066f4:	0692      	lsls	r2, r2, #26
 80066f6:	d430      	bmi.n	800675a <_printf_common+0xba>
 80066f8:	4641      	mov	r1, r8
 80066fa:	4638      	mov	r0, r7
 80066fc:	f104 0243 	add.w	r2, r4, #67	@ 0x43
 8006700:	47c8      	blx	r9
 8006702:	3001      	adds	r0, #1
 8006704:	d023      	beq.n	800674e <_printf_common+0xae>
 8006706:	6823      	ldr	r3, [r4, #0]
 8006708:	6922      	ldr	r2, [r4, #16]
 800670a:	f003 0306 	and.w	r3, r3, #6
 800670e:	2b04      	cmp	r3, #4
 8006710:	bf14      	ite	ne
 8006712:	2500      	movne	r5, #0
 8006714:	6833      	ldreq	r3, [r6, #0]
 8006716:	f04f 0600 	mov.w	r6, #0
 800671a:	bf08      	it	eq
 800671c:	68e5      	ldreq	r5, [r4, #12]
 800671e:	f104 041a 	add.w	r4, r4, #26
 8006722:	bf08      	it	eq
 8006724:	1aed      	subeq	r5, r5, r3
 8006726:	f854 3c12 	ldr.w	r3, [r4, #-18]
 800672a:	bf08      	it	eq
 800672c:	ea25 75e5 	biceq.w	r5, r5, r5, asr #31
 8006730:	4293      	cmp	r3, r2
 8006732:	bfc4      	itt	gt
 8006734:	1a9b      	subgt	r3, r3, r2
 8006736:	18ed      	addgt	r5, r5, r3
 8006738:	42b5      	cmp	r5, r6
 800673a:	d11a      	bne.n	8006772 <_printf_common+0xd2>
 800673c:	2000      	movs	r0, #0
 800673e:	e008      	b.n	8006752 <_printf_common+0xb2>
 8006740:	2301      	movs	r3, #1
 8006742:	4652      	mov	r2, sl
 8006744:	4641      	mov	r1, r8
 8006746:	4638      	mov	r0, r7
 8006748:	47c8      	blx	r9
 800674a:	3001      	adds	r0, #1
 800674c:	d103      	bne.n	8006756 <_printf_common+0xb6>
 800674e:	f04f 30ff 	mov.w	r0, #4294967295	@ 0xffffffff
 8006752:	e8bd 87f0 	ldmia.w	sp!, {r4, r5, r6, r7, r8, r9, sl, pc}
 8006756:	3501      	adds	r5, #1
 8006758:	e7c1      	b.n	80066de <_printf_common+0x3e>
 800675a:	2030      	movs	r0, #48	@ 0x30
 800675c:	18e1      	adds	r1, r4, r3
 800675e:	f881 0043 	strb.w	r0, [r1, #67]	@ 0x43
 8006762:	1c5a      	adds	r2, r3, #1
 8006764:	f894 1045 	ldrb.w	r1, [r4, #69]	@ 0x45
 8006768:	4422      	add	r2, r4
 800676a:	3302      	adds	r3, #2
 800676c:	f882 1043 	strb.w	r1, [r2, #67]	@ 0x43
 8006770:	e7c2      	b.n	80066f8 <_printf_common+0x58>
 8006772:	2301      	movs	r3, #1
 8006774:	4622      	mov	r2, r4
 8006776:	4641      	mov	r1, r8
 8006778:	4638      	mov	r0, r7
 800677a:	47c8      	blx	r9
 800677c:	3001      	adds	r0, #1
 800677e:	d0e6      	beq.n	800674e <_printf_common+0xae>
 8006780:	3601      	adds	r6, #1
 8006782:	e7d9      	b.n	8006738 <_printf_common+0x98>

08006784 <_printf_i>:
 8006784:	e92d 47ff 	stmdb	sp!, {r0, r1, r2, r3, r4, r5, r6, r7, r8, r9, sl, lr}
 8006788:	7e0f      	ldrb	r7, [r1, #24]
 800678a:	4691      	mov	r9, r2
 800678c:	2f78      	cmp	r7, #120	@ 0x78
 800678e:	4680      	mov	r8, r0
 8006790:	460c      	mov	r4, r1
 8006792:	469a      	mov	sl, r3
 8006794:	9e0c      	ldr	r6, [sp, #48]	@ 0x30
 8006796:	f101 0243 	add.w	r2, r1, #67	@ 0x43
 800679a:	d807      	bhi.n	80067ac <_printf_i+0x28>
 800679c:	2f62      	cmp	r7, #98	@ 0x62
 800679e:	d80a      	bhi.n	80067b6 <_printf_i+0x32>
 80067a0:	2f00      	cmp	r7, #0
 80067a2:	f000 80d3 	beq.w	800694c <_printf_i+0x1c8>
 80067a6:	2f58      	cmp	r7, #88	@ 0x58
 80067a8:	f000 80ba 	beq.w	8006920 <_printf_i+0x19c>
 80067ac:	f104 0642 	add.w	r6, r4, #66	@ 0x42
 80067b0:	f884 7042 	strb.w	r7, [r4, #66]	@ 0x42
 80067b4:	e03a      	b.n	800682c <_printf_i+0xa8>
 80067b6:	f1a7 0363 	sub.w	r3, r7, #99	@ 0x63
 80067ba:	2b15      	cmp	r3, #21
 80067bc:	d8f6      	bhi.n	80067ac <_printf_i+0x28>
 80067be:	a101      	add	r1, pc, #4	@ (adr r1, 80067c4 <_printf_i+0x40>)
 80067c0:	f851 f023 	ldr.w	pc, [r1, r3, lsl #2]
 80067c4:	0800681d 	.word	0x0800681d
 80067c8:	08006831 	.word	0x08006831
 80067cc:	080067ad 	.word	0x080067ad
 80067d0:	080067ad 	.word	0x080067ad
 80067d4:	080067ad 	.word	0x080067ad
 80067d8:	080067ad 	.word	0x080067ad
 80067dc:	08006831 	.word	0x08006831
 80067e0:	080067ad 	.word	0x080067ad
 80067e4:	080067ad 	.word	0x080067ad
 80067e8:	080067ad 	.word	0x080067ad
 80067ec:	080067ad 	.word	0x080067ad
 80067f0:	08006933 	.word	0x08006933
 80067f4:	0800685b 	.word	0x0800685b
 80067f8:	080068ed 	.word	0x080068ed
 80067fc:	080067ad 	.word	0x080067ad
 8006800:	080067ad 	.word	0x080067ad
 8006804:	08006955 	.word	0x08006955
 8006808:	080067ad 	.word	0x080067ad
 800680c:	0800685b 	.word	0x0800685b
 8006810:	080067ad 	.word	0x080067ad
 8006814:	080067ad 	.word	0x080067ad
 8006818:	080068f5 	.word	0x080068f5
 800681c:	6833      	ldr	r3, [r6, #0]
 800681e:	1d1a      	adds	r2, r3, #4
 8006820:	681b      	ldr	r3, [r3, #0]
 8006822:	6032      	str	r2, [r6, #0]
 8006824:	f104 0642 	add.w	r6, r4, #66	@ 0x42
 8006828:	f884 3042 	strb.w	r3, [r4, #66]	@ 0x42
 800682c:	2301      	movs	r3, #1
 800682e:	e09e      	b.n	800696e <_printf_i+0x1ea>
 8006830:	6833      	ldr	r3, [r6, #0]
 8006832:	6820      	ldr	r0, [r4, #0]
 8006834:	1d19      	adds	r1, r3, #4
 8006836:	6031      	str	r1, [r6, #0]
 8006838:	0606      	lsls	r6, r0, #24
 800683a:	d501      	bpl.n	8006840 <_printf_i+0xbc>
 800683c:	681d      	ldr	r5, [r3, #0]
 800683e:	e003      	b.n	8006848 <_printf_i+0xc4>
 8006840:	0645      	lsls	r5, r0, #25
 8006842:	d5fb      	bpl.n	800683c <_printf_i+0xb8>
 8006844:	f9b3 5000 	ldrsh.w	r5, [r3]
 8006848:	2d00      	cmp	r5, #0
 800684a:	da03      	bge.n	8006854 <_printf_i+0xd0>
 800684c:	232d      	movs	r3, #45	@ 0x2d
 800684e:	426d      	negs	r5, r5
 8006850:	f884 3043 	strb.w	r3, [r4, #67]	@ 0x43
 8006854:	230a      	movs	r3, #10
 8006856:	4859      	ldr	r0, [pc, #356]	@ (80069bc <_printf_i+0x238>)
 8006858:	e011      	b.n	800687e <_printf_i+0xfa>
 800685a:	6821      	ldr	r1, [r4, #0]
 800685c:	6833      	ldr	r3, [r6, #0]
 800685e:	0608      	lsls	r0, r1, #24
 8006860:	f853 5b04 	ldr.w	r5, [r3], #4
 8006864:	d402      	bmi.n	800686c <_printf_i+0xe8>
 8006866:	0649      	lsls	r1, r1, #25
 8006868:	bf48      	it	mi
 800686a:	b2ad      	uxthmi	r5, r5
 800686c:	2f6f      	cmp	r7, #111	@ 0x6f
 800686e:	6033      	str	r3, [r6, #0]
 8006870:	bf14      	ite	ne
 8006872:	230a      	movne	r3, #10
 8006874:	2308      	moveq	r3, #8
 8006876:	4851      	ldr	r0, [pc, #324]	@ (80069bc <_printf_i+0x238>)
 8006878:	2100      	movs	r1, #0
 800687a:	f884 1043 	strb.w	r1, [r4, #67]	@ 0x43
 800687e:	6866      	ldr	r6, [r4, #4]
 8006880:	2e00      	cmp	r6, #0
 8006882:	bfa8      	it	ge
 8006884:	6821      	ldrge	r1, [r4, #0]
 8006886:	60a6      	str	r6, [r4, #8]
 8006888:	bfa4      	itt	ge
 800688a:	f021 0104 	bicge.w	r1, r1, #4
 800688e:	6021      	strge	r1, [r4, #0]
 8006890:	b90d      	cbnz	r5, 8006896 <_printf_i+0x112>
 8006892:	2e00      	cmp	r6, #0
 8006894:	d04b      	beq.n	800692e <_printf_i+0x1aa>
 8006896:	4616      	mov	r6, r2
 8006898:	fbb5 f1f3 	udiv	r1, r5, r3
 800689c:	fb03 5711 	mls	r7, r3, r1, r5
 80068a0:	5dc7      	ldrb	r7, [r0, r7]
 80068a2:	f806 7d01 	strb.w	r7, [r6, #-1]!
 80068a6:	462f      	mov	r7, r5
 80068a8:	42bb      	cmp	r3, r7
 80068aa:	460d      	mov	r5, r1
 80068ac:	d9f4      	bls.n	8006898 <_printf_i+0x114>
 80068ae:	2b08      	cmp	r3, #8
 80068b0:	d10b      	bne.n	80068ca <_printf_i+0x146>
 80068b2:	6823      	ldr	r3, [r4, #0]
 80068b4:	07df      	lsls	r7, r3, #31
 80068b6:	d508      	bpl.n	80068ca <_printf_i+0x146>
 80068b8:	6923      	ldr	r3, [r4, #16]
 80068ba:	6861      	ldr	r1, [r4, #4]
 80068bc:	4299      	cmp	r1, r3
 80068be:	bfde      	ittt	le
 80068c0:	2330      	movle	r3, #48	@ 0x30
 80068c2:	f806 3c01 	strble.w	r3, [r6, #-1]
 80068c6:	f106 36ff 	addle.w	r6, r6, #4294967295	@ 0xffffffff
 80068ca:	1b92      	subs	r2, r2, r6
 80068cc:	6122      	str	r2, [r4, #16]
 80068ce:	464b      	mov	r3, r9
 80068d0:	4621      	mov	r1, r4
 80068d2:	4640      	mov	r0, r8
 80068d4:	f8cd a000 	str.w	sl, [sp]
 80068d8:	aa03      	add	r2, sp, #12
 80068da:	f7ff fee1 	bl	80066a0 <_printf_common>
 80068de:	3001      	adds	r0, #1
 80068e0:	d14a      	bne.n	8006978 <_printf_i+0x1f4>
 80068e2:	f04f 30ff 	mov.w	r0, #4294967295	@ 0xffffffff
 80068e6:	b004      	add	sp, #16
 80068e8:	e8bd 87f0 	ldmia.w	sp!, {r4, r5, r6, r7, r8, r9, sl, pc}
 80068ec:	6823      	ldr	r3, [r4, #0]
 80068ee:	f043 0320 	orr.w	r3, r3, #32
 80068f2:	6023      	str	r3, [r4, #0]
 80068f4:	2778      	movs	r7, #120	@ 0x78
 80068f6:	4832      	ldr	r0, [pc, #200]	@ (80069c0 <_printf_i+0x23c>)
 80068f8:	f884 7045 	strb.w	r7, [r4, #69]	@ 0x45
 80068fc:	6823      	ldr	r3, [r4, #0]
 80068fe:	6831      	ldr	r1, [r6, #0]
 8006900:	061f      	lsls	r7, r3, #24
 8006902:	f851 5b04 	ldr.w	r5, [r1], #4
 8006906:	d402      	bmi.n	800690e <_printf_i+0x18a>
 8006908:	065f      	lsls	r7, r3, #25
 800690a:	bf48      	it	mi
 800690c:	b2ad      	uxthmi	r5, r5
 800690e:	6031      	str	r1, [r6, #0]
 8006910:	07d9      	lsls	r1, r3, #31
 8006912:	bf44      	itt	mi
 8006914:	f043 0320 	orrmi.w	r3, r3, #32
 8006918:	6023      	strmi	r3, [r4, #0]
 800691a:	b11d      	cbz	r5, 8006924 <_printf_i+0x1a0>
 800691c:	2310      	movs	r3, #16
 800691e:	e7ab      	b.n	8006878 <_printf_i+0xf4>
 8006920:	4826      	ldr	r0, [pc, #152]	@ (80069bc <_printf_i+0x238>)
 8006922:	e7e9      	b.n	80068f8 <_printf_i+0x174>
 8006924:	6823      	ldr	r3, [r4, #0]
 8006926:	f023 0320 	bic.w	r3, r3, #32
 800692a:	6023      	str	r3, [r4, #0]
 800692c:	e7f6      	b.n	800691c <_printf_i+0x198>
 800692e:	4616      	mov	r6, r2
 8006930:	e7bd      	b.n	80068ae <_printf_i+0x12a>
 8006932:	6833      	ldr	r3, [r6, #0]
 8006934:	6825      	ldr	r5, [r4, #0]
 8006936:	1d18      	adds	r0, r3, #4
 8006938:	6961      	ldr	r1, [r4, #20]
 800693a:	6030      	str	r0, [r6, #0]
 800693c:	062e      	lsls	r6, r5, #24
 800693e:	681b      	ldr	r3, [r3, #0]
 8006940:	d501      	bpl.n	8006946 <_printf_i+0x1c2>
 8006942:	6019      	str	r1, [r3, #0]
 8006944:	e002      	b.n	800694c <_printf_i+0x1c8>
 8006946:	0668      	lsls	r0, r5, #25
 8006948:	d5fb      	bpl.n	8006942 <_printf_i+0x1be>
 800694a:	8019      	strh	r1, [r3, #0]
 800694c:	2300      	movs	r3, #0
 800694e:	4616      	mov	r6, r2
 8006950:	6123      	str	r3, [r4, #16]
 8006952:	e7bc      	b.n	80068ce <_printf_i+0x14a>
 8006954:	6833      	ldr	r3, [r6, #0]
 8006956:	2100      	movs	r1, #0
 8006958:	1d1a      	adds	r2, r3, #4
 800695a:	6032      	str	r2, [r6, #0]
 800695c:	681e      	ldr	r6, [r3, #0]
 800695e:	6862      	ldr	r2, [r4, #4]
 8006960:	4630      	mov	r0, r6
 8006962:	f000 f9fa 	bl	8006d5a <memchr>
 8006966:	b108      	cbz	r0, 800696c <_printf_i+0x1e8>
 8006968:	1b80      	subs	r0, r0, r6
 800696a:	6060      	str	r0, [r4, #4]
 800696c:	6863      	ldr	r3, [r4, #4]
 800696e:	6123      	str	r3, [r4, #16]
 8006970:	2300      	movs	r3, #0
 8006972:	f884 3043 	strb.w	r3, [r4, #67]	@ 0x43
 8006976:	e7aa      	b.n	80068ce <_printf_i+0x14a>
 8006978:	4632      	mov	r2, r6
 800697a:	4649      	mov	r1, r9
 800697c:	4640      	mov	r0, r8
 800697e:	6923      	ldr	r3, [r4, #16]
 8006980:	47d0      	blx	sl
 8006982:	3001      	adds	r0, #1
 8006984:	d0ad      	beq.n	80068e2 <_printf_i+0x15e>
 8006986:	6823      	ldr	r3, [r4, #0]
 8006988:	079b      	lsls	r3, r3, #30
 800698a:	d413      	bmi.n	80069b4 <_printf_i+0x230>
 800698c:	68e0      	ldr	r0, [r4, #12]
 800698e:	9b03      	ldr	r3, [sp, #12]
 8006990:	4298      	cmp	r0, r3
 8006992:	bfb8      	it	lt
 8006994:	4618      	movlt	r0, r3
 8006996:	e7a6      	b.n	80068e6 <_printf_i+0x162>
 8006998:	2301      	movs	r3, #1
 800699a:	4632      	mov	r2, r6
 800699c:	4649      	mov	r1, r9
 800699e:	4640      	mov	r0, r8
 80069a0:	47d0      	blx	sl
 80069a2:	3001      	adds	r0, #1
 80069a4:	d09d      	beq.n	80068e2 <_printf_i+0x15e>
 80069a6:	3501      	adds	r5, #1
 80069a8:	68e3      	ldr	r3, [r4, #12]
 80069aa:	9903      	ldr	r1, [sp, #12]
 80069ac:	1a5b      	subs	r3, r3, r1
 80069ae:	42ab      	cmp	r3, r5
 80069b0:	dcf2      	bgt.n	8006998 <_printf_i+0x214>
 80069b2:	e7eb      	b.n	800698c <_printf_i+0x208>
 80069b4:	2500      	movs	r5, #0
 80069b6:	f104 0619 	add.w	r6, r4, #25
 80069ba:	e7f5      	b.n	80069a8 <_printf_i+0x224>
 80069bc:	08008c34 	.word	0x08008c34
 80069c0:	08008c45 	.word	0x08008c45

080069c4 <__malloc_lock>:
 80069c4:	4801      	ldr	r0, [pc, #4]	@ (80069cc <__malloc_lock+0x8>)
 80069c6:	f000 b9c6 	b.w	8006d56 <__retarget_lock_acquire_recursive>
 80069ca:	bf00      	nop
 80069cc:	200004d4 	.word	0x200004d4

080069d0 <__malloc_unlock>:
 80069d0:	4801      	ldr	r0, [pc, #4]	@ (80069d8 <__malloc_unlock+0x8>)
 80069d2:	f000 b9c1 	b.w	8006d58 <__retarget_lock_release_recursive>
 80069d6:	bf00      	nop
 80069d8:	200004d4 	.word	0x200004d4

080069dc <std>:
 80069dc:	2300      	movs	r3, #0
 80069de:	b510      	push	{r4, lr}
 80069e0:	4604      	mov	r4, r0
 80069e2:	e9c0 3300 	strd	r3, r3, [r0]
 80069e6:	e9c0 3304 	strd	r3, r3, [r0, #16]
 80069ea:	6083      	str	r3, [r0, #8]
 80069ec:	8181      	strh	r1, [r0, #12]
 80069ee:	6643      	str	r3, [r0, #100]	@ 0x64
 80069f0:	81c2      	strh	r2, [r0, #14]
 80069f2:	6183      	str	r3, [r0, #24]
 80069f4:	4619      	mov	r1, r3
 80069f6:	2208      	movs	r2, #8
 80069f8:	305c      	adds	r0, #92	@ 0x5c
 80069fa:	f000 f921 	bl	8006c40 <memset>
 80069fe:	4b0d      	ldr	r3, [pc, #52]	@ (8006a34 <std+0x58>)
 8006a00:	6224      	str	r4, [r4, #32]
 8006a02:	6263      	str	r3, [r4, #36]	@ 0x24
 8006a04:	4b0c      	ldr	r3, [pc, #48]	@ (8006a38 <std+0x5c>)
 8006a06:	62a3      	str	r3, [r4, #40]	@ 0x28
 8006a08:	4b0c      	ldr	r3, [pc, #48]	@ (8006a3c <std+0x60>)
 8006a0a:	62e3      	str	r3, [r4, #44]	@ 0x2c
 8006a0c:	4b0c      	ldr	r3, [pc, #48]	@ (8006a40 <std+0x64>)
 8006a0e:	6323      	str	r3, [r4, #48]	@ 0x30
 8006a10:	4b0c      	ldr	r3, [pc, #48]	@ (8006a44 <std+0x68>)
 8006a12:	429c      	cmp	r4, r3
 8006a14:	d006      	beq.n	8006a24 <std+0x48>
 8006a16:	f103 0268 	add.w	r2, r3, #104	@ 0x68
 8006a1a:	4294      	cmp	r4, r2
 8006a1c:	d002      	beq.n	8006a24 <std+0x48>
 8006a1e:	33d0      	adds	r3, #208	@ 0xd0
 8006a20:	429c      	cmp	r4, r3
 8006a22:	d105      	bne.n	8006a30 <std+0x54>
 8006a24:	f104 0058 	add.w	r0, r4, #88	@ 0x58
 8006a28:	e8bd 4010 	ldmia.w	sp!, {r4, lr}
 8006a2c:	f000 b992 	b.w	8006d54 <__retarget_lock_init_recursive>
 8006a30:	bd10      	pop	{r4, pc}
 8006a32:	bf00      	nop
 8006a34:	08008579 	.word	0x08008579
 8006a38:	0800859b 	.word	0x0800859b
 8006a3c:	080085d3 	.word	0x080085d3
 8006a40:	080085f7 	.word	0x080085f7
 8006a44:	20000398 	.word	0x20000398

08006a48 <stdio_exit_handler>:
 8006a48:	4a02      	ldr	r2, [pc, #8]	@ (8006a54 <stdio_exit_handler+0xc>)
 8006a4a:	4903      	ldr	r1, [pc, #12]	@ (8006a58 <stdio_exit_handler+0x10>)
 8006a4c:	4803      	ldr	r0, [pc, #12]	@ (8006a5c <stdio_exit_handler+0x14>)
 8006a4e:	f000 b869 	b.w	8006b24 <_fwalk_sglue>
 8006a52:	bf00      	nop
 8006a54:	20000040 	.word	0x20000040
 8006a58:	08007e29 	.word	0x08007e29
 8006a5c:	20000050 	.word	0x20000050

08006a60 <cleanup_stdio>:
 8006a60:	6841      	ldr	r1, [r0, #4]
 8006a62:	4b0c      	ldr	r3, [pc, #48]	@ (8006a94 <cleanup_stdio+0x34>)
 8006a64:	b510      	push	{r4, lr}
 8006a66:	4299      	cmp	r1, r3
 8006a68:	4604      	mov	r4, r0
 8006a6a:	d001      	beq.n	8006a70 <cleanup_stdio+0x10>
 8006a6c:	f001 f9dc 	bl	8007e28 <_fflush_r>
 8006a70:	68a1      	ldr	r1, [r4, #8]
 8006a72:	4b09      	ldr	r3, [pc, #36]	@ (8006a98 <cleanup_stdio+0x38>)
 8006a74:	4299      	cmp	r1, r3
 8006a76:	d002      	beq.n	8006a7e <cleanup_stdio+0x1e>
 8006a78:	4620      	mov	r0, r4
 8006a7a:	f001 f9d5 	bl	8007e28 <_fflush_r>
 8006a7e:	68e1      	ldr	r1, [r4, #12]
 8006a80:	4b06      	ldr	r3, [pc, #24]	@ (8006a9c <cleanup_stdio+0x3c>)
 8006a82:	4299      	cmp	r1, r3
 8006a84:	d004      	beq.n	8006a90 <cleanup_stdio+0x30>
 8006a86:	4620      	mov	r0, r4
 8006a88:	e8bd 4010 	ldmia.w	sp!, {r4, lr}
 8006a8c:	f001 b9cc 	b.w	8007e28 <_fflush_r>
 8006a90:	bd10      	pop	{r4, pc}
 8006a92:	bf00      	nop
 8006a94:	20000398 	.word	0x20000398
 8006a98:	20000400 	.word	0x20000400
 8006a9c:	20000468 	.word	0x20000468

08006aa0 <global_stdio_init.part.0>:
 8006aa0:	b510      	push	{r4, lr}
 8006aa2:	4b0b      	ldr	r3, [pc, #44]	@ (8006ad0 <global_stdio_init.part.0+0x30>)
 8006aa4:	4c0b      	ldr	r4, [pc, #44]	@ (8006ad4 <global_stdio_init.part.0+0x34>)
 8006aa6:	4a0c      	ldr	r2, [pc, #48]	@ (8006ad8 <global_stdio_init.part.0+0x38>)
 8006aa8:	4620      	mov	r0, r4
 8006aaa:	601a      	str	r2, [r3, #0]
 8006aac:	2104      	movs	r1, #4
 8006aae:	2200      	movs	r2, #0
 8006ab0:	f7ff ff94 	bl	80069dc <std>
 8006ab4:	f104 0068 	add.w	r0, r4, #104	@ 0x68
 8006ab8:	2201      	movs	r2, #1
 8006aba:	2109      	movs	r1, #9
 8006abc:	f7ff ff8e 	bl	80069dc <std>
 8006ac0:	f104 00d0 	add.w	r0, r4, #208	@ 0xd0
 8006ac4:	2202      	movs	r2, #2
 8006ac6:	e8bd 4010 	ldmia.w	sp!, {r4, lr}
 8006aca:	2112      	movs	r1, #18
 8006acc:	f7ff bf86 	b.w	80069dc <std>
 8006ad0:	200004d0 	.word	0x200004d0
 8006ad4:	20000398 	.word	0x20000398
 8006ad8:	08006a49 	.word	0x08006a49

08006adc <__sfp_lock_acquire>:
 8006adc:	4801      	ldr	r0, [pc, #4]	@ (8006ae4 <__sfp_lock_acquire+0x8>)
 8006ade:	f000 b93a 	b.w	8006d56 <__retarget_lock_acquire_recursive>
 8006ae2:	bf00      	nop
 8006ae4:	200004d5 	.word	0x200004d5

08006ae8 <__sfp_lock_release>:
 8006ae8:	4801      	ldr	r0, [pc, #4]	@ (8006af0 <__sfp_lock_release+0x8>)
 8006aea:	f000 b935 	b.w	8006d58 <__retarget_lock_release_recursive>
 8006aee:	bf00      	nop
 8006af0:	200004d5 	.word	0x200004d5

08006af4 <__sinit>:
 8006af4:	b510      	push	{r4, lr}
 8006af6:	4604      	mov	r4, r0
 8006af8:	f7ff fff0 	bl	8006adc <__sfp_lock_acquire>
 8006afc:	6a23      	ldr	r3, [r4, #32]
 8006afe:	b11b      	cbz	r3, 8006b08 <__sinit+0x14>
 8006b00:	e8bd 4010 	ldmia.w	sp!, {r4, lr}
 8006b04:	f7ff bff0 	b.w	8006ae8 <__sfp_lock_release>
 8006b08:	4b04      	ldr	r3, [pc, #16]	@ (8006b1c <__sinit+0x28>)
 8006b0a:	6223      	str	r3, [r4, #32]
 8006b0c:	4b04      	ldr	r3, [pc, #16]	@ (8006b20 <__sinit+0x2c>)
 8006b0e:	681b      	ldr	r3, [r3, #0]
 8006b10:	2b00      	cmp	r3, #0
 8006b12:	d1f5      	bne.n	8006b00 <__sinit+0xc>
 8006b14:	f7ff ffc4 	bl	8006aa0 <global_stdio_init.part.0>
 8006b18:	e7f2      	b.n	8006b00 <__sinit+0xc>
 8006b1a:	bf00      	nop
 8006b1c:	08006a61 	.word	0x08006a61
 8006b20:	200004d0 	.word	0x200004d0

08006b24 <_fwalk_sglue>:
 8006b24:	e92d 43f8 	stmdb	sp!, {r3, r4, r5, r6, r7, r8, r9, lr}
 8006b28:	4607      	mov	r7, r0
 8006b2a:	4688      	mov	r8, r1
 8006b2c:	4614      	mov	r4, r2
 8006b2e:	2600      	movs	r6, #0
 8006b30:	e9d4 9501 	ldrd	r9, r5, [r4, #4]
 8006b34:	f1b9 0901 	subs.w	r9, r9, #1
 8006b38:	d505      	bpl.n	8006b46 <_fwalk_sglue+0x22>
 8006b3a:	6824      	ldr	r4, [r4, #0]
 8006b3c:	2c00      	cmp	r4, #0
 8006b3e:	d1f7      	bne.n	8006b30 <_fwalk_sglue+0xc>
 8006b40:	4630      	mov	r0, r6
 8006b42:	e8bd 83f8 	ldmia.w	sp!, {r3, r4, r5, r6, r7, r8, r9, pc}
 8006b46:	89ab      	ldrh	r3, [r5, #12]
 8006b48:	2b01      	cmp	r3, #1
 8006b4a:	d907      	bls.n	8006b5c <_fwalk_sglue+0x38>
 8006b4c:	f9b5 300e 	ldrsh.w	r3, [r5, #14]
 8006b50:	3301      	adds	r3, #1
 8006b52:	d003      	beq.n	8006b5c <_fwalk_sglue+0x38>
 8006b54:	4629      	mov	r1, r5
 8006b56:	4638      	mov	r0, r7
 8006b58:	47c0      	blx	r8
 8006b5a:	4306      	orrs	r6, r0
 8006b5c:	3568      	adds	r5, #104	@ 0x68
 8006b5e:	e7e9      	b.n	8006b34 <_fwalk_sglue+0x10>

08006b60 <iprintf>:
 8006b60:	b40f      	push	{r0, r1, r2, r3}
 8006b62:	b507      	push	{r0, r1, r2, lr}
 8006b64:	4906      	ldr	r1, [pc, #24]	@ (8006b80 <iprintf+0x20>)
 8006b66:	ab04      	add	r3, sp, #16
 8006b68:	6808      	ldr	r0, [r1, #0]
 8006b6a:	f853 2b04 	ldr.w	r2, [r3], #4
 8006b6e:	6881      	ldr	r1, [r0, #8]
 8006b70:	9301      	str	r3, [sp, #4]
 8006b72:	f000 ffc1 	bl	8007af8 <_vfiprintf_r>
 8006b76:	b003      	add	sp, #12
 8006b78:	f85d eb04 	ldr.w	lr, [sp], #4
 8006b7c:	b004      	add	sp, #16
 8006b7e:	4770      	bx	lr
 8006b80:	2000004c 	.word	0x2000004c

08006b84 <_puts_r>:
 8006b84:	6a03      	ldr	r3, [r0, #32]
 8006b86:	b570      	push	{r4, r5, r6, lr}
 8006b88:	4605      	mov	r5, r0
 8006b8a:	460e      	mov	r6, r1
 8006b8c:	6884      	ldr	r4, [r0, #8]
 8006b8e:	b90b      	cbnz	r3, 8006b94 <_puts_r+0x10>
 8006b90:	f7ff ffb0 	bl	8006af4 <__sinit>
 8006b94:	6e63      	ldr	r3, [r4, #100]	@ 0x64
 8006b96:	07db      	lsls	r3, r3, #31
 8006b98:	d405      	bmi.n	8006ba6 <_puts_r+0x22>
 8006b9a:	89a3      	ldrh	r3, [r4, #12]
 8006b9c:	0598      	lsls	r0, r3, #22
 8006b9e:	d402      	bmi.n	8006ba6 <_puts_r+0x22>
 8006ba0:	6da0      	ldr	r0, [r4, #88]	@ 0x58
 8006ba2:	f000 f8d8 	bl	8006d56 <__retarget_lock_acquire_recursive>
 8006ba6:	89a3      	ldrh	r3, [r4, #12]
 8006ba8:	0719      	lsls	r1, r3, #28
 8006baa:	d502      	bpl.n	8006bb2 <_puts_r+0x2e>
 8006bac:	6923      	ldr	r3, [r4, #16]
 8006bae:	2b00      	cmp	r3, #0
 8006bb0:	d135      	bne.n	8006c1e <_puts_r+0x9a>
 8006bb2:	4621      	mov	r1, r4
 8006bb4:	4628      	mov	r0, r5
 8006bb6:	f001 fd61 	bl	800867c <__swsetup_r>
 8006bba:	b380      	cbz	r0, 8006c1e <_puts_r+0x9a>
 8006bbc:	f04f 35ff 	mov.w	r5, #4294967295	@ 0xffffffff
 8006bc0:	6e63      	ldr	r3, [r4, #100]	@ 0x64
 8006bc2:	07da      	lsls	r2, r3, #31
 8006bc4:	d405      	bmi.n	8006bd2 <_puts_r+0x4e>
 8006bc6:	89a3      	ldrh	r3, [r4, #12]
 8006bc8:	059b      	lsls	r3, r3, #22
 8006bca:	d402      	bmi.n	8006bd2 <_puts_r+0x4e>
 8006bcc:	6da0      	ldr	r0, [r4, #88]	@ 0x58
 8006bce:	f000 f8c3 	bl	8006d58 <__retarget_lock_release_recursive>
 8006bd2:	4628      	mov	r0, r5
 8006bd4:	bd70      	pop	{r4, r5, r6, pc}
 8006bd6:	2b00      	cmp	r3, #0
 8006bd8:	da04      	bge.n	8006be4 <_puts_r+0x60>
 8006bda:	69a2      	ldr	r2, [r4, #24]
 8006bdc:	429a      	cmp	r2, r3
 8006bde:	dc17      	bgt.n	8006c10 <_puts_r+0x8c>
 8006be0:	290a      	cmp	r1, #10
 8006be2:	d015      	beq.n	8006c10 <_puts_r+0x8c>
 8006be4:	6823      	ldr	r3, [r4, #0]
 8006be6:	1c5a      	adds	r2, r3, #1
 8006be8:	6022      	str	r2, [r4, #0]
 8006bea:	7019      	strb	r1, [r3, #0]
 8006bec:	68a3      	ldr	r3, [r4, #8]
 8006bee:	f816 1f01 	ldrb.w	r1, [r6, #1]!
 8006bf2:	3b01      	subs	r3, #1
 8006bf4:	60a3      	str	r3, [r4, #8]
 8006bf6:	2900      	cmp	r1, #0
 8006bf8:	d1ed      	bne.n	8006bd6 <_puts_r+0x52>
 8006bfa:	2b00      	cmp	r3, #0
 8006bfc:	da11      	bge.n	8006c22 <_puts_r+0x9e>
 8006bfe:	4622      	mov	r2, r4
 8006c00:	210a      	movs	r1, #10
 8006c02:	4628      	mov	r0, r5
 8006c04:	f001 fcfb 	bl	80085fe <__swbuf_r>
 8006c08:	3001      	adds	r0, #1
 8006c0a:	d0d7      	beq.n	8006bbc <_puts_r+0x38>
 8006c0c:	250a      	movs	r5, #10
 8006c0e:	e7d7      	b.n	8006bc0 <_puts_r+0x3c>
 8006c10:	4622      	mov	r2, r4
 8006c12:	4628      	mov	r0, r5
 8006c14:	f001 fcf3 	bl	80085fe <__swbuf_r>
 8006c18:	3001      	adds	r0, #1
 8006c1a:	d1e7      	bne.n	8006bec <_puts_r+0x68>
 8006c1c:	e7ce      	b.n	8006bbc <_puts_r+0x38>
 8006c1e:	3e01      	subs	r6, #1
 8006c20:	e7e4      	b.n	8006bec <_puts_r+0x68>
 8006c22:	6823      	ldr	r3, [r4, #0]
 8006c24:	1c5a      	adds	r2, r3, #1
 8006c26:	6022      	str	r2, [r4, #0]
 8006c28:	220a      	movs	r2, #10
 8006c2a:	701a      	strb	r2, [r3, #0]
 8006c2c:	e7ee      	b.n	8006c0c <_puts_r+0x88>
	...

08006c30 <puts>:
 8006c30:	4b02      	ldr	r3, [pc, #8]	@ (8006c3c <puts+0xc>)
 8006c32:	4601      	mov	r1, r0
 8006c34:	6818      	ldr	r0, [r3, #0]
 8006c36:	f7ff bfa5 	b.w	8006b84 <_puts_r>
 8006c3a:	bf00      	nop
 8006c3c:	2000004c 	.word	0x2000004c

08006c40 <memset>:
 8006c40:	4603      	mov	r3, r0
 8006c42:	4402      	add	r2, r0
 8006c44:	4293      	cmp	r3, r2
 8006c46:	d100      	bne.n	8006c4a <memset+0xa>
 8006c48:	4770      	bx	lr
 8006c4a:	f803 1b01 	strb.w	r1, [r3], #1
 8006c4e:	e7f9      	b.n	8006c44 <memset+0x4>

08006c50 <_localeconv_r>:
 8006c50:	4800      	ldr	r0, [pc, #0]	@ (8006c54 <_localeconv_r+0x4>)
 8006c52:	4770      	bx	lr
 8006c54:	2000018c 	.word	0x2000018c

08006c58 <_raise_r>:
 8006c58:	291f      	cmp	r1, #31
 8006c5a:	b538      	push	{r3, r4, r5, lr}
 8006c5c:	4605      	mov	r5, r0
 8006c5e:	460c      	mov	r4, r1
 8006c60:	d904      	bls.n	8006c6c <_raise_r+0x14>
 8006c62:	2316      	movs	r3, #22
 8006c64:	6003      	str	r3, [r0, #0]
 8006c66:	f04f 30ff 	mov.w	r0, #4294967295	@ 0xffffffff
 8006c6a:	bd38      	pop	{r3, r4, r5, pc}
 8006c6c:	6bc2      	ldr	r2, [r0, #60]	@ 0x3c
 8006c6e:	b112      	cbz	r2, 8006c76 <_raise_r+0x1e>
 8006c70:	f852 3021 	ldr.w	r3, [r2, r1, lsl #2]
 8006c74:	b94b      	cbnz	r3, 8006c8a <_raise_r+0x32>
 8006c76:	4628      	mov	r0, r5
 8006c78:	f000 f830 	bl	8006cdc <_getpid_r>
 8006c7c:	4622      	mov	r2, r4
 8006c7e:	4601      	mov	r1, r0
 8006c80:	4628      	mov	r0, r5
 8006c82:	e8bd 4038 	ldmia.w	sp!, {r3, r4, r5, lr}
 8006c86:	f000 b817 	b.w	8006cb8 <_kill_r>
 8006c8a:	2b01      	cmp	r3, #1
 8006c8c:	d00a      	beq.n	8006ca4 <_raise_r+0x4c>
 8006c8e:	1c59      	adds	r1, r3, #1
 8006c90:	d103      	bne.n	8006c9a <_raise_r+0x42>
 8006c92:	2316      	movs	r3, #22
 8006c94:	6003      	str	r3, [r0, #0]
 8006c96:	2001      	movs	r0, #1
 8006c98:	e7e7      	b.n	8006c6a <_raise_r+0x12>
 8006c9a:	2100      	movs	r1, #0
 8006c9c:	4620      	mov	r0, r4
 8006c9e:	f842 1024 	str.w	r1, [r2, r4, lsl #2]
 8006ca2:	4798      	blx	r3
 8006ca4:	2000      	movs	r0, #0
 8006ca6:	e7e0      	b.n	8006c6a <_raise_r+0x12>

08006ca8 <raise>:
 8006ca8:	4b02      	ldr	r3, [pc, #8]	@ (8006cb4 <raise+0xc>)
 8006caa:	4601      	mov	r1, r0
 8006cac:	6818      	ldr	r0, [r3, #0]
 8006cae:	f7ff bfd3 	b.w	8006c58 <_raise_r>
 8006cb2:	bf00      	nop
 8006cb4:	2000004c 	.word	0x2000004c

08006cb8 <_kill_r>:
 8006cb8:	b538      	push	{r3, r4, r5, lr}
 8006cba:	2300      	movs	r3, #0
 8006cbc:	4d06      	ldr	r5, [pc, #24]	@ (8006cd8 <_kill_r+0x20>)
 8006cbe:	4604      	mov	r4, r0
 8006cc0:	4608      	mov	r0, r1
 8006cc2:	4611      	mov	r1, r2
 8006cc4:	602b      	str	r3, [r5, #0]
 8006cc6:	f7fc fdc0 	bl	800384a <_kill>
 8006cca:	1c43      	adds	r3, r0, #1
 8006ccc:	d102      	bne.n	8006cd4 <_kill_r+0x1c>
 8006cce:	682b      	ldr	r3, [r5, #0]
 8006cd0:	b103      	cbz	r3, 8006cd4 <_kill_r+0x1c>
 8006cd2:	6023      	str	r3, [r4, #0]
 8006cd4:	bd38      	pop	{r3, r4, r5, pc}
 8006cd6:	bf00      	nop
 8006cd8:	200004d8 	.word	0x200004d8

08006cdc <_getpid_r>:
 8006cdc:	f7fc bdae 	b.w	800383c <_getpid>

08006ce0 <_sbrk_r>:
 8006ce0:	b538      	push	{r3, r4, r5, lr}
 8006ce2:	2300      	movs	r3, #0
 8006ce4:	4d05      	ldr	r5, [pc, #20]	@ (8006cfc <_sbrk_r+0x1c>)
 8006ce6:	4604      	mov	r4, r0
 8006ce8:	4608      	mov	r0, r1
 8006cea:	602b      	str	r3, [r5, #0]
 8006cec:	f7fc fe32 	bl	8003954 <_sbrk>
 8006cf0:	1c43      	adds	r3, r0, #1
 8006cf2:	d102      	bne.n	8006cfa <_sbrk_r+0x1a>
 8006cf4:	682b      	ldr	r3, [r5, #0]
 8006cf6:	b103      	cbz	r3, 8006cfa <_sbrk_r+0x1a>
 8006cf8:	6023      	str	r3, [r4, #0]
 8006cfa:	bd38      	pop	{r3, r4, r5, pc}
 8006cfc:	200004d8 	.word	0x200004d8

08006d00 <__errno>:
 8006d00:	4b01      	ldr	r3, [pc, #4]	@ (8006d08 <__errno+0x8>)
 8006d02:	6818      	ldr	r0, [r3, #0]
 8006d04:	4770      	bx	lr
 8006d06:	bf00      	nop
 8006d08:	2000004c 	.word	0x2000004c

08006d0c <__libc_init_array>:
 8006d0c:	b570      	push	{r4, r5, r6, lr}
 8006d0e:	2600      	movs	r6, #0
 8006d10:	4d0c      	ldr	r5, [pc, #48]	@ (8006d44 <__libc_init_array+0x38>)
 8006d12:	4c0d      	ldr	r4, [pc, #52]	@ (8006d48 <__libc_init_array+0x3c>)
 8006d14:	1b64      	subs	r4, r4, r5
 8006d16:	10a4      	asrs	r4, r4, #2
 8006d18:	42a6      	cmp	r6, r4
 8006d1a:	d109      	bne.n	8006d30 <__libc_init_array+0x24>
 8006d1c:	f001 fe40 	bl	80089a0 <_init>
 8006d20:	2600      	movs	r6, #0
 8006d22:	4d0a      	ldr	r5, [pc, #40]	@ (8006d4c <__libc_init_array+0x40>)
 8006d24:	4c0a      	ldr	r4, [pc, #40]	@ (8006d50 <__libc_init_array+0x44>)
 8006d26:	1b64      	subs	r4, r4, r5
 8006d28:	10a4      	asrs	r4, r4, #2
 8006d2a:	42a6      	cmp	r6, r4
 8006d2c:	d105      	bne.n	8006d3a <__libc_init_array+0x2e>
 8006d2e:	bd70      	pop	{r4, r5, r6, pc}
 8006d30:	f855 3b04 	ldr.w	r3, [r5], #4
 8006d34:	4798      	blx	r3
 8006d36:	3601      	adds	r6, #1
 8006d38:	e7ee      	b.n	8006d18 <__libc_init_array+0xc>
 8006d3a:	f855 3b04 	ldr.w	r3, [r5], #4
 8006d3e:	4798      	blx	r3
 8006d40:	3601      	adds	r6, #1
 8006d42:	e7f2      	b.n	8006d2a <__libc_init_array+0x1e>
 8006d44:	08008fa0 	.word	0x08008fa0
 8006d48:	08008fa0 	.word	0x08008fa0
 8006d4c:	08008fa0 	.word	0x08008fa0
 8006d50:	08008fa4 	.word	0x08008fa4

08006d54 <__retarget_lock_init_recursive>:
 8006d54:	4770      	bx	lr

08006d56 <__retarget_lock_acquire_recursive>:
 8006d56:	4770      	bx	lr

08006d58 <__retarget_lock_release_recursive>:
 8006d58:	4770      	bx	lr

08006d5a <memchr>:
 8006d5a:	4603      	mov	r3, r0
 8006d5c:	b510      	push	{r4, lr}
 8006d5e:	b2c9      	uxtb	r1, r1
 8006d60:	4402      	add	r2, r0
 8006d62:	4293      	cmp	r3, r2
 8006d64:	4618      	mov	r0, r3
 8006d66:	d101      	bne.n	8006d6c <memchr+0x12>
 8006d68:	2000      	movs	r0, #0
 8006d6a:	e003      	b.n	8006d74 <memchr+0x1a>
 8006d6c:	7804      	ldrb	r4, [r0, #0]
 8006d6e:	3301      	adds	r3, #1
 8006d70:	428c      	cmp	r4, r1
 8006d72:	d1f6      	bne.n	8006d62 <memchr+0x8>
 8006d74:	bd10      	pop	{r4, pc}

08006d76 <quorem>:
 8006d76:	e92d 4ff7 	stmdb	sp!, {r0, r1, r2, r4, r5, r6, r7, r8, r9, sl, fp, lr}
 8006d7a:	6903      	ldr	r3, [r0, #16]
 8006d7c:	690c      	ldr	r4, [r1, #16]
 8006d7e:	4607      	mov	r7, r0
 8006d80:	42a3      	cmp	r3, r4
 8006d82:	db7e      	blt.n	8006e82 <quorem+0x10c>
 8006d84:	3c01      	subs	r4, #1
 8006d86:	00a3      	lsls	r3, r4, #2
 8006d88:	f100 0514 	add.w	r5, r0, #20
 8006d8c:	f101 0814 	add.w	r8, r1, #20
 8006d90:	9300      	str	r3, [sp, #0]
 8006d92:	eb05 0384 	add.w	r3, r5, r4, lsl #2
 8006d96:	9301      	str	r3, [sp, #4]
 8006d98:	f858 3024 	ldr.w	r3, [r8, r4, lsl #2]
 8006d9c:	f855 2024 	ldr.w	r2, [r5, r4, lsl #2]
 8006da0:	3301      	adds	r3, #1
 8006da2:	429a      	cmp	r2, r3
 8006da4:	fbb2 f6f3 	udiv	r6, r2, r3
 8006da8:	eb08 0984 	add.w	r9, r8, r4, lsl #2
 8006dac:	d32e      	bcc.n	8006e0c <quorem+0x96>
 8006dae:	f04f 0a00 	mov.w	sl, #0
 8006db2:	46c4      	mov	ip, r8
 8006db4:	46ae      	mov	lr, r5
 8006db6:	46d3      	mov	fp, sl
 8006db8:	f85c 3b04 	ldr.w	r3, [ip], #4
 8006dbc:	b298      	uxth	r0, r3
 8006dbe:	fb06 a000 	mla	r0, r6, r0, sl
 8006dc2:	0c1b      	lsrs	r3, r3, #16
 8006dc4:	0c02      	lsrs	r2, r0, #16
 8006dc6:	fb06 2303 	mla	r3, r6, r3, r2
 8006dca:	f8de 2000 	ldr.w	r2, [lr]
 8006dce:	b280      	uxth	r0, r0
 8006dd0:	b292      	uxth	r2, r2
 8006dd2:	1a12      	subs	r2, r2, r0
 8006dd4:	445a      	add	r2, fp
 8006dd6:	f8de 0000 	ldr.w	r0, [lr]
 8006dda:	ea4f 4a13 	mov.w	sl, r3, lsr #16
 8006dde:	b29b      	uxth	r3, r3
 8006de0:	ebc3 4322 	rsb	r3, r3, r2, asr #16
 8006de4:	eb03 4310 	add.w	r3, r3, r0, lsr #16
 8006de8:	b292      	uxth	r2, r2
 8006dea:	ea42 4203 	orr.w	r2, r2, r3, lsl #16
 8006dee:	45e1      	cmp	r9, ip
 8006df0:	ea4f 4b23 	mov.w	fp, r3, asr #16
 8006df4:	f84e 2b04 	str.w	r2, [lr], #4
 8006df8:	d2de      	bcs.n	8006db8 <quorem+0x42>
 8006dfa:	9b00      	ldr	r3, [sp, #0]
 8006dfc:	58eb      	ldr	r3, [r5, r3]
 8006dfe:	b92b      	cbnz	r3, 8006e0c <quorem+0x96>
 8006e00:	9b01      	ldr	r3, [sp, #4]
 8006e02:	3b04      	subs	r3, #4
 8006e04:	429d      	cmp	r5, r3
 8006e06:	461a      	mov	r2, r3
 8006e08:	d32f      	bcc.n	8006e6a <quorem+0xf4>
 8006e0a:	613c      	str	r4, [r7, #16]
 8006e0c:	4638      	mov	r0, r7
 8006e0e:	f001 faab 	bl	8008368 <__mcmp>
 8006e12:	2800      	cmp	r0, #0
 8006e14:	db25      	blt.n	8006e62 <quorem+0xec>
 8006e16:	4629      	mov	r1, r5
 8006e18:	2000      	movs	r0, #0
 8006e1a:	f858 2b04 	ldr.w	r2, [r8], #4
 8006e1e:	f8d1 c000 	ldr.w	ip, [r1]
 8006e22:	fa1f fe82 	uxth.w	lr, r2
 8006e26:	fa1f f38c 	uxth.w	r3, ip
 8006e2a:	eba3 030e 	sub.w	r3, r3, lr
 8006e2e:	4403      	add	r3, r0
 8006e30:	0c12      	lsrs	r2, r2, #16
 8006e32:	ebc2 4223 	rsb	r2, r2, r3, asr #16
 8006e36:	eb02 421c 	add.w	r2, r2, ip, lsr #16
 8006e3a:	b29b      	uxth	r3, r3
 8006e3c:	ea43 4302 	orr.w	r3, r3, r2, lsl #16
 8006e40:	45c1      	cmp	r9, r8
 8006e42:	ea4f 4022 	mov.w	r0, r2, asr #16
 8006e46:	f841 3b04 	str.w	r3, [r1], #4
 8006e4a:	d2e6      	bcs.n	8006e1a <quorem+0xa4>
 8006e4c:	f855 2024 	ldr.w	r2, [r5, r4, lsl #2]
 8006e50:	eb05 0384 	add.w	r3, r5, r4, lsl #2
 8006e54:	b922      	cbnz	r2, 8006e60 <quorem+0xea>
 8006e56:	3b04      	subs	r3, #4
 8006e58:	429d      	cmp	r5, r3
 8006e5a:	461a      	mov	r2, r3
 8006e5c:	d30b      	bcc.n	8006e76 <quorem+0x100>
 8006e5e:	613c      	str	r4, [r7, #16]
 8006e60:	3601      	adds	r6, #1
 8006e62:	4630      	mov	r0, r6
 8006e64:	b003      	add	sp, #12
 8006e66:	e8bd 8ff0 	ldmia.w	sp!, {r4, r5, r6, r7, r8, r9, sl, fp, pc}
 8006e6a:	6812      	ldr	r2, [r2, #0]
 8006e6c:	3b04      	subs	r3, #4
 8006e6e:	2a00      	cmp	r2, #0
 8006e70:	d1cb      	bne.n	8006e0a <quorem+0x94>
 8006e72:	3c01      	subs	r4, #1
 8006e74:	e7c6      	b.n	8006e04 <quorem+0x8e>
 8006e76:	6812      	ldr	r2, [r2, #0]
 8006e78:	3b04      	subs	r3, #4
 8006e7a:	2a00      	cmp	r2, #0
 8006e7c:	d1ef      	bne.n	8006e5e <quorem+0xe8>
 8006e7e:	3c01      	subs	r4, #1
 8006e80:	e7ea      	b.n	8006e58 <quorem+0xe2>
 8006e82:	2000      	movs	r0, #0
 8006e84:	e7ee      	b.n	8006e64 <quorem+0xee>
	...

08006e88 <_dtoa_r>:
 8006e88:	e92d 4ff0 	stmdb	sp!, {r4, r5, r6, r7, r8, r9, sl, fp, lr}
 8006e8c:	4614      	mov	r4, r2
 8006e8e:	461d      	mov	r5, r3
 8006e90:	69c7      	ldr	r7, [r0, #28]
 8006e92:	b097      	sub	sp, #92	@ 0x5c
 8006e94:	4683      	mov	fp, r0
 8006e96:	e9cd 4502 	strd	r4, r5, [sp, #8]
 8006e9a:	9e23      	ldr	r6, [sp, #140]	@ 0x8c
 8006e9c:	b97f      	cbnz	r7, 8006ebe <_dtoa_r+0x36>
 8006e9e:	2010      	movs	r0, #16
 8006ea0:	f7ff fb4c 	bl	800653c <malloc>
 8006ea4:	4602      	mov	r2, r0
 8006ea6:	f8cb 001c 	str.w	r0, [fp, #28]
 8006eaa:	b920      	cbnz	r0, 8006eb6 <_dtoa_r+0x2e>
 8006eac:	21ef      	movs	r1, #239	@ 0xef
 8006eae:	4ba8      	ldr	r3, [pc, #672]	@ (8007150 <_dtoa_r+0x2c8>)
 8006eb0:	48a8      	ldr	r0, [pc, #672]	@ (8007154 <_dtoa_r+0x2cc>)
 8006eb2:	f001 fd11 	bl	80088d8 <__assert_func>
 8006eb6:	e9c0 7701 	strd	r7, r7, [r0, #4]
 8006eba:	6007      	str	r7, [r0, #0]
 8006ebc:	60c7      	str	r7, [r0, #12]
 8006ebe:	f8db 301c 	ldr.w	r3, [fp, #28]
 8006ec2:	6819      	ldr	r1, [r3, #0]
 8006ec4:	b159      	cbz	r1, 8006ede <_dtoa_r+0x56>
 8006ec6:	685a      	ldr	r2, [r3, #4]
 8006ec8:	2301      	movs	r3, #1
 8006eca:	4093      	lsls	r3, r2
 8006ecc:	604a      	str	r2, [r1, #4]
 8006ece:	608b      	str	r3, [r1, #8]
 8006ed0:	4658      	mov	r0, fp
 8006ed2:	f001 f811 	bl	8007ef8 <_Bfree>
 8006ed6:	2200      	movs	r2, #0
 8006ed8:	f8db 301c 	ldr.w	r3, [fp, #28]
 8006edc:	601a      	str	r2, [r3, #0]
 8006ede:	1e2b      	subs	r3, r5, #0
 8006ee0:	bfaf      	iteee	ge
 8006ee2:	2300      	movge	r3, #0
 8006ee4:	2201      	movlt	r2, #1
 8006ee6:	f023 4300 	biclt.w	r3, r3, #2147483648	@ 0x80000000
 8006eea:	9303      	strlt	r3, [sp, #12]
 8006eec:	bfa8      	it	ge
 8006eee:	6033      	strge	r3, [r6, #0]
 8006ef0:	f8dd 800c 	ldr.w	r8, [sp, #12]
 8006ef4:	4b98      	ldr	r3, [pc, #608]	@ (8007158 <_dtoa_r+0x2d0>)
 8006ef6:	bfb8      	it	lt
 8006ef8:	6032      	strlt	r2, [r6, #0]
 8006efa:	ea33 0308 	bics.w	r3, r3, r8
 8006efe:	d112      	bne.n	8006f26 <_dtoa_r+0x9e>
 8006f00:	f242 730f 	movw	r3, #9999	@ 0x270f
 8006f04:	9a22      	ldr	r2, [sp, #136]	@ 0x88
 8006f06:	6013      	str	r3, [r2, #0]
 8006f08:	f3c8 0313 	ubfx	r3, r8, #0, #20
 8006f0c:	4323      	orrs	r3, r4
 8006f0e:	f000 8550 	beq.w	80079b2 <_dtoa_r+0xb2a>
 8006f12:	9b24      	ldr	r3, [sp, #144]	@ 0x90
 8006f14:	f8df a244 	ldr.w	sl, [pc, #580]	@ 800715c <_dtoa_r+0x2d4>
 8006f18:	2b00      	cmp	r3, #0
 8006f1a:	f000 8552 	beq.w	80079c2 <_dtoa_r+0xb3a>
 8006f1e:	f10a 0303 	add.w	r3, sl, #3
 8006f22:	f000 bd4c 	b.w	80079be <_dtoa_r+0xb36>
 8006f26:	e9dd 2302 	ldrd	r2, r3, [sp, #8]
 8006f2a:	e9cd 230c 	strd	r2, r3, [sp, #48]	@ 0x30
 8006f2e:	e9dd 010c 	ldrd	r0, r1, [sp, #48]	@ 0x30
 8006f32:	2200      	movs	r2, #0
 8006f34:	2300      	movs	r3, #0
 8006f36:	f7f9 fd37 	bl	80009a8 <__aeabi_dcmpeq>
 8006f3a:	4607      	mov	r7, r0
 8006f3c:	b158      	cbz	r0, 8006f56 <_dtoa_r+0xce>
 8006f3e:	2301      	movs	r3, #1
 8006f40:	9a22      	ldr	r2, [sp, #136]	@ 0x88
 8006f42:	6013      	str	r3, [r2, #0]
 8006f44:	9b24      	ldr	r3, [sp, #144]	@ 0x90
 8006f46:	b113      	cbz	r3, 8006f4e <_dtoa_r+0xc6>
 8006f48:	4b85      	ldr	r3, [pc, #532]	@ (8007160 <_dtoa_r+0x2d8>)
 8006f4a:	9a24      	ldr	r2, [sp, #144]	@ 0x90
 8006f4c:	6013      	str	r3, [r2, #0]
 8006f4e:	f8df a214 	ldr.w	sl, [pc, #532]	@ 8007164 <_dtoa_r+0x2dc>
 8006f52:	f000 bd36 	b.w	80079c2 <_dtoa_r+0xb3a>
 8006f56:	ab14      	add	r3, sp, #80	@ 0x50
 8006f58:	9301      	str	r3, [sp, #4]
 8006f5a:	ab15      	add	r3, sp, #84	@ 0x54
 8006f5c:	9300      	str	r3, [sp, #0]
 8006f5e:	4658      	mov	r0, fp
 8006f60:	e9dd 230c 	ldrd	r2, r3, [sp, #48]	@ 0x30
 8006f64:	f001 fab0 	bl	80084c8 <__d2b>
 8006f68:	f3c8 560a 	ubfx	r6, r8, #20, #11
 8006f6c:	4681      	mov	r9, r0
 8006f6e:	2e00      	cmp	r6, #0
 8006f70:	d077      	beq.n	8007062 <_dtoa_r+0x1da>
 8006f72:	e9dd 010c 	ldrd	r0, r1, [sp, #48]	@ 0x30
 8006f76:	9b0d      	ldr	r3, [sp, #52]	@ 0x34
 8006f78:	f2a6 36ff 	subw	r6, r6, #1023	@ 0x3ff
 8006f7c:	f3c3 0313 	ubfx	r3, r3, #0, #20
 8006f80:	f043 537f 	orr.w	r3, r3, #1069547520	@ 0x3fc00000
 8006f84:	f443 1340 	orr.w	r3, r3, #3145728	@ 0x300000
 8006f88:	9712      	str	r7, [sp, #72]	@ 0x48
 8006f8a:	4619      	mov	r1, r3
 8006f8c:	2200      	movs	r2, #0
 8006f8e:	4b76      	ldr	r3, [pc, #472]	@ (8007168 <_dtoa_r+0x2e0>)
 8006f90:	f7f9 f8ea 	bl	8000168 <__aeabi_dsub>
 8006f94:	a368      	add	r3, pc, #416	@ (adr r3, 8007138 <_dtoa_r+0x2b0>)
 8006f96:	e9d3 2300 	ldrd	r2, r3, [r3]
 8006f9a:	f7f9 fa9d 	bl	80004d8 <__aeabi_dmul>
 8006f9e:	a368      	add	r3, pc, #416	@ (adr r3, 8007140 <_dtoa_r+0x2b8>)
 8006fa0:	e9d3 2300 	ldrd	r2, r3, [r3]
 8006fa4:	f7f9 f8e2 	bl	800016c <__adddf3>
 8006fa8:	4604      	mov	r4, r0
 8006faa:	4630      	mov	r0, r6
 8006fac:	460d      	mov	r5, r1
 8006fae:	f7f9 fa29 	bl	8000404 <__aeabi_i2d>
 8006fb2:	a365      	add	r3, pc, #404	@ (adr r3, 8007148 <_dtoa_r+0x2c0>)
 8006fb4:	e9d3 2300 	ldrd	r2, r3, [r3]
 8006fb8:	f7f9 fa8e 	bl	80004d8 <__aeabi_dmul>
 8006fbc:	4602      	mov	r2, r0
 8006fbe:	460b      	mov	r3, r1
 8006fc0:	4620      	mov	r0, r4
 8006fc2:	4629      	mov	r1, r5
 8006fc4:	f7f9 f8d2 	bl	800016c <__adddf3>
 8006fc8:	4604      	mov	r4, r0
 8006fca:	460d      	mov	r5, r1
 8006fcc:	f7f9 fd34 	bl	8000a38 <__aeabi_d2iz>
 8006fd0:	2200      	movs	r2, #0
 8006fd2:	4607      	mov	r7, r0
 8006fd4:	2300      	movs	r3, #0
 8006fd6:	4620      	mov	r0, r4
 8006fd8:	4629      	mov	r1, r5
 8006fda:	f7f9 fcef 	bl	80009bc <__aeabi_dcmplt>
 8006fde:	b140      	cbz	r0, 8006ff2 <_dtoa_r+0x16a>
 8006fe0:	4638      	mov	r0, r7
 8006fe2:	f7f9 fa0f 	bl	8000404 <__aeabi_i2d>
 8006fe6:	4622      	mov	r2, r4
 8006fe8:	462b      	mov	r3, r5
 8006fea:	f7f9 fcdd 	bl	80009a8 <__aeabi_dcmpeq>
 8006fee:	b900      	cbnz	r0, 8006ff2 <_dtoa_r+0x16a>
 8006ff0:	3f01      	subs	r7, #1
 8006ff2:	2f16      	cmp	r7, #22
 8006ff4:	d853      	bhi.n	800709e <_dtoa_r+0x216>
 8006ff6:	e9dd 010c 	ldrd	r0, r1, [sp, #48]	@ 0x30
 8006ffa:	4b5c      	ldr	r3, [pc, #368]	@ (800716c <_dtoa_r+0x2e4>)
 8006ffc:	eb03 03c7 	add.w	r3, r3, r7, lsl #3
 8007000:	e9d3 2300 	ldrd	r2, r3, [r3]
 8007004:	f7f9 fcda 	bl	80009bc <__aeabi_dcmplt>
 8007008:	2800      	cmp	r0, #0
 800700a:	d04a      	beq.n	80070a2 <_dtoa_r+0x21a>
 800700c:	2300      	movs	r3, #0
 800700e:	3f01      	subs	r7, #1
 8007010:	930f      	str	r3, [sp, #60]	@ 0x3c
 8007012:	9b14      	ldr	r3, [sp, #80]	@ 0x50
 8007014:	1b9b      	subs	r3, r3, r6
 8007016:	1e5a      	subs	r2, r3, #1
 8007018:	bf46      	itte	mi
 800701a:	f1c3 0801 	rsbmi	r8, r3, #1
 800701e:	2300      	movmi	r3, #0
 8007020:	f04f 0800 	movpl.w	r8, #0
 8007024:	9209      	str	r2, [sp, #36]	@ 0x24
 8007026:	bf48      	it	mi
 8007028:	9309      	strmi	r3, [sp, #36]	@ 0x24
 800702a:	2f00      	cmp	r7, #0
 800702c:	db3b      	blt.n	80070a6 <_dtoa_r+0x21e>
 800702e:	9b09      	ldr	r3, [sp, #36]	@ 0x24
 8007030:	970e      	str	r7, [sp, #56]	@ 0x38
 8007032:	443b      	add	r3, r7
 8007034:	9309      	str	r3, [sp, #36]	@ 0x24
 8007036:	2300      	movs	r3, #0
 8007038:	930a      	str	r3, [sp, #40]	@ 0x28
 800703a:	9b20      	ldr	r3, [sp, #128]	@ 0x80
 800703c:	2b09      	cmp	r3, #9
 800703e:	d866      	bhi.n	800710e <_dtoa_r+0x286>
 8007040:	2b05      	cmp	r3, #5
 8007042:	bfc4      	itt	gt
 8007044:	3b04      	subgt	r3, #4
 8007046:	9320      	strgt	r3, [sp, #128]	@ 0x80
 8007048:	9b20      	ldr	r3, [sp, #128]	@ 0x80
 800704a:	bfc8      	it	gt
 800704c:	2400      	movgt	r4, #0
 800704e:	f1a3 0302 	sub.w	r3, r3, #2
 8007052:	bfd8      	it	le
 8007054:	2401      	movle	r4, #1
 8007056:	2b03      	cmp	r3, #3
 8007058:	d864      	bhi.n	8007124 <_dtoa_r+0x29c>
 800705a:	e8df f003 	tbb	[pc, r3]
 800705e:	382b      	.short	0x382b
 8007060:	5636      	.short	0x5636
 8007062:	e9dd 6314 	ldrd	r6, r3, [sp, #80]	@ 0x50
 8007066:	441e      	add	r6, r3
 8007068:	f206 4332 	addw	r3, r6, #1074	@ 0x432
 800706c:	2b20      	cmp	r3, #32
 800706e:	bfc1      	itttt	gt
 8007070:	f1c3 0340 	rsbgt	r3, r3, #64	@ 0x40
 8007074:	fa08 f803 	lslgt.w	r8, r8, r3
 8007078:	f206 4312 	addwgt	r3, r6, #1042	@ 0x412
 800707c:	fa24 f303 	lsrgt.w	r3, r4, r3
 8007080:	bfd6      	itet	le
 8007082:	f1c3 0320 	rsble	r3, r3, #32
 8007086:	ea48 0003 	orrgt.w	r0, r8, r3
 800708a:	fa04 f003 	lslle.w	r0, r4, r3
 800708e:	f7f9 f9a9 	bl	80003e4 <__aeabi_ui2d>
 8007092:	2201      	movs	r2, #1
 8007094:	f1a1 73f8 	sub.w	r3, r1, #32505856	@ 0x1f00000
 8007098:	3e01      	subs	r6, #1
 800709a:	9212      	str	r2, [sp, #72]	@ 0x48
 800709c:	e775      	b.n	8006f8a <_dtoa_r+0x102>
 800709e:	2301      	movs	r3, #1
 80070a0:	e7b6      	b.n	8007010 <_dtoa_r+0x188>
 80070a2:	900f      	str	r0, [sp, #60]	@ 0x3c
 80070a4:	e7b5      	b.n	8007012 <_dtoa_r+0x18a>
 80070a6:	427b      	negs	r3, r7
 80070a8:	930a      	str	r3, [sp, #40]	@ 0x28
 80070aa:	2300      	movs	r3, #0
 80070ac:	eba8 0807 	sub.w	r8, r8, r7
 80070b0:	930e      	str	r3, [sp, #56]	@ 0x38
 80070b2:	e7c2      	b.n	800703a <_dtoa_r+0x1b2>
 80070b4:	2300      	movs	r3, #0
 80070b6:	930b      	str	r3, [sp, #44]	@ 0x2c
 80070b8:	9b21      	ldr	r3, [sp, #132]	@ 0x84
 80070ba:	2b00      	cmp	r3, #0
 80070bc:	dc35      	bgt.n	800712a <_dtoa_r+0x2a2>
 80070be:	2301      	movs	r3, #1
 80070c0:	461a      	mov	r2, r3
 80070c2:	e9cd 3307 	strd	r3, r3, [sp, #28]
 80070c6:	9221      	str	r2, [sp, #132]	@ 0x84
 80070c8:	e00b      	b.n	80070e2 <_dtoa_r+0x25a>
 80070ca:	2301      	movs	r3, #1
 80070cc:	e7f3      	b.n	80070b6 <_dtoa_r+0x22e>
 80070ce:	2300      	movs	r3, #0
 80070d0:	930b      	str	r3, [sp, #44]	@ 0x2c
 80070d2:	9b21      	ldr	r3, [sp, #132]	@ 0x84
 80070d4:	18fb      	adds	r3, r7, r3
 80070d6:	9308      	str	r3, [sp, #32]
 80070d8:	3301      	adds	r3, #1
 80070da:	2b01      	cmp	r3, #1
 80070dc:	9307      	str	r3, [sp, #28]
 80070de:	bfb8      	it	lt
 80070e0:	2301      	movlt	r3, #1
 80070e2:	2100      	movs	r1, #0
 80070e4:	2204      	movs	r2, #4
 80070e6:	f8db 001c 	ldr.w	r0, [fp, #28]
 80070ea:	f102 0514 	add.w	r5, r2, #20
 80070ee:	429d      	cmp	r5, r3
 80070f0:	d91f      	bls.n	8007132 <_dtoa_r+0x2aa>
 80070f2:	6041      	str	r1, [r0, #4]
 80070f4:	4658      	mov	r0, fp
 80070f6:	f000 febf 	bl	8007e78 <_Balloc>
 80070fa:	4682      	mov	sl, r0
 80070fc:	2800      	cmp	r0, #0
 80070fe:	d139      	bne.n	8007174 <_dtoa_r+0x2ec>
 8007100:	4602      	mov	r2, r0
 8007102:	f240 11af 	movw	r1, #431	@ 0x1af
 8007106:	4b1a      	ldr	r3, [pc, #104]	@ (8007170 <_dtoa_r+0x2e8>)
 8007108:	e6d2      	b.n	8006eb0 <_dtoa_r+0x28>
 800710a:	2301      	movs	r3, #1
 800710c:	e7e0      	b.n	80070d0 <_dtoa_r+0x248>
 800710e:	2401      	movs	r4, #1
 8007110:	2300      	movs	r3, #0
 8007112:	940b      	str	r4, [sp, #44]	@ 0x2c
 8007114:	9320      	str	r3, [sp, #128]	@ 0x80
 8007116:	f04f 33ff 	mov.w	r3, #4294967295	@ 0xffffffff
 800711a:	2200      	movs	r2, #0
 800711c:	e9cd 3307 	strd	r3, r3, [sp, #28]
 8007120:	2312      	movs	r3, #18
 8007122:	e7d0      	b.n	80070c6 <_dtoa_r+0x23e>
 8007124:	2301      	movs	r3, #1
 8007126:	930b      	str	r3, [sp, #44]	@ 0x2c
 8007128:	e7f5      	b.n	8007116 <_dtoa_r+0x28e>
 800712a:	9b21      	ldr	r3, [sp, #132]	@ 0x84
 800712c:	e9cd 3307 	strd	r3, r3, [sp, #28]
 8007130:	e7d7      	b.n	80070e2 <_dtoa_r+0x25a>
 8007132:	3101      	adds	r1, #1
 8007134:	0052      	lsls	r2, r2, #1
 8007136:	e7d8      	b.n	80070ea <_dtoa_r+0x262>
 8007138:	636f4361 	.word	0x636f4361
 800713c:	3fd287a7 	.word	0x3fd287a7
 8007140:	8b60c8b3 	.word	0x8b60c8b3
 8007144:	3fc68a28 	.word	0x3fc68a28
 8007148:	509f79fb 	.word	0x509f79fb
 800714c:	3fd34413 	.word	0x3fd34413
 8007150:	08008c63 	.word	0x08008c63
 8007154:	08008c7a 	.word	0x08008c7a
 8007158:	7ff00000 	.word	0x7ff00000
 800715c:	08008c5f 	.word	0x08008c5f
 8007160:	08008c33 	.word	0x08008c33
 8007164:	08008c32 	.word	0x08008c32
 8007168:	3ff80000 	.word	0x3ff80000
 800716c:	08008d88 	.word	0x08008d88
 8007170:	08008cd2 	.word	0x08008cd2
 8007174:	f8db 301c 	ldr.w	r3, [fp, #28]
 8007178:	6018      	str	r0, [r3, #0]
 800717a:	9b07      	ldr	r3, [sp, #28]
 800717c:	2b0e      	cmp	r3, #14
 800717e:	f200 80a4 	bhi.w	80072ca <_dtoa_r+0x442>
 8007182:	2c00      	cmp	r4, #0
 8007184:	f000 80a1 	beq.w	80072ca <_dtoa_r+0x442>
 8007188:	2f00      	cmp	r7, #0
 800718a:	dd33      	ble.n	80071f4 <_dtoa_r+0x36c>
 800718c:	4b86      	ldr	r3, [pc, #536]	@ (80073a8 <_dtoa_r+0x520>)
 800718e:	f007 020f 	and.w	r2, r7, #15
 8007192:	eb03 03c2 	add.w	r3, r3, r2, lsl #3
 8007196:	05f8      	lsls	r0, r7, #23
 8007198:	e9d3 3400 	ldrd	r3, r4, [r3]
 800719c:	e9cd 3404 	strd	r3, r4, [sp, #16]
 80071a0:	ea4f 1427 	mov.w	r4, r7, asr #4
 80071a4:	d516      	bpl.n	80071d4 <_dtoa_r+0x34c>
 80071a6:	e9dd 010c 	ldrd	r0, r1, [sp, #48]	@ 0x30
 80071aa:	4b80      	ldr	r3, [pc, #512]	@ (80073ac <_dtoa_r+0x524>)
 80071ac:	2603      	movs	r6, #3
 80071ae:	e9d3 2308 	ldrd	r2, r3, [r3, #32]
 80071b2:	f7f9 fabb 	bl	800072c <__aeabi_ddiv>
 80071b6:	e9cd 0102 	strd	r0, r1, [sp, #8]
 80071ba:	f004 040f 	and.w	r4, r4, #15
 80071be:	4d7b      	ldr	r5, [pc, #492]	@ (80073ac <_dtoa_r+0x524>)
 80071c0:	b954      	cbnz	r4, 80071d8 <_dtoa_r+0x350>
 80071c2:	e9dd 2304 	ldrd	r2, r3, [sp, #16]
 80071c6:	e9dd 0102 	ldrd	r0, r1, [sp, #8]
 80071ca:	f7f9 faaf 	bl	800072c <__aeabi_ddiv>
 80071ce:	e9cd 0102 	strd	r0, r1, [sp, #8]
 80071d2:	e028      	b.n	8007226 <_dtoa_r+0x39e>
 80071d4:	2602      	movs	r6, #2
 80071d6:	e7f2      	b.n	80071be <_dtoa_r+0x336>
 80071d8:	07e1      	lsls	r1, r4, #31
 80071da:	d508      	bpl.n	80071ee <_dtoa_r+0x366>
 80071dc:	e9dd 0104 	ldrd	r0, r1, [sp, #16]
 80071e0:	e9d5 2300 	ldrd	r2, r3, [r5]
 80071e4:	f7f9 f978 	bl	80004d8 <__aeabi_dmul>
 80071e8:	e9cd 0104 	strd	r0, r1, [sp, #16]
 80071ec:	3601      	adds	r6, #1
 80071ee:	1064      	asrs	r4, r4, #1
 80071f0:	3508      	adds	r5, #8
 80071f2:	e7e5      	b.n	80071c0 <_dtoa_r+0x338>
 80071f4:	f000 80d2 	beq.w	800739c <_dtoa_r+0x514>
 80071f8:	e9dd 010c 	ldrd	r0, r1, [sp, #48]	@ 0x30
 80071fc:	427c      	negs	r4, r7
 80071fe:	4b6a      	ldr	r3, [pc, #424]	@ (80073a8 <_dtoa_r+0x520>)
 8007200:	f004 020f 	and.w	r2, r4, #15
 8007204:	eb03 03c2 	add.w	r3, r3, r2, lsl #3
 8007208:	e9d3 2300 	ldrd	r2, r3, [r3]
 800720c:	f7f9 f964 	bl	80004d8 <__aeabi_dmul>
 8007210:	2602      	movs	r6, #2
 8007212:	2300      	movs	r3, #0
 8007214:	e9cd 0102 	strd	r0, r1, [sp, #8]
 8007218:	4d64      	ldr	r5, [pc, #400]	@ (80073ac <_dtoa_r+0x524>)
 800721a:	1124      	asrs	r4, r4, #4
 800721c:	2c00      	cmp	r4, #0
 800721e:	f040 80b2 	bne.w	8007386 <_dtoa_r+0x4fe>
 8007222:	2b00      	cmp	r3, #0
 8007224:	d1d3      	bne.n	80071ce <_dtoa_r+0x346>
 8007226:	e9dd 4502 	ldrd	r4, r5, [sp, #8]
 800722a:	9b0f      	ldr	r3, [sp, #60]	@ 0x3c
 800722c:	2b00      	cmp	r3, #0
 800722e:	f000 80b7 	beq.w	80073a0 <_dtoa_r+0x518>
 8007232:	2200      	movs	r2, #0
 8007234:	4620      	mov	r0, r4
 8007236:	4629      	mov	r1, r5
 8007238:	4b5d      	ldr	r3, [pc, #372]	@ (80073b0 <_dtoa_r+0x528>)
 800723a:	f7f9 fbbf 	bl	80009bc <__aeabi_dcmplt>
 800723e:	2800      	cmp	r0, #0
 8007240:	f000 80ae 	beq.w	80073a0 <_dtoa_r+0x518>
 8007244:	9b07      	ldr	r3, [sp, #28]
 8007246:	2b00      	cmp	r3, #0
 8007248:	f000 80aa 	beq.w	80073a0 <_dtoa_r+0x518>
 800724c:	9b08      	ldr	r3, [sp, #32]
 800724e:	2b00      	cmp	r3, #0
 8007250:	dd37      	ble.n	80072c2 <_dtoa_r+0x43a>
 8007252:	1e7b      	subs	r3, r7, #1
 8007254:	4620      	mov	r0, r4
 8007256:	9304      	str	r3, [sp, #16]
 8007258:	2200      	movs	r2, #0
 800725a:	4629      	mov	r1, r5
 800725c:	4b55      	ldr	r3, [pc, #340]	@ (80073b4 <_dtoa_r+0x52c>)
 800725e:	f7f9 f93b 	bl	80004d8 <__aeabi_dmul>
 8007262:	e9cd 0102 	strd	r0, r1, [sp, #8]
 8007266:	9c08      	ldr	r4, [sp, #32]
 8007268:	3601      	adds	r6, #1
 800726a:	4630      	mov	r0, r6
 800726c:	f7f9 f8ca 	bl	8000404 <__aeabi_i2d>
 8007270:	e9dd 2302 	ldrd	r2, r3, [sp, #8]
 8007274:	f7f9 f930 	bl	80004d8 <__aeabi_dmul>
 8007278:	2200      	movs	r2, #0
 800727a:	4b4f      	ldr	r3, [pc, #316]	@ (80073b8 <_dtoa_r+0x530>)
 800727c:	f7f8 ff76 	bl	800016c <__adddf3>
 8007280:	4605      	mov	r5, r0
 8007282:	f1a1 7650 	sub.w	r6, r1, #54525952	@ 0x3400000
 8007286:	2c00      	cmp	r4, #0
 8007288:	f040 809a 	bne.w	80073c0 <_dtoa_r+0x538>
 800728c:	e9dd 0102 	ldrd	r0, r1, [sp, #8]
 8007290:	2200      	movs	r2, #0
 8007292:	4b4a      	ldr	r3, [pc, #296]	@ (80073bc <_dtoa_r+0x534>)
 8007294:	f7f8 ff68 	bl	8000168 <__aeabi_dsub>
 8007298:	4602      	mov	r2, r0
 800729a:	460b      	mov	r3, r1
 800729c:	e9cd 2302 	strd	r2, r3, [sp, #8]
 80072a0:	462a      	mov	r2, r5
 80072a2:	4633      	mov	r3, r6
 80072a4:	f7f9 fba8 	bl	80009f8 <__aeabi_dcmpgt>
 80072a8:	2800      	cmp	r0, #0
 80072aa:	f040 828e 	bne.w	80077ca <_dtoa_r+0x942>
 80072ae:	e9dd 0102 	ldrd	r0, r1, [sp, #8]
 80072b2:	462a      	mov	r2, r5
 80072b4:	f106 4300 	add.w	r3, r6, #2147483648	@ 0x80000000
 80072b8:	f7f9 fb80 	bl	80009bc <__aeabi_dcmplt>
 80072bc:	2800      	cmp	r0, #0
 80072be:	f040 8127 	bne.w	8007510 <_dtoa_r+0x688>
 80072c2:	e9dd 340c 	ldrd	r3, r4, [sp, #48]	@ 0x30
 80072c6:	e9cd 3402 	strd	r3, r4, [sp, #8]
 80072ca:	9b15      	ldr	r3, [sp, #84]	@ 0x54
 80072cc:	2b00      	cmp	r3, #0
 80072ce:	f2c0 8163 	blt.w	8007598 <_dtoa_r+0x710>
 80072d2:	2f0e      	cmp	r7, #14
 80072d4:	f300 8160 	bgt.w	8007598 <_dtoa_r+0x710>
 80072d8:	4b33      	ldr	r3, [pc, #204]	@ (80073a8 <_dtoa_r+0x520>)
 80072da:	eb03 03c7 	add.w	r3, r3, r7, lsl #3
 80072de:	e9d3 3400 	ldrd	r3, r4, [r3]
 80072e2:	e9cd 3404 	strd	r3, r4, [sp, #16]
 80072e6:	9b21      	ldr	r3, [sp, #132]	@ 0x84
 80072e8:	2b00      	cmp	r3, #0
 80072ea:	da03      	bge.n	80072f4 <_dtoa_r+0x46c>
 80072ec:	9b07      	ldr	r3, [sp, #28]
 80072ee:	2b00      	cmp	r3, #0
 80072f0:	f340 8100 	ble.w	80074f4 <_dtoa_r+0x66c>
 80072f4:	e9dd 4502 	ldrd	r4, r5, [sp, #8]
 80072f8:	4656      	mov	r6, sl
 80072fa:	e9dd 2304 	ldrd	r2, r3, [sp, #16]
 80072fe:	4620      	mov	r0, r4
 8007300:	4629      	mov	r1, r5
 8007302:	f7f9 fa13 	bl	800072c <__aeabi_ddiv>
 8007306:	f7f9 fb97 	bl	8000a38 <__aeabi_d2iz>
 800730a:	4680      	mov	r8, r0
 800730c:	f7f9 f87a 	bl	8000404 <__aeabi_i2d>
 8007310:	e9dd 2304 	ldrd	r2, r3, [sp, #16]
 8007314:	f7f9 f8e0 	bl	80004d8 <__aeabi_dmul>
 8007318:	4602      	mov	r2, r0
 800731a:	460b      	mov	r3, r1
 800731c:	4620      	mov	r0, r4
 800731e:	4629      	mov	r1, r5
 8007320:	f7f8 ff22 	bl	8000168 <__aeabi_dsub>
 8007324:	f108 0430 	add.w	r4, r8, #48	@ 0x30
 8007328:	9d07      	ldr	r5, [sp, #28]
 800732a:	f806 4b01 	strb.w	r4, [r6], #1
 800732e:	eba6 040a 	sub.w	r4, r6, sl
 8007332:	42a5      	cmp	r5, r4
 8007334:	4602      	mov	r2, r0
 8007336:	460b      	mov	r3, r1
 8007338:	f040 8116 	bne.w	8007568 <_dtoa_r+0x6e0>
 800733c:	f7f8 ff16 	bl	800016c <__adddf3>
 8007340:	e9dd 2304 	ldrd	r2, r3, [sp, #16]
 8007344:	4604      	mov	r4, r0
 8007346:	460d      	mov	r5, r1
 8007348:	f7f9 fb56 	bl	80009f8 <__aeabi_dcmpgt>
 800734c:	2800      	cmp	r0, #0
 800734e:	f040 80f8 	bne.w	8007542 <_dtoa_r+0x6ba>
 8007352:	e9dd 2304 	ldrd	r2, r3, [sp, #16]
 8007356:	4620      	mov	r0, r4
 8007358:	4629      	mov	r1, r5
 800735a:	f7f9 fb25 	bl	80009a8 <__aeabi_dcmpeq>
 800735e:	b118      	cbz	r0, 8007368 <_dtoa_r+0x4e0>
 8007360:	f018 0f01 	tst.w	r8, #1
 8007364:	f040 80ed 	bne.w	8007542 <_dtoa_r+0x6ba>
 8007368:	4649      	mov	r1, r9
 800736a:	4658      	mov	r0, fp
 800736c:	f000 fdc4 	bl	8007ef8 <_Bfree>
 8007370:	2300      	movs	r3, #0
 8007372:	7033      	strb	r3, [r6, #0]
 8007374:	9b22      	ldr	r3, [sp, #136]	@ 0x88
 8007376:	3701      	adds	r7, #1
 8007378:	601f      	str	r7, [r3, #0]
 800737a:	9b24      	ldr	r3, [sp, #144]	@ 0x90
 800737c:	2b00      	cmp	r3, #0
 800737e:	f000 8320 	beq.w	80079c2 <_dtoa_r+0xb3a>
 8007382:	601e      	str	r6, [r3, #0]
 8007384:	e31d      	b.n	80079c2 <_dtoa_r+0xb3a>
 8007386:	07e2      	lsls	r2, r4, #31
 8007388:	d505      	bpl.n	8007396 <_dtoa_r+0x50e>
 800738a:	e9d5 2300 	ldrd	r2, r3, [r5]
 800738e:	f7f9 f8a3 	bl	80004d8 <__aeabi_dmul>
 8007392:	2301      	movs	r3, #1
 8007394:	3601      	adds	r6, #1
 8007396:	1064      	asrs	r4, r4, #1
 8007398:	3508      	adds	r5, #8
 800739a:	e73f      	b.n	800721c <_dtoa_r+0x394>
 800739c:	2602      	movs	r6, #2
 800739e:	e742      	b.n	8007226 <_dtoa_r+0x39e>
 80073a0:	9c07      	ldr	r4, [sp, #28]
 80073a2:	9704      	str	r7, [sp, #16]
 80073a4:	e761      	b.n	800726a <_dtoa_r+0x3e2>
 80073a6:	bf00      	nop
 80073a8:	08008d88 	.word	0x08008d88
 80073ac:	08008d60 	.word	0x08008d60
 80073b0:	3ff00000 	.word	0x3ff00000
 80073b4:	40240000 	.word	0x40240000
 80073b8:	401c0000 	.word	0x401c0000
 80073bc:	40140000 	.word	0x40140000
 80073c0:	4b70      	ldr	r3, [pc, #448]	@ (8007584 <_dtoa_r+0x6fc>)
 80073c2:	990b      	ldr	r1, [sp, #44]	@ 0x2c
 80073c4:	eb03 03c4 	add.w	r3, r3, r4, lsl #3
 80073c8:	e953 2302 	ldrd	r2, r3, [r3, #-8]
 80073cc:	4454      	add	r4, sl
 80073ce:	2900      	cmp	r1, #0
 80073d0:	d045      	beq.n	800745e <_dtoa_r+0x5d6>
 80073d2:	2000      	movs	r0, #0
 80073d4:	496c      	ldr	r1, [pc, #432]	@ (8007588 <_dtoa_r+0x700>)
 80073d6:	f7f9 f9a9 	bl	800072c <__aeabi_ddiv>
 80073da:	4633      	mov	r3, r6
 80073dc:	462a      	mov	r2, r5
 80073de:	f7f8 fec3 	bl	8000168 <__aeabi_dsub>
 80073e2:	4656      	mov	r6, sl
 80073e4:	e9cd 0110 	strd	r0, r1, [sp, #64]	@ 0x40
 80073e8:	e9dd 0102 	ldrd	r0, r1, [sp, #8]
 80073ec:	f7f9 fb24 	bl	8000a38 <__aeabi_d2iz>
 80073f0:	4605      	mov	r5, r0
 80073f2:	f7f9 f807 	bl	8000404 <__aeabi_i2d>
 80073f6:	4602      	mov	r2, r0
 80073f8:	460b      	mov	r3, r1
 80073fa:	e9dd 0102 	ldrd	r0, r1, [sp, #8]
 80073fe:	f7f8 feb3 	bl	8000168 <__aeabi_dsub>
 8007402:	4602      	mov	r2, r0
 8007404:	460b      	mov	r3, r1
 8007406:	3530      	adds	r5, #48	@ 0x30
 8007408:	e9cd 2302 	strd	r2, r3, [sp, #8]
 800740c:	e9dd 2310 	ldrd	r2, r3, [sp, #64]	@ 0x40
 8007410:	f806 5b01 	strb.w	r5, [r6], #1
 8007414:	f7f9 fad2 	bl	80009bc <__aeabi_dcmplt>
 8007418:	2800      	cmp	r0, #0
 800741a:	d163      	bne.n	80074e4 <_dtoa_r+0x65c>
 800741c:	e9dd 2302 	ldrd	r2, r3, [sp, #8]
 8007420:	2000      	movs	r0, #0
 8007422:	495a      	ldr	r1, [pc, #360]	@ (800758c <_dtoa_r+0x704>)
 8007424:	f7f8 fea0 	bl	8000168 <__aeabi_dsub>
 8007428:	e9dd 2310 	ldrd	r2, r3, [sp, #64]	@ 0x40
 800742c:	f7f9 fac6 	bl	80009bc <__aeabi_dcmplt>
 8007430:	2800      	cmp	r0, #0
 8007432:	f040 8087 	bne.w	8007544 <_dtoa_r+0x6bc>
 8007436:	42a6      	cmp	r6, r4
 8007438:	f43f af43 	beq.w	80072c2 <_dtoa_r+0x43a>
 800743c:	e9dd 0110 	ldrd	r0, r1, [sp, #64]	@ 0x40
 8007440:	2200      	movs	r2, #0
 8007442:	4b53      	ldr	r3, [pc, #332]	@ (8007590 <_dtoa_r+0x708>)
 8007444:	f7f9 f848 	bl	80004d8 <__aeabi_dmul>
 8007448:	2200      	movs	r2, #0
 800744a:	e9cd 0110 	strd	r0, r1, [sp, #64]	@ 0x40
 800744e:	e9dd 0102 	ldrd	r0, r1, [sp, #8]
 8007452:	4b4f      	ldr	r3, [pc, #316]	@ (8007590 <_dtoa_r+0x708>)
 8007454:	f7f9 f840 	bl	80004d8 <__aeabi_dmul>
 8007458:	e9cd 0102 	strd	r0, r1, [sp, #8]
 800745c:	e7c4      	b.n	80073e8 <_dtoa_r+0x560>
 800745e:	4631      	mov	r1, r6
 8007460:	4628      	mov	r0, r5
 8007462:	f7f9 f839 	bl	80004d8 <__aeabi_dmul>
 8007466:	4656      	mov	r6, sl
 8007468:	e9cd 0110 	strd	r0, r1, [sp, #64]	@ 0x40
 800746c:	9413      	str	r4, [sp, #76]	@ 0x4c
 800746e:	e9dd 0102 	ldrd	r0, r1, [sp, #8]
 8007472:	f7f9 fae1 	bl	8000a38 <__aeabi_d2iz>
 8007476:	4605      	mov	r5, r0
 8007478:	f7f8 ffc4 	bl	8000404 <__aeabi_i2d>
 800747c:	4602      	mov	r2, r0
 800747e:	460b      	mov	r3, r1
 8007480:	e9dd 0102 	ldrd	r0, r1, [sp, #8]
 8007484:	f7f8 fe70 	bl	8000168 <__aeabi_dsub>
 8007488:	4602      	mov	r2, r0
 800748a:	460b      	mov	r3, r1
 800748c:	3530      	adds	r5, #48	@ 0x30
 800748e:	f806 5b01 	strb.w	r5, [r6], #1
 8007492:	42a6      	cmp	r6, r4
 8007494:	e9cd 2302 	strd	r2, r3, [sp, #8]
 8007498:	f04f 0200 	mov.w	r2, #0
 800749c:	d124      	bne.n	80074e8 <_dtoa_r+0x660>
 800749e:	e9dd 0110 	ldrd	r0, r1, [sp, #64]	@ 0x40
 80074a2:	4b39      	ldr	r3, [pc, #228]	@ (8007588 <_dtoa_r+0x700>)
 80074a4:	f7f8 fe62 	bl	800016c <__adddf3>
 80074a8:	4602      	mov	r2, r0
 80074aa:	460b      	mov	r3, r1
 80074ac:	e9dd 0102 	ldrd	r0, r1, [sp, #8]
 80074b0:	f7f9 faa2 	bl	80009f8 <__aeabi_dcmpgt>
 80074b4:	2800      	cmp	r0, #0
 80074b6:	d145      	bne.n	8007544 <_dtoa_r+0x6bc>
 80074b8:	e9dd 2310 	ldrd	r2, r3, [sp, #64]	@ 0x40
 80074bc:	2000      	movs	r0, #0
 80074be:	4932      	ldr	r1, [pc, #200]	@ (8007588 <_dtoa_r+0x700>)
 80074c0:	f7f8 fe52 	bl	8000168 <__aeabi_dsub>
 80074c4:	4602      	mov	r2, r0
 80074c6:	460b      	mov	r3, r1
 80074c8:	e9dd 0102 	ldrd	r0, r1, [sp, #8]
 80074cc:	f7f9 fa76 	bl	80009bc <__aeabi_dcmplt>
 80074d0:	2800      	cmp	r0, #0
 80074d2:	f43f aef6 	beq.w	80072c2 <_dtoa_r+0x43a>
 80074d6:	9e13      	ldr	r6, [sp, #76]	@ 0x4c
 80074d8:	1e73      	subs	r3, r6, #1
 80074da:	9313      	str	r3, [sp, #76]	@ 0x4c
 80074dc:	f816 3c01 	ldrb.w	r3, [r6, #-1]
 80074e0:	2b30      	cmp	r3, #48	@ 0x30
 80074e2:	d0f8      	beq.n	80074d6 <_dtoa_r+0x64e>
 80074e4:	9f04      	ldr	r7, [sp, #16]
 80074e6:	e73f      	b.n	8007368 <_dtoa_r+0x4e0>
 80074e8:	4b29      	ldr	r3, [pc, #164]	@ (8007590 <_dtoa_r+0x708>)
 80074ea:	f7f8 fff5 	bl	80004d8 <__aeabi_dmul>
 80074ee:	e9cd 0102 	strd	r0, r1, [sp, #8]
 80074f2:	e7bc      	b.n	800746e <_dtoa_r+0x5e6>
 80074f4:	d10c      	bne.n	8007510 <_dtoa_r+0x688>
 80074f6:	e9dd 0104 	ldrd	r0, r1, [sp, #16]
 80074fa:	2200      	movs	r2, #0
 80074fc:	4b25      	ldr	r3, [pc, #148]	@ (8007594 <_dtoa_r+0x70c>)
 80074fe:	f7f8 ffeb 	bl	80004d8 <__aeabi_dmul>
 8007502:	e9dd 2302 	ldrd	r2, r3, [sp, #8]
 8007506:	f7f9 fa6d 	bl	80009e4 <__aeabi_dcmpge>
 800750a:	2800      	cmp	r0, #0
 800750c:	f000 815b 	beq.w	80077c6 <_dtoa_r+0x93e>
 8007510:	2400      	movs	r4, #0
 8007512:	4625      	mov	r5, r4
 8007514:	9b21      	ldr	r3, [sp, #132]	@ 0x84
 8007516:	4656      	mov	r6, sl
 8007518:	43db      	mvns	r3, r3
 800751a:	9304      	str	r3, [sp, #16]
 800751c:	2700      	movs	r7, #0
 800751e:	4621      	mov	r1, r4
 8007520:	4658      	mov	r0, fp
 8007522:	f000 fce9 	bl	8007ef8 <_Bfree>
 8007526:	2d00      	cmp	r5, #0
 8007528:	d0dc      	beq.n	80074e4 <_dtoa_r+0x65c>
 800752a:	b12f      	cbz	r7, 8007538 <_dtoa_r+0x6b0>
 800752c:	42af      	cmp	r7, r5
 800752e:	d003      	beq.n	8007538 <_dtoa_r+0x6b0>
 8007530:	4639      	mov	r1, r7
 8007532:	4658      	mov	r0, fp
 8007534:	f000 fce0 	bl	8007ef8 <_Bfree>
 8007538:	4629      	mov	r1, r5
 800753a:	4658      	mov	r0, fp
 800753c:	f000 fcdc 	bl	8007ef8 <_Bfree>
 8007540:	e7d0      	b.n	80074e4 <_dtoa_r+0x65c>
 8007542:	9704      	str	r7, [sp, #16]
 8007544:	4633      	mov	r3, r6
 8007546:	461e      	mov	r6, r3
 8007548:	f813 2d01 	ldrb.w	r2, [r3, #-1]!
 800754c:	2a39      	cmp	r2, #57	@ 0x39
 800754e:	d107      	bne.n	8007560 <_dtoa_r+0x6d8>
 8007550:	459a      	cmp	sl, r3
 8007552:	d1f8      	bne.n	8007546 <_dtoa_r+0x6be>
 8007554:	9a04      	ldr	r2, [sp, #16]
 8007556:	3201      	adds	r2, #1
 8007558:	9204      	str	r2, [sp, #16]
 800755a:	2230      	movs	r2, #48	@ 0x30
 800755c:	f88a 2000 	strb.w	r2, [sl]
 8007560:	781a      	ldrb	r2, [r3, #0]
 8007562:	3201      	adds	r2, #1
 8007564:	701a      	strb	r2, [r3, #0]
 8007566:	e7bd      	b.n	80074e4 <_dtoa_r+0x65c>
 8007568:	2200      	movs	r2, #0
 800756a:	4b09      	ldr	r3, [pc, #36]	@ (8007590 <_dtoa_r+0x708>)
 800756c:	f7f8 ffb4 	bl	80004d8 <__aeabi_dmul>
 8007570:	2200      	movs	r2, #0
 8007572:	2300      	movs	r3, #0
 8007574:	4604      	mov	r4, r0
 8007576:	460d      	mov	r5, r1
 8007578:	f7f9 fa16 	bl	80009a8 <__aeabi_dcmpeq>
 800757c:	2800      	cmp	r0, #0
 800757e:	f43f aebc 	beq.w	80072fa <_dtoa_r+0x472>
 8007582:	e6f1      	b.n	8007368 <_dtoa_r+0x4e0>
 8007584:	08008d88 	.word	0x08008d88
 8007588:	3fe00000 	.word	0x3fe00000
 800758c:	3ff00000 	.word	0x3ff00000
 8007590:	40240000 	.word	0x40240000
 8007594:	40140000 	.word	0x40140000
 8007598:	9a0b      	ldr	r2, [sp, #44]	@ 0x2c
 800759a:	2a00      	cmp	r2, #0
 800759c:	f000 80db 	beq.w	8007756 <_dtoa_r+0x8ce>
 80075a0:	9a20      	ldr	r2, [sp, #128]	@ 0x80
 80075a2:	2a01      	cmp	r2, #1
 80075a4:	f300 80bf 	bgt.w	8007726 <_dtoa_r+0x89e>
 80075a8:	9a12      	ldr	r2, [sp, #72]	@ 0x48
 80075aa:	2a00      	cmp	r2, #0
 80075ac:	f000 80b7 	beq.w	800771e <_dtoa_r+0x896>
 80075b0:	f203 4333 	addw	r3, r3, #1075	@ 0x433
 80075b4:	4646      	mov	r6, r8
 80075b6:	9c0a      	ldr	r4, [sp, #40]	@ 0x28
 80075b8:	9a09      	ldr	r2, [sp, #36]	@ 0x24
 80075ba:	2101      	movs	r1, #1
 80075bc:	441a      	add	r2, r3
 80075be:	4658      	mov	r0, fp
 80075c0:	4498      	add	r8, r3
 80075c2:	9209      	str	r2, [sp, #36]	@ 0x24
 80075c4:	f000 fd4c 	bl	8008060 <__i2b>
 80075c8:	4605      	mov	r5, r0
 80075ca:	b15e      	cbz	r6, 80075e4 <_dtoa_r+0x75c>
 80075cc:	9b09      	ldr	r3, [sp, #36]	@ 0x24
 80075ce:	2b00      	cmp	r3, #0
 80075d0:	dd08      	ble.n	80075e4 <_dtoa_r+0x75c>
 80075d2:	42b3      	cmp	r3, r6
 80075d4:	bfa8      	it	ge
 80075d6:	4633      	movge	r3, r6
 80075d8:	9a09      	ldr	r2, [sp, #36]	@ 0x24
 80075da:	eba8 0803 	sub.w	r8, r8, r3
 80075de:	1af6      	subs	r6, r6, r3
 80075e0:	1ad3      	subs	r3, r2, r3
 80075e2:	9309      	str	r3, [sp, #36]	@ 0x24
 80075e4:	9b0a      	ldr	r3, [sp, #40]	@ 0x28
 80075e6:	b1f3      	cbz	r3, 8007626 <_dtoa_r+0x79e>
 80075e8:	9b0b      	ldr	r3, [sp, #44]	@ 0x2c
 80075ea:	2b00      	cmp	r3, #0
 80075ec:	f000 80b7 	beq.w	800775e <_dtoa_r+0x8d6>
 80075f0:	b18c      	cbz	r4, 8007616 <_dtoa_r+0x78e>
 80075f2:	4629      	mov	r1, r5
 80075f4:	4622      	mov	r2, r4
 80075f6:	4658      	mov	r0, fp
 80075f8:	f000 fdf0 	bl	80081dc <__pow5mult>
 80075fc:	464a      	mov	r2, r9
 80075fe:	4601      	mov	r1, r0
 8007600:	4605      	mov	r5, r0
 8007602:	4658      	mov	r0, fp
 8007604:	f000 fd42 	bl	800808c <__multiply>
 8007608:	4649      	mov	r1, r9
 800760a:	9004      	str	r0, [sp, #16]
 800760c:	4658      	mov	r0, fp
 800760e:	f000 fc73 	bl	8007ef8 <_Bfree>
 8007612:	9b04      	ldr	r3, [sp, #16]
 8007614:	4699      	mov	r9, r3
 8007616:	9b0a      	ldr	r3, [sp, #40]	@ 0x28
 8007618:	1b1a      	subs	r2, r3, r4
 800761a:	d004      	beq.n	8007626 <_dtoa_r+0x79e>
 800761c:	4649      	mov	r1, r9
 800761e:	4658      	mov	r0, fp
 8007620:	f000 fddc 	bl	80081dc <__pow5mult>
 8007624:	4681      	mov	r9, r0
 8007626:	2101      	movs	r1, #1
 8007628:	4658      	mov	r0, fp
 800762a:	f000 fd19 	bl	8008060 <__i2b>
 800762e:	9b0e      	ldr	r3, [sp, #56]	@ 0x38
 8007630:	4604      	mov	r4, r0
 8007632:	2b00      	cmp	r3, #0
 8007634:	f000 81c9 	beq.w	80079ca <_dtoa_r+0xb42>
 8007638:	461a      	mov	r2, r3
 800763a:	4601      	mov	r1, r0
 800763c:	4658      	mov	r0, fp
 800763e:	f000 fdcd 	bl	80081dc <__pow5mult>
 8007642:	9b20      	ldr	r3, [sp, #128]	@ 0x80
 8007644:	4604      	mov	r4, r0
 8007646:	2b01      	cmp	r3, #1
 8007648:	f300 808f 	bgt.w	800776a <_dtoa_r+0x8e2>
 800764c:	9b02      	ldr	r3, [sp, #8]
 800764e:	2b00      	cmp	r3, #0
 8007650:	f040 8087 	bne.w	8007762 <_dtoa_r+0x8da>
 8007654:	9b03      	ldr	r3, [sp, #12]
 8007656:	f3c3 0313 	ubfx	r3, r3, #0, #20
 800765a:	2b00      	cmp	r3, #0
 800765c:	f040 8083 	bne.w	8007766 <_dtoa_r+0x8de>
 8007660:	9b03      	ldr	r3, [sp, #12]
 8007662:	f023 4300 	bic.w	r3, r3, #2147483648	@ 0x80000000
 8007666:	0d1b      	lsrs	r3, r3, #20
 8007668:	051b      	lsls	r3, r3, #20
 800766a:	b12b      	cbz	r3, 8007678 <_dtoa_r+0x7f0>
 800766c:	9b09      	ldr	r3, [sp, #36]	@ 0x24
 800766e:	f108 0801 	add.w	r8, r8, #1
 8007672:	3301      	adds	r3, #1
 8007674:	9309      	str	r3, [sp, #36]	@ 0x24
 8007676:	2301      	movs	r3, #1
 8007678:	930a      	str	r3, [sp, #40]	@ 0x28
 800767a:	9b0e      	ldr	r3, [sp, #56]	@ 0x38
 800767c:	2b00      	cmp	r3, #0
 800767e:	f000 81aa 	beq.w	80079d6 <_dtoa_r+0xb4e>
 8007682:	6923      	ldr	r3, [r4, #16]
 8007684:	eb04 0383 	add.w	r3, r4, r3, lsl #2
 8007688:	6918      	ldr	r0, [r3, #16]
 800768a:	f000 fc9d 	bl	8007fc8 <__hi0bits>
 800768e:	f1c0 0020 	rsb	r0, r0, #32
 8007692:	9b09      	ldr	r3, [sp, #36]	@ 0x24
 8007694:	4418      	add	r0, r3
 8007696:	f010 001f 	ands.w	r0, r0, #31
 800769a:	d071      	beq.n	8007780 <_dtoa_r+0x8f8>
 800769c:	f1c0 0320 	rsb	r3, r0, #32
 80076a0:	2b04      	cmp	r3, #4
 80076a2:	dd65      	ble.n	8007770 <_dtoa_r+0x8e8>
 80076a4:	9b09      	ldr	r3, [sp, #36]	@ 0x24
 80076a6:	f1c0 001c 	rsb	r0, r0, #28
 80076aa:	4403      	add	r3, r0
 80076ac:	4480      	add	r8, r0
 80076ae:	4406      	add	r6, r0
 80076b0:	9309      	str	r3, [sp, #36]	@ 0x24
 80076b2:	f1b8 0f00 	cmp.w	r8, #0
 80076b6:	dd05      	ble.n	80076c4 <_dtoa_r+0x83c>
 80076b8:	4649      	mov	r1, r9
 80076ba:	4642      	mov	r2, r8
 80076bc:	4658      	mov	r0, fp
 80076be:	f000 fde7 	bl	8008290 <__lshift>
 80076c2:	4681      	mov	r9, r0
 80076c4:	9b09      	ldr	r3, [sp, #36]	@ 0x24
 80076c6:	2b00      	cmp	r3, #0
 80076c8:	dd05      	ble.n	80076d6 <_dtoa_r+0x84e>
 80076ca:	4621      	mov	r1, r4
 80076cc:	461a      	mov	r2, r3
 80076ce:	4658      	mov	r0, fp
 80076d0:	f000 fdde 	bl	8008290 <__lshift>
 80076d4:	4604      	mov	r4, r0
 80076d6:	9b0f      	ldr	r3, [sp, #60]	@ 0x3c
 80076d8:	2b00      	cmp	r3, #0
 80076da:	d053      	beq.n	8007784 <_dtoa_r+0x8fc>
 80076dc:	4621      	mov	r1, r4
 80076de:	4648      	mov	r0, r9
 80076e0:	f000 fe42 	bl	8008368 <__mcmp>
 80076e4:	2800      	cmp	r0, #0
 80076e6:	da4d      	bge.n	8007784 <_dtoa_r+0x8fc>
 80076e8:	1e7b      	subs	r3, r7, #1
 80076ea:	4649      	mov	r1, r9
 80076ec:	9304      	str	r3, [sp, #16]
 80076ee:	220a      	movs	r2, #10
 80076f0:	2300      	movs	r3, #0
 80076f2:	4658      	mov	r0, fp
 80076f4:	f000 fc22 	bl	8007f3c <__multadd>
 80076f8:	9b0b      	ldr	r3, [sp, #44]	@ 0x2c
 80076fa:	4681      	mov	r9, r0
 80076fc:	2b00      	cmp	r3, #0
 80076fe:	f000 816c 	beq.w	80079da <_dtoa_r+0xb52>
 8007702:	2300      	movs	r3, #0
 8007704:	4629      	mov	r1, r5
 8007706:	220a      	movs	r2, #10
 8007708:	4658      	mov	r0, fp
 800770a:	f000 fc17 	bl	8007f3c <__multadd>
 800770e:	9b08      	ldr	r3, [sp, #32]
 8007710:	4605      	mov	r5, r0
 8007712:	2b00      	cmp	r3, #0
 8007714:	dc61      	bgt.n	80077da <_dtoa_r+0x952>
 8007716:	9b20      	ldr	r3, [sp, #128]	@ 0x80
 8007718:	2b02      	cmp	r3, #2
 800771a:	dc3b      	bgt.n	8007794 <_dtoa_r+0x90c>
 800771c:	e05d      	b.n	80077da <_dtoa_r+0x952>
 800771e:	9b14      	ldr	r3, [sp, #80]	@ 0x50
 8007720:	f1c3 0336 	rsb	r3, r3, #54	@ 0x36
 8007724:	e746      	b.n	80075b4 <_dtoa_r+0x72c>
 8007726:	9b07      	ldr	r3, [sp, #28]
 8007728:	1e5c      	subs	r4, r3, #1
 800772a:	9b0a      	ldr	r3, [sp, #40]	@ 0x28
 800772c:	42a3      	cmp	r3, r4
 800772e:	bfbf      	itttt	lt
 8007730:	9b0a      	ldrlt	r3, [sp, #40]	@ 0x28
 8007732:	9a0e      	ldrlt	r2, [sp, #56]	@ 0x38
 8007734:	1ae3      	sublt	r3, r4, r3
 8007736:	18d2      	addlt	r2, r2, r3
 8007738:	bfa8      	it	ge
 800773a:	1b1c      	subge	r4, r3, r4
 800773c:	9b07      	ldr	r3, [sp, #28]
 800773e:	bfbe      	ittt	lt
 8007740:	940a      	strlt	r4, [sp, #40]	@ 0x28
 8007742:	920e      	strlt	r2, [sp, #56]	@ 0x38
 8007744:	2400      	movlt	r4, #0
 8007746:	2b00      	cmp	r3, #0
 8007748:	bfb5      	itete	lt
 800774a:	eba8 0603 	sublt.w	r6, r8, r3
 800774e:	4646      	movge	r6, r8
 8007750:	2300      	movlt	r3, #0
 8007752:	9b07      	ldrge	r3, [sp, #28]
 8007754:	e730      	b.n	80075b8 <_dtoa_r+0x730>
 8007756:	4646      	mov	r6, r8
 8007758:	9c0a      	ldr	r4, [sp, #40]	@ 0x28
 800775a:	9d0b      	ldr	r5, [sp, #44]	@ 0x2c
 800775c:	e735      	b.n	80075ca <_dtoa_r+0x742>
 800775e:	9a0a      	ldr	r2, [sp, #40]	@ 0x28
 8007760:	e75c      	b.n	800761c <_dtoa_r+0x794>
 8007762:	2300      	movs	r3, #0
 8007764:	e788      	b.n	8007678 <_dtoa_r+0x7f0>
 8007766:	9b02      	ldr	r3, [sp, #8]
 8007768:	e786      	b.n	8007678 <_dtoa_r+0x7f0>
 800776a:	2300      	movs	r3, #0
 800776c:	930a      	str	r3, [sp, #40]	@ 0x28
 800776e:	e788      	b.n	8007682 <_dtoa_r+0x7fa>
 8007770:	d09f      	beq.n	80076b2 <_dtoa_r+0x82a>
 8007772:	9a09      	ldr	r2, [sp, #36]	@ 0x24
 8007774:	331c      	adds	r3, #28
 8007776:	441a      	add	r2, r3
 8007778:	4498      	add	r8, r3
 800777a:	441e      	add	r6, r3
 800777c:	9209      	str	r2, [sp, #36]	@ 0x24
 800777e:	e798      	b.n	80076b2 <_dtoa_r+0x82a>
 8007780:	4603      	mov	r3, r0
 8007782:	e7f6      	b.n	8007772 <_dtoa_r+0x8ea>
 8007784:	9b07      	ldr	r3, [sp, #28]
 8007786:	9704      	str	r7, [sp, #16]
 8007788:	2b00      	cmp	r3, #0
 800778a:	dc20      	bgt.n	80077ce <_dtoa_r+0x946>
 800778c:	9308      	str	r3, [sp, #32]
 800778e:	9b20      	ldr	r3, [sp, #128]	@ 0x80
 8007790:	2b02      	cmp	r3, #2
 8007792:	dd1e      	ble.n	80077d2 <_dtoa_r+0x94a>
 8007794:	9b08      	ldr	r3, [sp, #32]
 8007796:	2b00      	cmp	r3, #0
 8007798:	f47f aebc 	bne.w	8007514 <_dtoa_r+0x68c>
 800779c:	4621      	mov	r1, r4
 800779e:	2205      	movs	r2, #5
 80077a0:	4658      	mov	r0, fp
 80077a2:	f000 fbcb 	bl	8007f3c <__multadd>
 80077a6:	4601      	mov	r1, r0
 80077a8:	4604      	mov	r4, r0
 80077aa:	4648      	mov	r0, r9
 80077ac:	f000 fddc 	bl	8008368 <__mcmp>
 80077b0:	2800      	cmp	r0, #0
 80077b2:	f77f aeaf 	ble.w	8007514 <_dtoa_r+0x68c>
 80077b6:	2331      	movs	r3, #49	@ 0x31
 80077b8:	4656      	mov	r6, sl
 80077ba:	f806 3b01 	strb.w	r3, [r6], #1
 80077be:	9b04      	ldr	r3, [sp, #16]
 80077c0:	3301      	adds	r3, #1
 80077c2:	9304      	str	r3, [sp, #16]
 80077c4:	e6aa      	b.n	800751c <_dtoa_r+0x694>
 80077c6:	9c07      	ldr	r4, [sp, #28]
 80077c8:	9704      	str	r7, [sp, #16]
 80077ca:	4625      	mov	r5, r4
 80077cc:	e7f3      	b.n	80077b6 <_dtoa_r+0x92e>
 80077ce:	9b07      	ldr	r3, [sp, #28]
 80077d0:	9308      	str	r3, [sp, #32]
 80077d2:	9b0b      	ldr	r3, [sp, #44]	@ 0x2c
 80077d4:	2b00      	cmp	r3, #0
 80077d6:	f000 8104 	beq.w	80079e2 <_dtoa_r+0xb5a>
 80077da:	2e00      	cmp	r6, #0
 80077dc:	dd05      	ble.n	80077ea <_dtoa_r+0x962>
 80077de:	4629      	mov	r1, r5
 80077e0:	4632      	mov	r2, r6
 80077e2:	4658      	mov	r0, fp
 80077e4:	f000 fd54 	bl	8008290 <__lshift>
 80077e8:	4605      	mov	r5, r0
 80077ea:	9b0a      	ldr	r3, [sp, #40]	@ 0x28
 80077ec:	2b00      	cmp	r3, #0
 80077ee:	d05a      	beq.n	80078a6 <_dtoa_r+0xa1e>
 80077f0:	4658      	mov	r0, fp
 80077f2:	6869      	ldr	r1, [r5, #4]
 80077f4:	f000 fb40 	bl	8007e78 <_Balloc>
 80077f8:	4606      	mov	r6, r0
 80077fa:	b928      	cbnz	r0, 8007808 <_dtoa_r+0x980>
 80077fc:	4602      	mov	r2, r0
 80077fe:	f240 21ef 	movw	r1, #751	@ 0x2ef
 8007802:	4b83      	ldr	r3, [pc, #524]	@ (8007a10 <_dtoa_r+0xb88>)
 8007804:	f7ff bb54 	b.w	8006eb0 <_dtoa_r+0x28>
 8007808:	692a      	ldr	r2, [r5, #16]
 800780a:	f105 010c 	add.w	r1, r5, #12
 800780e:	3202      	adds	r2, #2
 8007810:	0092      	lsls	r2, r2, #2
 8007812:	300c      	adds	r0, #12
 8007814:	f001 f852 	bl	80088bc <memcpy>
 8007818:	2201      	movs	r2, #1
 800781a:	4631      	mov	r1, r6
 800781c:	4658      	mov	r0, fp
 800781e:	f000 fd37 	bl	8008290 <__lshift>
 8007822:	462f      	mov	r7, r5
 8007824:	4605      	mov	r5, r0
 8007826:	f10a 0301 	add.w	r3, sl, #1
 800782a:	9307      	str	r3, [sp, #28]
 800782c:	9b08      	ldr	r3, [sp, #32]
 800782e:	4453      	add	r3, sl
 8007830:	930b      	str	r3, [sp, #44]	@ 0x2c
 8007832:	9b02      	ldr	r3, [sp, #8]
 8007834:	f003 0301 	and.w	r3, r3, #1
 8007838:	930a      	str	r3, [sp, #40]	@ 0x28
 800783a:	9b07      	ldr	r3, [sp, #28]
 800783c:	4621      	mov	r1, r4
 800783e:	3b01      	subs	r3, #1
 8007840:	4648      	mov	r0, r9
 8007842:	9302      	str	r3, [sp, #8]
 8007844:	f7ff fa97 	bl	8006d76 <quorem>
 8007848:	4639      	mov	r1, r7
 800784a:	9008      	str	r0, [sp, #32]
 800784c:	f100 0830 	add.w	r8, r0, #48	@ 0x30
 8007850:	4648      	mov	r0, r9
 8007852:	f000 fd89 	bl	8008368 <__mcmp>
 8007856:	462a      	mov	r2, r5
 8007858:	9009      	str	r0, [sp, #36]	@ 0x24
 800785a:	4621      	mov	r1, r4
 800785c:	4658      	mov	r0, fp
 800785e:	f000 fd9f 	bl	80083a0 <__mdiff>
 8007862:	68c2      	ldr	r2, [r0, #12]
 8007864:	4606      	mov	r6, r0
 8007866:	bb02      	cbnz	r2, 80078aa <_dtoa_r+0xa22>
 8007868:	4601      	mov	r1, r0
 800786a:	4648      	mov	r0, r9
 800786c:	f000 fd7c 	bl	8008368 <__mcmp>
 8007870:	4602      	mov	r2, r0
 8007872:	4631      	mov	r1, r6
 8007874:	4658      	mov	r0, fp
 8007876:	920c      	str	r2, [sp, #48]	@ 0x30
 8007878:	f000 fb3e 	bl	8007ef8 <_Bfree>
 800787c:	9b20      	ldr	r3, [sp, #128]	@ 0x80
 800787e:	9a0c      	ldr	r2, [sp, #48]	@ 0x30
 8007880:	9e07      	ldr	r6, [sp, #28]
 8007882:	ea43 0102 	orr.w	r1, r3, r2
 8007886:	9b0a      	ldr	r3, [sp, #40]	@ 0x28
 8007888:	4319      	orrs	r1, r3
 800788a:	d110      	bne.n	80078ae <_dtoa_r+0xa26>
 800788c:	f1b8 0f39 	cmp.w	r8, #57	@ 0x39
 8007890:	d029      	beq.n	80078e6 <_dtoa_r+0xa5e>
 8007892:	9b09      	ldr	r3, [sp, #36]	@ 0x24
 8007894:	2b00      	cmp	r3, #0
 8007896:	dd02      	ble.n	800789e <_dtoa_r+0xa16>
 8007898:	9b08      	ldr	r3, [sp, #32]
 800789a:	f103 0831 	add.w	r8, r3, #49	@ 0x31
 800789e:	9b02      	ldr	r3, [sp, #8]
 80078a0:	f883 8000 	strb.w	r8, [r3]
 80078a4:	e63b      	b.n	800751e <_dtoa_r+0x696>
 80078a6:	4628      	mov	r0, r5
 80078a8:	e7bb      	b.n	8007822 <_dtoa_r+0x99a>
 80078aa:	2201      	movs	r2, #1
 80078ac:	e7e1      	b.n	8007872 <_dtoa_r+0x9ea>
 80078ae:	9b09      	ldr	r3, [sp, #36]	@ 0x24
 80078b0:	2b00      	cmp	r3, #0
 80078b2:	db04      	blt.n	80078be <_dtoa_r+0xa36>
 80078b4:	9920      	ldr	r1, [sp, #128]	@ 0x80
 80078b6:	430b      	orrs	r3, r1
 80078b8:	990a      	ldr	r1, [sp, #40]	@ 0x28
 80078ba:	430b      	orrs	r3, r1
 80078bc:	d120      	bne.n	8007900 <_dtoa_r+0xa78>
 80078be:	2a00      	cmp	r2, #0
 80078c0:	dded      	ble.n	800789e <_dtoa_r+0xa16>
 80078c2:	4649      	mov	r1, r9
 80078c4:	2201      	movs	r2, #1
 80078c6:	4658      	mov	r0, fp
 80078c8:	f000 fce2 	bl	8008290 <__lshift>
 80078cc:	4621      	mov	r1, r4
 80078ce:	4681      	mov	r9, r0
 80078d0:	f000 fd4a 	bl	8008368 <__mcmp>
 80078d4:	2800      	cmp	r0, #0
 80078d6:	dc03      	bgt.n	80078e0 <_dtoa_r+0xa58>
 80078d8:	d1e1      	bne.n	800789e <_dtoa_r+0xa16>
 80078da:	f018 0f01 	tst.w	r8, #1
 80078de:	d0de      	beq.n	800789e <_dtoa_r+0xa16>
 80078e0:	f1b8 0f39 	cmp.w	r8, #57	@ 0x39
 80078e4:	d1d8      	bne.n	8007898 <_dtoa_r+0xa10>
 80078e6:	2339      	movs	r3, #57	@ 0x39
 80078e8:	9a02      	ldr	r2, [sp, #8]
 80078ea:	7013      	strb	r3, [r2, #0]
 80078ec:	4633      	mov	r3, r6
 80078ee:	461e      	mov	r6, r3
 80078f0:	f816 2c01 	ldrb.w	r2, [r6, #-1]
 80078f4:	3b01      	subs	r3, #1
 80078f6:	2a39      	cmp	r2, #57	@ 0x39
 80078f8:	d052      	beq.n	80079a0 <_dtoa_r+0xb18>
 80078fa:	3201      	adds	r2, #1
 80078fc:	701a      	strb	r2, [r3, #0]
 80078fe:	e60e      	b.n	800751e <_dtoa_r+0x696>
 8007900:	2a00      	cmp	r2, #0
 8007902:	dd07      	ble.n	8007914 <_dtoa_r+0xa8c>
 8007904:	f1b8 0f39 	cmp.w	r8, #57	@ 0x39
 8007908:	d0ed      	beq.n	80078e6 <_dtoa_r+0xa5e>
 800790a:	9a02      	ldr	r2, [sp, #8]
 800790c:	f108 0301 	add.w	r3, r8, #1
 8007910:	7013      	strb	r3, [r2, #0]
 8007912:	e604      	b.n	800751e <_dtoa_r+0x696>
 8007914:	9b07      	ldr	r3, [sp, #28]
 8007916:	9a07      	ldr	r2, [sp, #28]
 8007918:	f803 8c01 	strb.w	r8, [r3, #-1]
 800791c:	9b0b      	ldr	r3, [sp, #44]	@ 0x2c
 800791e:	4293      	cmp	r3, r2
 8007920:	d028      	beq.n	8007974 <_dtoa_r+0xaec>
 8007922:	4649      	mov	r1, r9
 8007924:	2300      	movs	r3, #0
 8007926:	220a      	movs	r2, #10
 8007928:	4658      	mov	r0, fp
 800792a:	f000 fb07 	bl	8007f3c <__multadd>
 800792e:	42af      	cmp	r7, r5
 8007930:	4681      	mov	r9, r0
 8007932:	f04f 0300 	mov.w	r3, #0
 8007936:	f04f 020a 	mov.w	r2, #10
 800793a:	4639      	mov	r1, r7
 800793c:	4658      	mov	r0, fp
 800793e:	d107      	bne.n	8007950 <_dtoa_r+0xac8>
 8007940:	f000 fafc 	bl	8007f3c <__multadd>
 8007944:	4607      	mov	r7, r0
 8007946:	4605      	mov	r5, r0
 8007948:	9b07      	ldr	r3, [sp, #28]
 800794a:	3301      	adds	r3, #1
 800794c:	9307      	str	r3, [sp, #28]
 800794e:	e774      	b.n	800783a <_dtoa_r+0x9b2>
 8007950:	f000 faf4 	bl	8007f3c <__multadd>
 8007954:	4629      	mov	r1, r5
 8007956:	4607      	mov	r7, r0
 8007958:	2300      	movs	r3, #0
 800795a:	220a      	movs	r2, #10
 800795c:	4658      	mov	r0, fp
 800795e:	f000 faed 	bl	8007f3c <__multadd>
 8007962:	4605      	mov	r5, r0
 8007964:	e7f0      	b.n	8007948 <_dtoa_r+0xac0>
 8007966:	9b08      	ldr	r3, [sp, #32]
 8007968:	2700      	movs	r7, #0
 800796a:	2b00      	cmp	r3, #0
 800796c:	bfcc      	ite	gt
 800796e:	461e      	movgt	r6, r3
 8007970:	2601      	movle	r6, #1
 8007972:	4456      	add	r6, sl
 8007974:	4649      	mov	r1, r9
 8007976:	2201      	movs	r2, #1
 8007978:	4658      	mov	r0, fp
 800797a:	f000 fc89 	bl	8008290 <__lshift>
 800797e:	4621      	mov	r1, r4
 8007980:	4681      	mov	r9, r0
 8007982:	f000 fcf1 	bl	8008368 <__mcmp>
 8007986:	2800      	cmp	r0, #0
 8007988:	dcb0      	bgt.n	80078ec <_dtoa_r+0xa64>
 800798a:	d102      	bne.n	8007992 <_dtoa_r+0xb0a>
 800798c:	f018 0f01 	tst.w	r8, #1
 8007990:	d1ac      	bne.n	80078ec <_dtoa_r+0xa64>
 8007992:	4633      	mov	r3, r6
 8007994:	461e      	mov	r6, r3
 8007996:	f813 2d01 	ldrb.w	r2, [r3, #-1]!
 800799a:	2a30      	cmp	r2, #48	@ 0x30
 800799c:	d0fa      	beq.n	8007994 <_dtoa_r+0xb0c>
 800799e:	e5be      	b.n	800751e <_dtoa_r+0x696>
 80079a0:	459a      	cmp	sl, r3
 80079a2:	d1a4      	bne.n	80078ee <_dtoa_r+0xa66>
 80079a4:	9b04      	ldr	r3, [sp, #16]
 80079a6:	3301      	adds	r3, #1
 80079a8:	9304      	str	r3, [sp, #16]
 80079aa:	2331      	movs	r3, #49	@ 0x31
 80079ac:	f88a 3000 	strb.w	r3, [sl]
 80079b0:	e5b5      	b.n	800751e <_dtoa_r+0x696>
 80079b2:	9b24      	ldr	r3, [sp, #144]	@ 0x90
 80079b4:	f8df a05c 	ldr.w	sl, [pc, #92]	@ 8007a14 <_dtoa_r+0xb8c>
 80079b8:	b11b      	cbz	r3, 80079c2 <_dtoa_r+0xb3a>
 80079ba:	f10a 0308 	add.w	r3, sl, #8
 80079be:	9a24      	ldr	r2, [sp, #144]	@ 0x90
 80079c0:	6013      	str	r3, [r2, #0]
 80079c2:	4650      	mov	r0, sl
 80079c4:	b017      	add	sp, #92	@ 0x5c
 80079c6:	e8bd 8ff0 	ldmia.w	sp!, {r4, r5, r6, r7, r8, r9, sl, fp, pc}
 80079ca:	9b20      	ldr	r3, [sp, #128]	@ 0x80
 80079cc:	2b01      	cmp	r3, #1
 80079ce:	f77f ae3d 	ble.w	800764c <_dtoa_r+0x7c4>
 80079d2:	9b0e      	ldr	r3, [sp, #56]	@ 0x38
 80079d4:	930a      	str	r3, [sp, #40]	@ 0x28
 80079d6:	2001      	movs	r0, #1
 80079d8:	e65b      	b.n	8007692 <_dtoa_r+0x80a>
 80079da:	9b08      	ldr	r3, [sp, #32]
 80079dc:	2b00      	cmp	r3, #0
 80079de:	f77f aed6 	ble.w	800778e <_dtoa_r+0x906>
 80079e2:	4656      	mov	r6, sl
 80079e4:	4621      	mov	r1, r4
 80079e6:	4648      	mov	r0, r9
 80079e8:	f7ff f9c5 	bl	8006d76 <quorem>
 80079ec:	f100 0830 	add.w	r8, r0, #48	@ 0x30
 80079f0:	9b08      	ldr	r3, [sp, #32]
 80079f2:	f806 8b01 	strb.w	r8, [r6], #1
 80079f6:	eba6 020a 	sub.w	r2, r6, sl
 80079fa:	4293      	cmp	r3, r2
 80079fc:	ddb3      	ble.n	8007966 <_dtoa_r+0xade>
 80079fe:	4649      	mov	r1, r9
 8007a00:	2300      	movs	r3, #0
 8007a02:	220a      	movs	r2, #10
 8007a04:	4658      	mov	r0, fp
 8007a06:	f000 fa99 	bl	8007f3c <__multadd>
 8007a0a:	4681      	mov	r9, r0
 8007a0c:	e7ea      	b.n	80079e4 <_dtoa_r+0xb5c>
 8007a0e:	bf00      	nop
 8007a10:	08008cd2 	.word	0x08008cd2
 8007a14:	08008c56 	.word	0x08008c56

08007a18 <_free_r>:
 8007a18:	b538      	push	{r3, r4, r5, lr}
 8007a1a:	4605      	mov	r5, r0
 8007a1c:	2900      	cmp	r1, #0
 8007a1e:	d040      	beq.n	8007aa2 <_free_r+0x8a>
 8007a20:	f851 3c04 	ldr.w	r3, [r1, #-4]
 8007a24:	1f0c      	subs	r4, r1, #4
 8007a26:	2b00      	cmp	r3, #0
 8007a28:	bfb8      	it	lt
 8007a2a:	18e4      	addlt	r4, r4, r3
 8007a2c:	f7fe ffca 	bl	80069c4 <__malloc_lock>
 8007a30:	4a1c      	ldr	r2, [pc, #112]	@ (8007aa4 <_free_r+0x8c>)
 8007a32:	6813      	ldr	r3, [r2, #0]
 8007a34:	b933      	cbnz	r3, 8007a44 <_free_r+0x2c>
 8007a36:	6063      	str	r3, [r4, #4]
 8007a38:	6014      	str	r4, [r2, #0]
 8007a3a:	4628      	mov	r0, r5
 8007a3c:	e8bd 4038 	ldmia.w	sp!, {r3, r4, r5, lr}
 8007a40:	f7fe bfc6 	b.w	80069d0 <__malloc_unlock>
 8007a44:	42a3      	cmp	r3, r4
 8007a46:	d908      	bls.n	8007a5a <_free_r+0x42>
 8007a48:	6820      	ldr	r0, [r4, #0]
 8007a4a:	1821      	adds	r1, r4, r0
 8007a4c:	428b      	cmp	r3, r1
 8007a4e:	bf01      	itttt	eq
 8007a50:	6819      	ldreq	r1, [r3, #0]
 8007a52:	685b      	ldreq	r3, [r3, #4]
 8007a54:	1809      	addeq	r1, r1, r0
 8007a56:	6021      	streq	r1, [r4, #0]
 8007a58:	e7ed      	b.n	8007a36 <_free_r+0x1e>
 8007a5a:	461a      	mov	r2, r3
 8007a5c:	685b      	ldr	r3, [r3, #4]
 8007a5e:	b10b      	cbz	r3, 8007a64 <_free_r+0x4c>
 8007a60:	42a3      	cmp	r3, r4
 8007a62:	d9fa      	bls.n	8007a5a <_free_r+0x42>
 8007a64:	6811      	ldr	r1, [r2, #0]
 8007a66:	1850      	adds	r0, r2, r1
 8007a68:	42a0      	cmp	r0, r4
 8007a6a:	d10b      	bne.n	8007a84 <_free_r+0x6c>
 8007a6c:	6820      	ldr	r0, [r4, #0]
 8007a6e:	4401      	add	r1, r0
 8007a70:	1850      	adds	r0, r2, r1
 8007a72:	4283      	cmp	r3, r0
 8007a74:	6011      	str	r1, [r2, #0]
 8007a76:	d1e0      	bne.n	8007a3a <_free_r+0x22>
 8007a78:	6818      	ldr	r0, [r3, #0]
 8007a7a:	685b      	ldr	r3, [r3, #4]
 8007a7c:	4408      	add	r0, r1
 8007a7e:	6010      	str	r0, [r2, #0]
 8007a80:	6053      	str	r3, [r2, #4]
 8007a82:	e7da      	b.n	8007a3a <_free_r+0x22>
 8007a84:	d902      	bls.n	8007a8c <_free_r+0x74>
 8007a86:	230c      	movs	r3, #12
 8007a88:	602b      	str	r3, [r5, #0]
 8007a8a:	e7d6      	b.n	8007a3a <_free_r+0x22>
 8007a8c:	6820      	ldr	r0, [r4, #0]
 8007a8e:	1821      	adds	r1, r4, r0
 8007a90:	428b      	cmp	r3, r1
 8007a92:	bf01      	itttt	eq
 8007a94:	6819      	ldreq	r1, [r3, #0]
 8007a96:	685b      	ldreq	r3, [r3, #4]
 8007a98:	1809      	addeq	r1, r1, r0
 8007a9a:	6021      	streq	r1, [r4, #0]
 8007a9c:	6063      	str	r3, [r4, #4]
 8007a9e:	6054      	str	r4, [r2, #4]
 8007aa0:	e7cb      	b.n	8007a3a <_free_r+0x22>
 8007aa2:	bd38      	pop	{r3, r4, r5, pc}
 8007aa4:	20000394 	.word	0x20000394

08007aa8 <__sfputc_r>:
 8007aa8:	6893      	ldr	r3, [r2, #8]
 8007aaa:	b410      	push	{r4}
 8007aac:	3b01      	subs	r3, #1
 8007aae:	2b00      	cmp	r3, #0
 8007ab0:	6093      	str	r3, [r2, #8]
 8007ab2:	da07      	bge.n	8007ac4 <__sfputc_r+0x1c>
 8007ab4:	6994      	ldr	r4, [r2, #24]
 8007ab6:	42a3      	cmp	r3, r4
 8007ab8:	db01      	blt.n	8007abe <__sfputc_r+0x16>
 8007aba:	290a      	cmp	r1, #10
 8007abc:	d102      	bne.n	8007ac4 <__sfputc_r+0x1c>
 8007abe:	bc10      	pop	{r4}
 8007ac0:	f000 bd9d 	b.w	80085fe <__swbuf_r>
 8007ac4:	6813      	ldr	r3, [r2, #0]
 8007ac6:	1c58      	adds	r0, r3, #1
 8007ac8:	6010      	str	r0, [r2, #0]
 8007aca:	7019      	strb	r1, [r3, #0]
 8007acc:	4608      	mov	r0, r1
 8007ace:	bc10      	pop	{r4}
 8007ad0:	4770      	bx	lr

08007ad2 <__sfputs_r>:
 8007ad2:	b5f8      	push	{r3, r4, r5, r6, r7, lr}
 8007ad4:	4606      	mov	r6, r0
 8007ad6:	460f      	mov	r7, r1
 8007ad8:	4614      	mov	r4, r2
 8007ada:	18d5      	adds	r5, r2, r3
 8007adc:	42ac      	cmp	r4, r5
 8007ade:	d101      	bne.n	8007ae4 <__sfputs_r+0x12>
 8007ae0:	2000      	movs	r0, #0
 8007ae2:	e007      	b.n	8007af4 <__sfputs_r+0x22>
 8007ae4:	463a      	mov	r2, r7
 8007ae6:	4630      	mov	r0, r6
 8007ae8:	f814 1b01 	ldrb.w	r1, [r4], #1
 8007aec:	f7ff ffdc 	bl	8007aa8 <__sfputc_r>
 8007af0:	1c43      	adds	r3, r0, #1
 8007af2:	d1f3      	bne.n	8007adc <__sfputs_r+0xa>
 8007af4:	bdf8      	pop	{r3, r4, r5, r6, r7, pc}
	...

08007af8 <_vfiprintf_r>:
 8007af8:	e92d 4ff0 	stmdb	sp!, {r4, r5, r6, r7, r8, r9, sl, fp, lr}
 8007afc:	460d      	mov	r5, r1
 8007afe:	4614      	mov	r4, r2
 8007b00:	4698      	mov	r8, r3
 8007b02:	4606      	mov	r6, r0
 8007b04:	b09d      	sub	sp, #116	@ 0x74
 8007b06:	b118      	cbz	r0, 8007b10 <_vfiprintf_r+0x18>
 8007b08:	6a03      	ldr	r3, [r0, #32]
 8007b0a:	b90b      	cbnz	r3, 8007b10 <_vfiprintf_r+0x18>
 8007b0c:	f7fe fff2 	bl	8006af4 <__sinit>
 8007b10:	6e6b      	ldr	r3, [r5, #100]	@ 0x64
 8007b12:	07d9      	lsls	r1, r3, #31
 8007b14:	d405      	bmi.n	8007b22 <_vfiprintf_r+0x2a>
 8007b16:	89ab      	ldrh	r3, [r5, #12]
 8007b18:	059a      	lsls	r2, r3, #22
 8007b1a:	d402      	bmi.n	8007b22 <_vfiprintf_r+0x2a>
 8007b1c:	6da8      	ldr	r0, [r5, #88]	@ 0x58
 8007b1e:	f7ff f91a 	bl	8006d56 <__retarget_lock_acquire_recursive>
 8007b22:	89ab      	ldrh	r3, [r5, #12]
 8007b24:	071b      	lsls	r3, r3, #28
 8007b26:	d501      	bpl.n	8007b2c <_vfiprintf_r+0x34>
 8007b28:	692b      	ldr	r3, [r5, #16]
 8007b2a:	b99b      	cbnz	r3, 8007b54 <_vfiprintf_r+0x5c>
 8007b2c:	4629      	mov	r1, r5
 8007b2e:	4630      	mov	r0, r6
 8007b30:	f000 fda4 	bl	800867c <__swsetup_r>
 8007b34:	b170      	cbz	r0, 8007b54 <_vfiprintf_r+0x5c>
 8007b36:	6e6b      	ldr	r3, [r5, #100]	@ 0x64
 8007b38:	07dc      	lsls	r4, r3, #31
 8007b3a:	d504      	bpl.n	8007b46 <_vfiprintf_r+0x4e>
 8007b3c:	f04f 30ff 	mov.w	r0, #4294967295	@ 0xffffffff
 8007b40:	b01d      	add	sp, #116	@ 0x74
 8007b42:	e8bd 8ff0 	ldmia.w	sp!, {r4, r5, r6, r7, r8, r9, sl, fp, pc}
 8007b46:	89ab      	ldrh	r3, [r5, #12]
 8007b48:	0598      	lsls	r0, r3, #22
 8007b4a:	d4f7      	bmi.n	8007b3c <_vfiprintf_r+0x44>
 8007b4c:	6da8      	ldr	r0, [r5, #88]	@ 0x58
 8007b4e:	f7ff f903 	bl	8006d58 <__retarget_lock_release_recursive>
 8007b52:	e7f3      	b.n	8007b3c <_vfiprintf_r+0x44>
 8007b54:	2300      	movs	r3, #0
 8007b56:	9309      	str	r3, [sp, #36]	@ 0x24
 8007b58:	2320      	movs	r3, #32
 8007b5a:	f88d 3029 	strb.w	r3, [sp, #41]	@ 0x29
 8007b5e:	2330      	movs	r3, #48	@ 0x30
 8007b60:	f04f 0901 	mov.w	r9, #1
 8007b64:	f8cd 800c 	str.w	r8, [sp, #12]
 8007b68:	f8df 81a8 	ldr.w	r8, [pc, #424]	@ 8007d14 <_vfiprintf_r+0x21c>
 8007b6c:	f88d 302a 	strb.w	r3, [sp, #42]	@ 0x2a
 8007b70:	4623      	mov	r3, r4
 8007b72:	469a      	mov	sl, r3
 8007b74:	f813 2b01 	ldrb.w	r2, [r3], #1
 8007b78:	b10a      	cbz	r2, 8007b7e <_vfiprintf_r+0x86>
 8007b7a:	2a25      	cmp	r2, #37	@ 0x25
 8007b7c:	d1f9      	bne.n	8007b72 <_vfiprintf_r+0x7a>
 8007b7e:	ebba 0b04 	subs.w	fp, sl, r4
 8007b82:	d00b      	beq.n	8007b9c <_vfiprintf_r+0xa4>
 8007b84:	465b      	mov	r3, fp
 8007b86:	4622      	mov	r2, r4
 8007b88:	4629      	mov	r1, r5
 8007b8a:	4630      	mov	r0, r6
 8007b8c:	f7ff ffa1 	bl	8007ad2 <__sfputs_r>
 8007b90:	3001      	adds	r0, #1
 8007b92:	f000 80a7 	beq.w	8007ce4 <_vfiprintf_r+0x1ec>
 8007b96:	9a09      	ldr	r2, [sp, #36]	@ 0x24
 8007b98:	445a      	add	r2, fp
 8007b9a:	9209      	str	r2, [sp, #36]	@ 0x24
 8007b9c:	f89a 3000 	ldrb.w	r3, [sl]
 8007ba0:	2b00      	cmp	r3, #0
 8007ba2:	f000 809f 	beq.w	8007ce4 <_vfiprintf_r+0x1ec>
 8007ba6:	2300      	movs	r3, #0
 8007ba8:	f04f 32ff 	mov.w	r2, #4294967295	@ 0xffffffff
 8007bac:	e9cd 2305 	strd	r2, r3, [sp, #20]
 8007bb0:	f10a 0a01 	add.w	sl, sl, #1
 8007bb4:	9304      	str	r3, [sp, #16]
 8007bb6:	9307      	str	r3, [sp, #28]
 8007bb8:	f88d 3053 	strb.w	r3, [sp, #83]	@ 0x53
 8007bbc:	931a      	str	r3, [sp, #104]	@ 0x68
 8007bbe:	4654      	mov	r4, sl
 8007bc0:	2205      	movs	r2, #5
 8007bc2:	f814 1b01 	ldrb.w	r1, [r4], #1
 8007bc6:	4853      	ldr	r0, [pc, #332]	@ (8007d14 <_vfiprintf_r+0x21c>)
 8007bc8:	f7ff f8c7 	bl	8006d5a <memchr>
 8007bcc:	9a04      	ldr	r2, [sp, #16]
 8007bce:	b9d8      	cbnz	r0, 8007c08 <_vfiprintf_r+0x110>
 8007bd0:	06d1      	lsls	r1, r2, #27
 8007bd2:	bf44      	itt	mi
 8007bd4:	2320      	movmi	r3, #32
 8007bd6:	f88d 3053 	strbmi.w	r3, [sp, #83]	@ 0x53
 8007bda:	0713      	lsls	r3, r2, #28
 8007bdc:	bf44      	itt	mi
 8007bde:	232b      	movmi	r3, #43	@ 0x2b
 8007be0:	f88d 3053 	strbmi.w	r3, [sp, #83]	@ 0x53
 8007be4:	f89a 3000 	ldrb.w	r3, [sl]
 8007be8:	2b2a      	cmp	r3, #42	@ 0x2a
 8007bea:	d015      	beq.n	8007c18 <_vfiprintf_r+0x120>
 8007bec:	4654      	mov	r4, sl
 8007bee:	2000      	movs	r0, #0
 8007bf0:	f04f 0c0a 	mov.w	ip, #10
 8007bf4:	9a07      	ldr	r2, [sp, #28]
 8007bf6:	4621      	mov	r1, r4
 8007bf8:	f811 3b01 	ldrb.w	r3, [r1], #1
 8007bfc:	3b30      	subs	r3, #48	@ 0x30
 8007bfe:	2b09      	cmp	r3, #9
 8007c00:	d94b      	bls.n	8007c9a <_vfiprintf_r+0x1a2>
 8007c02:	b1b0      	cbz	r0, 8007c32 <_vfiprintf_r+0x13a>
 8007c04:	9207      	str	r2, [sp, #28]
 8007c06:	e014      	b.n	8007c32 <_vfiprintf_r+0x13a>
 8007c08:	eba0 0308 	sub.w	r3, r0, r8
 8007c0c:	fa09 f303 	lsl.w	r3, r9, r3
 8007c10:	4313      	orrs	r3, r2
 8007c12:	46a2      	mov	sl, r4
 8007c14:	9304      	str	r3, [sp, #16]
 8007c16:	e7d2      	b.n	8007bbe <_vfiprintf_r+0xc6>
 8007c18:	9b03      	ldr	r3, [sp, #12]
 8007c1a:	1d19      	adds	r1, r3, #4
 8007c1c:	681b      	ldr	r3, [r3, #0]
 8007c1e:	9103      	str	r1, [sp, #12]
 8007c20:	2b00      	cmp	r3, #0
 8007c22:	bfbb      	ittet	lt
 8007c24:	425b      	neglt	r3, r3
 8007c26:	f042 0202 	orrlt.w	r2, r2, #2
 8007c2a:	9307      	strge	r3, [sp, #28]
 8007c2c:	9307      	strlt	r3, [sp, #28]
 8007c2e:	bfb8      	it	lt
 8007c30:	9204      	strlt	r2, [sp, #16]
 8007c32:	7823      	ldrb	r3, [r4, #0]
 8007c34:	2b2e      	cmp	r3, #46	@ 0x2e
 8007c36:	d10a      	bne.n	8007c4e <_vfiprintf_r+0x156>
 8007c38:	7863      	ldrb	r3, [r4, #1]
 8007c3a:	2b2a      	cmp	r3, #42	@ 0x2a
 8007c3c:	d132      	bne.n	8007ca4 <_vfiprintf_r+0x1ac>
 8007c3e:	9b03      	ldr	r3, [sp, #12]
 8007c40:	3402      	adds	r4, #2
 8007c42:	1d1a      	adds	r2, r3, #4
 8007c44:	681b      	ldr	r3, [r3, #0]
 8007c46:	9203      	str	r2, [sp, #12]
 8007c48:	ea43 73e3 	orr.w	r3, r3, r3, asr #31
 8007c4c:	9305      	str	r3, [sp, #20]
 8007c4e:	f8df a0c8 	ldr.w	sl, [pc, #200]	@ 8007d18 <_vfiprintf_r+0x220>
 8007c52:	2203      	movs	r2, #3
 8007c54:	4650      	mov	r0, sl
 8007c56:	7821      	ldrb	r1, [r4, #0]
 8007c58:	f7ff f87f 	bl	8006d5a <memchr>
 8007c5c:	b138      	cbz	r0, 8007c6e <_vfiprintf_r+0x176>
 8007c5e:	2240      	movs	r2, #64	@ 0x40
 8007c60:	9b04      	ldr	r3, [sp, #16]
 8007c62:	eba0 000a 	sub.w	r0, r0, sl
 8007c66:	4082      	lsls	r2, r0
 8007c68:	4313      	orrs	r3, r2
 8007c6a:	3401      	adds	r4, #1
 8007c6c:	9304      	str	r3, [sp, #16]
 8007c6e:	f814 1b01 	ldrb.w	r1, [r4], #1
 8007c72:	2206      	movs	r2, #6
 8007c74:	4829      	ldr	r0, [pc, #164]	@ (8007d1c <_vfiprintf_r+0x224>)
 8007c76:	f88d 1028 	strb.w	r1, [sp, #40]	@ 0x28
 8007c7a:	f7ff f86e 	bl	8006d5a <memchr>
 8007c7e:	2800      	cmp	r0, #0
 8007c80:	d03f      	beq.n	8007d02 <_vfiprintf_r+0x20a>
 8007c82:	4b27      	ldr	r3, [pc, #156]	@ (8007d20 <_vfiprintf_r+0x228>)
 8007c84:	bb1b      	cbnz	r3, 8007cce <_vfiprintf_r+0x1d6>
 8007c86:	9b03      	ldr	r3, [sp, #12]
 8007c88:	3307      	adds	r3, #7
 8007c8a:	f023 0307 	bic.w	r3, r3, #7
 8007c8e:	3308      	adds	r3, #8
 8007c90:	9303      	str	r3, [sp, #12]
 8007c92:	9b09      	ldr	r3, [sp, #36]	@ 0x24
 8007c94:	443b      	add	r3, r7
 8007c96:	9309      	str	r3, [sp, #36]	@ 0x24
 8007c98:	e76a      	b.n	8007b70 <_vfiprintf_r+0x78>
 8007c9a:	460c      	mov	r4, r1
 8007c9c:	2001      	movs	r0, #1
 8007c9e:	fb0c 3202 	mla	r2, ip, r2, r3
 8007ca2:	e7a8      	b.n	8007bf6 <_vfiprintf_r+0xfe>
 8007ca4:	2300      	movs	r3, #0
 8007ca6:	f04f 0c0a 	mov.w	ip, #10
 8007caa:	4619      	mov	r1, r3
 8007cac:	3401      	adds	r4, #1
 8007cae:	9305      	str	r3, [sp, #20]
 8007cb0:	4620      	mov	r0, r4
 8007cb2:	f810 2b01 	ldrb.w	r2, [r0], #1
 8007cb6:	3a30      	subs	r2, #48	@ 0x30
 8007cb8:	2a09      	cmp	r2, #9
 8007cba:	d903      	bls.n	8007cc4 <_vfiprintf_r+0x1cc>
 8007cbc:	2b00      	cmp	r3, #0
 8007cbe:	d0c6      	beq.n	8007c4e <_vfiprintf_r+0x156>
 8007cc0:	9105      	str	r1, [sp, #20]
 8007cc2:	e7c4      	b.n	8007c4e <_vfiprintf_r+0x156>
 8007cc4:	4604      	mov	r4, r0
 8007cc6:	2301      	movs	r3, #1
 8007cc8:	fb0c 2101 	mla	r1, ip, r1, r2
 8007ccc:	e7f0      	b.n	8007cb0 <_vfiprintf_r+0x1b8>
 8007cce:	ab03      	add	r3, sp, #12
 8007cd0:	9300      	str	r3, [sp, #0]
 8007cd2:	462a      	mov	r2, r5
 8007cd4:	4630      	mov	r0, r6
 8007cd6:	4b13      	ldr	r3, [pc, #76]	@ (8007d24 <_vfiprintf_r+0x22c>)
 8007cd8:	a904      	add	r1, sp, #16
 8007cda:	f7fe fa03 	bl	80060e4 <_printf_float>
 8007cde:	4607      	mov	r7, r0
 8007ce0:	1c78      	adds	r0, r7, #1
 8007ce2:	d1d6      	bne.n	8007c92 <_vfiprintf_r+0x19a>
 8007ce4:	6e6b      	ldr	r3, [r5, #100]	@ 0x64
 8007ce6:	07d9      	lsls	r1, r3, #31
 8007ce8:	d405      	bmi.n	8007cf6 <_vfiprintf_r+0x1fe>
 8007cea:	89ab      	ldrh	r3, [r5, #12]
 8007cec:	059a      	lsls	r2, r3, #22
 8007cee:	d402      	bmi.n	8007cf6 <_vfiprintf_r+0x1fe>
 8007cf0:	6da8      	ldr	r0, [r5, #88]	@ 0x58
 8007cf2:	f7ff f831 	bl	8006d58 <__retarget_lock_release_recursive>
 8007cf6:	89ab      	ldrh	r3, [r5, #12]
 8007cf8:	065b      	lsls	r3, r3, #25
 8007cfa:	f53f af1f 	bmi.w	8007b3c <_vfiprintf_r+0x44>
 8007cfe:	9809      	ldr	r0, [sp, #36]	@ 0x24
 8007d00:	e71e      	b.n	8007b40 <_vfiprintf_r+0x48>
 8007d02:	ab03      	add	r3, sp, #12
 8007d04:	9300      	str	r3, [sp, #0]
 8007d06:	462a      	mov	r2, r5
 8007d08:	4630      	mov	r0, r6
 8007d0a:	4b06      	ldr	r3, [pc, #24]	@ (8007d24 <_vfiprintf_r+0x22c>)
 8007d0c:	a904      	add	r1, sp, #16
 8007d0e:	f7fe fd39 	bl	8006784 <_printf_i>
 8007d12:	e7e4      	b.n	8007cde <_vfiprintf_r+0x1e6>
 8007d14:	08008ce3 	.word	0x08008ce3
 8007d18:	08008ce9 	.word	0x08008ce9
 8007d1c:	08008ced 	.word	0x08008ced
 8007d20:	080060e5 	.word	0x080060e5
 8007d24:	08007ad3 	.word	0x08007ad3

08007d28 <__sflush_r>:
 8007d28:	f9b1 200c 	ldrsh.w	r2, [r1, #12]
 8007d2c:	b5f8      	push	{r3, r4, r5, r6, r7, lr}
 8007d2e:	0716      	lsls	r6, r2, #28
 8007d30:	4605      	mov	r5, r0
 8007d32:	460c      	mov	r4, r1
 8007d34:	d454      	bmi.n	8007de0 <__sflush_r+0xb8>
 8007d36:	684b      	ldr	r3, [r1, #4]
 8007d38:	2b00      	cmp	r3, #0
 8007d3a:	dc02      	bgt.n	8007d42 <__sflush_r+0x1a>
 8007d3c:	6c0b      	ldr	r3, [r1, #64]	@ 0x40
 8007d3e:	2b00      	cmp	r3, #0
 8007d40:	dd48      	ble.n	8007dd4 <__sflush_r+0xac>
 8007d42:	6ae6      	ldr	r6, [r4, #44]	@ 0x2c
 8007d44:	2e00      	cmp	r6, #0
 8007d46:	d045      	beq.n	8007dd4 <__sflush_r+0xac>
 8007d48:	2300      	movs	r3, #0
 8007d4a:	f412 5280 	ands.w	r2, r2, #4096	@ 0x1000
 8007d4e:	682f      	ldr	r7, [r5, #0]
 8007d50:	6a21      	ldr	r1, [r4, #32]
 8007d52:	602b      	str	r3, [r5, #0]
 8007d54:	d030      	beq.n	8007db8 <__sflush_r+0x90>
 8007d56:	6d62      	ldr	r2, [r4, #84]	@ 0x54
 8007d58:	89a3      	ldrh	r3, [r4, #12]
 8007d5a:	0759      	lsls	r1, r3, #29
 8007d5c:	d505      	bpl.n	8007d6a <__sflush_r+0x42>
 8007d5e:	6863      	ldr	r3, [r4, #4]
 8007d60:	1ad2      	subs	r2, r2, r3
 8007d62:	6b63      	ldr	r3, [r4, #52]	@ 0x34
 8007d64:	b10b      	cbz	r3, 8007d6a <__sflush_r+0x42>
 8007d66:	6c23      	ldr	r3, [r4, #64]	@ 0x40
 8007d68:	1ad2      	subs	r2, r2, r3
 8007d6a:	2300      	movs	r3, #0
 8007d6c:	4628      	mov	r0, r5
 8007d6e:	6ae6      	ldr	r6, [r4, #44]	@ 0x2c
 8007d70:	6a21      	ldr	r1, [r4, #32]
 8007d72:	47b0      	blx	r6
 8007d74:	1c43      	adds	r3, r0, #1
 8007d76:	89a3      	ldrh	r3, [r4, #12]
 8007d78:	d106      	bne.n	8007d88 <__sflush_r+0x60>
 8007d7a:	6829      	ldr	r1, [r5, #0]
 8007d7c:	291d      	cmp	r1, #29
 8007d7e:	d82b      	bhi.n	8007dd8 <__sflush_r+0xb0>
 8007d80:	4a28      	ldr	r2, [pc, #160]	@ (8007e24 <__sflush_r+0xfc>)
 8007d82:	410a      	asrs	r2, r1
 8007d84:	07d6      	lsls	r6, r2, #31
 8007d86:	d427      	bmi.n	8007dd8 <__sflush_r+0xb0>
 8007d88:	2200      	movs	r2, #0
 8007d8a:	6062      	str	r2, [r4, #4]
 8007d8c:	6922      	ldr	r2, [r4, #16]
 8007d8e:	04d9      	lsls	r1, r3, #19
 8007d90:	6022      	str	r2, [r4, #0]
 8007d92:	d504      	bpl.n	8007d9e <__sflush_r+0x76>
 8007d94:	1c42      	adds	r2, r0, #1
 8007d96:	d101      	bne.n	8007d9c <__sflush_r+0x74>
 8007d98:	682b      	ldr	r3, [r5, #0]
 8007d9a:	b903      	cbnz	r3, 8007d9e <__sflush_r+0x76>
 8007d9c:	6560      	str	r0, [r4, #84]	@ 0x54
 8007d9e:	6b61      	ldr	r1, [r4, #52]	@ 0x34
 8007da0:	602f      	str	r7, [r5, #0]
 8007da2:	b1b9      	cbz	r1, 8007dd4 <__sflush_r+0xac>
 8007da4:	f104 0344 	add.w	r3, r4, #68	@ 0x44
 8007da8:	4299      	cmp	r1, r3
 8007daa:	d002      	beq.n	8007db2 <__sflush_r+0x8a>
 8007dac:	4628      	mov	r0, r5
 8007dae:	f7ff fe33 	bl	8007a18 <_free_r>
 8007db2:	2300      	movs	r3, #0
 8007db4:	6363      	str	r3, [r4, #52]	@ 0x34
 8007db6:	e00d      	b.n	8007dd4 <__sflush_r+0xac>
 8007db8:	2301      	movs	r3, #1
 8007dba:	4628      	mov	r0, r5
 8007dbc:	47b0      	blx	r6
 8007dbe:	4602      	mov	r2, r0
 8007dc0:	1c50      	adds	r0, r2, #1
 8007dc2:	d1c9      	bne.n	8007d58 <__sflush_r+0x30>
 8007dc4:	682b      	ldr	r3, [r5, #0]
 8007dc6:	2b00      	cmp	r3, #0
 8007dc8:	d0c6      	beq.n	8007d58 <__sflush_r+0x30>
 8007dca:	2b1d      	cmp	r3, #29
 8007dcc:	d001      	beq.n	8007dd2 <__sflush_r+0xaa>
 8007dce:	2b16      	cmp	r3, #22
 8007dd0:	d11d      	bne.n	8007e0e <__sflush_r+0xe6>
 8007dd2:	602f      	str	r7, [r5, #0]
 8007dd4:	2000      	movs	r0, #0
 8007dd6:	e021      	b.n	8007e1c <__sflush_r+0xf4>
 8007dd8:	f043 0340 	orr.w	r3, r3, #64	@ 0x40
 8007ddc:	b21b      	sxth	r3, r3
 8007dde:	e01a      	b.n	8007e16 <__sflush_r+0xee>
 8007de0:	690f      	ldr	r7, [r1, #16]
 8007de2:	2f00      	cmp	r7, #0
 8007de4:	d0f6      	beq.n	8007dd4 <__sflush_r+0xac>
 8007de6:	0793      	lsls	r3, r2, #30
 8007de8:	bf18      	it	ne
 8007dea:	2300      	movne	r3, #0
 8007dec:	680e      	ldr	r6, [r1, #0]
 8007dee:	bf08      	it	eq
 8007df0:	694b      	ldreq	r3, [r1, #20]
 8007df2:	1bf6      	subs	r6, r6, r7
 8007df4:	600f      	str	r7, [r1, #0]
 8007df6:	608b      	str	r3, [r1, #8]
 8007df8:	2e00      	cmp	r6, #0
 8007dfa:	ddeb      	ble.n	8007dd4 <__sflush_r+0xac>
 8007dfc:	4633      	mov	r3, r6
 8007dfe:	463a      	mov	r2, r7
 8007e00:	4628      	mov	r0, r5
 8007e02:	6a21      	ldr	r1, [r4, #32]
 8007e04:	f8d4 c028 	ldr.w	ip, [r4, #40]	@ 0x28
 8007e08:	47e0      	blx	ip
 8007e0a:	2800      	cmp	r0, #0
 8007e0c:	dc07      	bgt.n	8007e1e <__sflush_r+0xf6>
 8007e0e:	f9b4 300c 	ldrsh.w	r3, [r4, #12]
 8007e12:	f043 0340 	orr.w	r3, r3, #64	@ 0x40
 8007e16:	f04f 30ff 	mov.w	r0, #4294967295	@ 0xffffffff
 8007e1a:	81a3      	strh	r3, [r4, #12]
 8007e1c:	bdf8      	pop	{r3, r4, r5, r6, r7, pc}
 8007e1e:	4407      	add	r7, r0
 8007e20:	1a36      	subs	r6, r6, r0
 8007e22:	e7e9      	b.n	8007df8 <__sflush_r+0xd0>
 8007e24:	dfbffffe 	.word	0xdfbffffe

08007e28 <_fflush_r>:
 8007e28:	b538      	push	{r3, r4, r5, lr}
 8007e2a:	690b      	ldr	r3, [r1, #16]
 8007e2c:	4605      	mov	r5, r0
 8007e2e:	460c      	mov	r4, r1
 8007e30:	b913      	cbnz	r3, 8007e38 <_fflush_r+0x10>
 8007e32:	2500      	movs	r5, #0
 8007e34:	4628      	mov	r0, r5
 8007e36:	bd38      	pop	{r3, r4, r5, pc}
 8007e38:	b118      	cbz	r0, 8007e42 <_fflush_r+0x1a>
 8007e3a:	6a03      	ldr	r3, [r0, #32]
 8007e3c:	b90b      	cbnz	r3, 8007e42 <_fflush_r+0x1a>
 8007e3e:	f7fe fe59 	bl	8006af4 <__sinit>
 8007e42:	f9b4 300c 	ldrsh.w	r3, [r4, #12]
 8007e46:	2b00      	cmp	r3, #0
 8007e48:	d0f3      	beq.n	8007e32 <_fflush_r+0xa>
 8007e4a:	6e62      	ldr	r2, [r4, #100]	@ 0x64
 8007e4c:	07d0      	lsls	r0, r2, #31
 8007e4e:	d404      	bmi.n	8007e5a <_fflush_r+0x32>
 8007e50:	0599      	lsls	r1, r3, #22
 8007e52:	d402      	bmi.n	8007e5a <_fflush_r+0x32>
 8007e54:	6da0      	ldr	r0, [r4, #88]	@ 0x58
 8007e56:	f7fe ff7e 	bl	8006d56 <__retarget_lock_acquire_recursive>
 8007e5a:	4628      	mov	r0, r5
 8007e5c:	4621      	mov	r1, r4
 8007e5e:	f7ff ff63 	bl	8007d28 <__sflush_r>
 8007e62:	6e63      	ldr	r3, [r4, #100]	@ 0x64
 8007e64:	4605      	mov	r5, r0
 8007e66:	07da      	lsls	r2, r3, #31
 8007e68:	d4e4      	bmi.n	8007e34 <_fflush_r+0xc>
 8007e6a:	89a3      	ldrh	r3, [r4, #12]
 8007e6c:	059b      	lsls	r3, r3, #22
 8007e6e:	d4e1      	bmi.n	8007e34 <_fflush_r+0xc>
 8007e70:	6da0      	ldr	r0, [r4, #88]	@ 0x58
 8007e72:	f7fe ff71 	bl	8006d58 <__retarget_lock_release_recursive>
 8007e76:	e7dd      	b.n	8007e34 <_fflush_r+0xc>

08007e78 <_Balloc>:
 8007e78:	b570      	push	{r4, r5, r6, lr}
 8007e7a:	69c6      	ldr	r6, [r0, #28]
 8007e7c:	4604      	mov	r4, r0
 8007e7e:	460d      	mov	r5, r1
 8007e80:	b976      	cbnz	r6, 8007ea0 <_Balloc+0x28>
 8007e82:	2010      	movs	r0, #16
 8007e84:	f7fe fb5a 	bl	800653c <malloc>
 8007e88:	4602      	mov	r2, r0
 8007e8a:	61e0      	str	r0, [r4, #28]
 8007e8c:	b920      	cbnz	r0, 8007e98 <_Balloc+0x20>
 8007e8e:	216b      	movs	r1, #107	@ 0x6b
 8007e90:	4b17      	ldr	r3, [pc, #92]	@ (8007ef0 <_Balloc+0x78>)
 8007e92:	4818      	ldr	r0, [pc, #96]	@ (8007ef4 <_Balloc+0x7c>)
 8007e94:	f000 fd20 	bl	80088d8 <__assert_func>
 8007e98:	e9c0 6601 	strd	r6, r6, [r0, #4]
 8007e9c:	6006      	str	r6, [r0, #0]
 8007e9e:	60c6      	str	r6, [r0, #12]
 8007ea0:	69e6      	ldr	r6, [r4, #28]
 8007ea2:	68f3      	ldr	r3, [r6, #12]
 8007ea4:	b183      	cbz	r3, 8007ec8 <_Balloc+0x50>
 8007ea6:	69e3      	ldr	r3, [r4, #28]
 8007ea8:	68db      	ldr	r3, [r3, #12]
 8007eaa:	f853 0025 	ldr.w	r0, [r3, r5, lsl #2]
 8007eae:	b9b8      	cbnz	r0, 8007ee0 <_Balloc+0x68>
 8007eb0:	2101      	movs	r1, #1
 8007eb2:	fa01 f605 	lsl.w	r6, r1, r5
 8007eb6:	1d72      	adds	r2, r6, #5
 8007eb8:	4620      	mov	r0, r4
 8007eba:	0092      	lsls	r2, r2, #2
 8007ebc:	f000 fd2a 	bl	8008914 <_calloc_r>
 8007ec0:	b160      	cbz	r0, 8007edc <_Balloc+0x64>
 8007ec2:	e9c0 5601 	strd	r5, r6, [r0, #4]
 8007ec6:	e00e      	b.n	8007ee6 <_Balloc+0x6e>
 8007ec8:	2221      	movs	r2, #33	@ 0x21
 8007eca:	2104      	movs	r1, #4
 8007ecc:	4620      	mov	r0, r4
 8007ece:	f000 fd21 	bl	8008914 <_calloc_r>
 8007ed2:	69e3      	ldr	r3, [r4, #28]
 8007ed4:	60f0      	str	r0, [r6, #12]
 8007ed6:	68db      	ldr	r3, [r3, #12]
 8007ed8:	2b00      	cmp	r3, #0
 8007eda:	d1e4      	bne.n	8007ea6 <_Balloc+0x2e>
 8007edc:	2000      	movs	r0, #0
 8007ede:	bd70      	pop	{r4, r5, r6, pc}
 8007ee0:	6802      	ldr	r2, [r0, #0]
 8007ee2:	f843 2025 	str.w	r2, [r3, r5, lsl #2]
 8007ee6:	2300      	movs	r3, #0
 8007ee8:	e9c0 3303 	strd	r3, r3, [r0, #12]
 8007eec:	e7f7      	b.n	8007ede <_Balloc+0x66>
 8007eee:	bf00      	nop
 8007ef0:	08008c63 	.word	0x08008c63
 8007ef4:	08008cf4 	.word	0x08008cf4

08007ef8 <_Bfree>:
 8007ef8:	b570      	push	{r4, r5, r6, lr}
 8007efa:	69c6      	ldr	r6, [r0, #28]
 8007efc:	4605      	mov	r5, r0
 8007efe:	460c      	mov	r4, r1
 8007f00:	b976      	cbnz	r6, 8007f20 <_Bfree+0x28>
 8007f02:	2010      	movs	r0, #16
 8007f04:	f7fe fb1a 	bl	800653c <malloc>
 8007f08:	4602      	mov	r2, r0
 8007f0a:	61e8      	str	r0, [r5, #28]
 8007f0c:	b920      	cbnz	r0, 8007f18 <_Bfree+0x20>
 8007f0e:	218f      	movs	r1, #143	@ 0x8f
 8007f10:	4b08      	ldr	r3, [pc, #32]	@ (8007f34 <_Bfree+0x3c>)
 8007f12:	4809      	ldr	r0, [pc, #36]	@ (8007f38 <_Bfree+0x40>)
 8007f14:	f000 fce0 	bl	80088d8 <__assert_func>
 8007f18:	e9c0 6601 	strd	r6, r6, [r0, #4]
 8007f1c:	6006      	str	r6, [r0, #0]
 8007f1e:	60c6      	str	r6, [r0, #12]
 8007f20:	b13c      	cbz	r4, 8007f32 <_Bfree+0x3a>
 8007f22:	69eb      	ldr	r3, [r5, #28]
 8007f24:	6862      	ldr	r2, [r4, #4]
 8007f26:	68db      	ldr	r3, [r3, #12]
 8007f28:	f853 1022 	ldr.w	r1, [r3, r2, lsl #2]
 8007f2c:	6021      	str	r1, [r4, #0]
 8007f2e:	f843 4022 	str.w	r4, [r3, r2, lsl #2]
 8007f32:	bd70      	pop	{r4, r5, r6, pc}
 8007f34:	08008c63 	.word	0x08008c63
 8007f38:	08008cf4 	.word	0x08008cf4

08007f3c <__multadd>:
 8007f3c:	e92d 41f0 	stmdb	sp!, {r4, r5, r6, r7, r8, lr}
 8007f40:	4607      	mov	r7, r0
 8007f42:	460c      	mov	r4, r1
 8007f44:	461e      	mov	r6, r3
 8007f46:	2000      	movs	r0, #0
 8007f48:	690d      	ldr	r5, [r1, #16]
 8007f4a:	f101 0c14 	add.w	ip, r1, #20
 8007f4e:	f8dc 3000 	ldr.w	r3, [ip]
 8007f52:	3001      	adds	r0, #1
 8007f54:	b299      	uxth	r1, r3
 8007f56:	fb02 6101 	mla	r1, r2, r1, r6
 8007f5a:	0c1e      	lsrs	r6, r3, #16
 8007f5c:	0c0b      	lsrs	r3, r1, #16
 8007f5e:	fb02 3306 	mla	r3, r2, r6, r3
 8007f62:	b289      	uxth	r1, r1
 8007f64:	eb01 4103 	add.w	r1, r1, r3, lsl #16
 8007f68:	4285      	cmp	r5, r0
 8007f6a:	ea4f 4613 	mov.w	r6, r3, lsr #16
 8007f6e:	f84c 1b04 	str.w	r1, [ip], #4
 8007f72:	dcec      	bgt.n	8007f4e <__multadd+0x12>
 8007f74:	b30e      	cbz	r6, 8007fba <__multadd+0x7e>
 8007f76:	68a3      	ldr	r3, [r4, #8]
 8007f78:	42ab      	cmp	r3, r5
 8007f7a:	dc19      	bgt.n	8007fb0 <__multadd+0x74>
 8007f7c:	6861      	ldr	r1, [r4, #4]
 8007f7e:	4638      	mov	r0, r7
 8007f80:	3101      	adds	r1, #1
 8007f82:	f7ff ff79 	bl	8007e78 <_Balloc>
 8007f86:	4680      	mov	r8, r0
 8007f88:	b928      	cbnz	r0, 8007f96 <__multadd+0x5a>
 8007f8a:	4602      	mov	r2, r0
 8007f8c:	21ba      	movs	r1, #186	@ 0xba
 8007f8e:	4b0c      	ldr	r3, [pc, #48]	@ (8007fc0 <__multadd+0x84>)
 8007f90:	480c      	ldr	r0, [pc, #48]	@ (8007fc4 <__multadd+0x88>)
 8007f92:	f000 fca1 	bl	80088d8 <__assert_func>
 8007f96:	6922      	ldr	r2, [r4, #16]
 8007f98:	f104 010c 	add.w	r1, r4, #12
 8007f9c:	3202      	adds	r2, #2
 8007f9e:	0092      	lsls	r2, r2, #2
 8007fa0:	300c      	adds	r0, #12
 8007fa2:	f000 fc8b 	bl	80088bc <memcpy>
 8007fa6:	4621      	mov	r1, r4
 8007fa8:	4638      	mov	r0, r7
 8007faa:	f7ff ffa5 	bl	8007ef8 <_Bfree>
 8007fae:	4644      	mov	r4, r8
 8007fb0:	eb04 0385 	add.w	r3, r4, r5, lsl #2
 8007fb4:	3501      	adds	r5, #1
 8007fb6:	615e      	str	r6, [r3, #20]
 8007fb8:	6125      	str	r5, [r4, #16]
 8007fba:	4620      	mov	r0, r4
 8007fbc:	e8bd 81f0 	ldmia.w	sp!, {r4, r5, r6, r7, r8, pc}
 8007fc0:	08008cd2 	.word	0x08008cd2
 8007fc4:	08008cf4 	.word	0x08008cf4

08007fc8 <__hi0bits>:
 8007fc8:	4603      	mov	r3, r0
 8007fca:	f5b0 3f80 	cmp.w	r0, #65536	@ 0x10000
 8007fce:	bf3a      	itte	cc
 8007fd0:	0403      	lslcc	r3, r0, #16
 8007fd2:	2010      	movcc	r0, #16
 8007fd4:	2000      	movcs	r0, #0
 8007fd6:	f1b3 7f80 	cmp.w	r3, #16777216	@ 0x1000000
 8007fda:	bf3c      	itt	cc
 8007fdc:	021b      	lslcc	r3, r3, #8
 8007fde:	3008      	addcc	r0, #8
 8007fe0:	f1b3 5f80 	cmp.w	r3, #268435456	@ 0x10000000
 8007fe4:	bf3c      	itt	cc
 8007fe6:	011b      	lslcc	r3, r3, #4
 8007fe8:	3004      	addcc	r0, #4
 8007fea:	f1b3 4f80 	cmp.w	r3, #1073741824	@ 0x40000000
 8007fee:	bf3c      	itt	cc
 8007ff0:	009b      	lslcc	r3, r3, #2
 8007ff2:	3002      	addcc	r0, #2
 8007ff4:	2b00      	cmp	r3, #0
 8007ff6:	db05      	blt.n	8008004 <__hi0bits+0x3c>
 8007ff8:	f013 4f80 	tst.w	r3, #1073741824	@ 0x40000000
 8007ffc:	f100 0001 	add.w	r0, r0, #1
 8008000:	bf08      	it	eq
 8008002:	2020      	moveq	r0, #32
 8008004:	4770      	bx	lr

08008006 <__lo0bits>:
 8008006:	6803      	ldr	r3, [r0, #0]
 8008008:	4602      	mov	r2, r0
 800800a:	f013 0007 	ands.w	r0, r3, #7
 800800e:	d00b      	beq.n	8008028 <__lo0bits+0x22>
 8008010:	07d9      	lsls	r1, r3, #31
 8008012:	d421      	bmi.n	8008058 <__lo0bits+0x52>
 8008014:	0798      	lsls	r0, r3, #30
 8008016:	bf49      	itett	mi
 8008018:	085b      	lsrmi	r3, r3, #1
 800801a:	089b      	lsrpl	r3, r3, #2
 800801c:	2001      	movmi	r0, #1
 800801e:	6013      	strmi	r3, [r2, #0]
 8008020:	bf5c      	itt	pl
 8008022:	2002      	movpl	r0, #2
 8008024:	6013      	strpl	r3, [r2, #0]
 8008026:	4770      	bx	lr
 8008028:	b299      	uxth	r1, r3
 800802a:	b909      	cbnz	r1, 8008030 <__lo0bits+0x2a>
 800802c:	2010      	movs	r0, #16
 800802e:	0c1b      	lsrs	r3, r3, #16
 8008030:	b2d9      	uxtb	r1, r3
 8008032:	b909      	cbnz	r1, 8008038 <__lo0bits+0x32>
 8008034:	3008      	adds	r0, #8
 8008036:	0a1b      	lsrs	r3, r3, #8
 8008038:	0719      	lsls	r1, r3, #28
 800803a:	bf04      	itt	eq
 800803c:	091b      	lsreq	r3, r3, #4
 800803e:	3004      	addeq	r0, #4
 8008040:	0799      	lsls	r1, r3, #30
 8008042:	bf04      	itt	eq
 8008044:	089b      	lsreq	r3, r3, #2
 8008046:	3002      	addeq	r0, #2
 8008048:	07d9      	lsls	r1, r3, #31
 800804a:	d403      	bmi.n	8008054 <__lo0bits+0x4e>
 800804c:	085b      	lsrs	r3, r3, #1
 800804e:	f100 0001 	add.w	r0, r0, #1
 8008052:	d003      	beq.n	800805c <__lo0bits+0x56>
 8008054:	6013      	str	r3, [r2, #0]
 8008056:	4770      	bx	lr
 8008058:	2000      	movs	r0, #0
 800805a:	4770      	bx	lr
 800805c:	2020      	movs	r0, #32
 800805e:	4770      	bx	lr

08008060 <__i2b>:
 8008060:	b510      	push	{r4, lr}
 8008062:	460c      	mov	r4, r1
 8008064:	2101      	movs	r1, #1
 8008066:	f7ff ff07 	bl	8007e78 <_Balloc>
 800806a:	4602      	mov	r2, r0
 800806c:	b928      	cbnz	r0, 800807a <__i2b+0x1a>
 800806e:	f240 1145 	movw	r1, #325	@ 0x145
 8008072:	4b04      	ldr	r3, [pc, #16]	@ (8008084 <__i2b+0x24>)
 8008074:	4804      	ldr	r0, [pc, #16]	@ (8008088 <__i2b+0x28>)
 8008076:	f000 fc2f 	bl	80088d8 <__assert_func>
 800807a:	2301      	movs	r3, #1
 800807c:	6144      	str	r4, [r0, #20]
 800807e:	6103      	str	r3, [r0, #16]
 8008080:	bd10      	pop	{r4, pc}
 8008082:	bf00      	nop
 8008084:	08008cd2 	.word	0x08008cd2
 8008088:	08008cf4 	.word	0x08008cf4

0800808c <__multiply>:
 800808c:	e92d 4ff0 	stmdb	sp!, {r4, r5, r6, r7, r8, r9, sl, fp, lr}
 8008090:	4614      	mov	r4, r2
 8008092:	690a      	ldr	r2, [r1, #16]
 8008094:	6923      	ldr	r3, [r4, #16]
 8008096:	460f      	mov	r7, r1
 8008098:	429a      	cmp	r2, r3
 800809a:	bfa2      	ittt	ge
 800809c:	4623      	movge	r3, r4
 800809e:	460c      	movge	r4, r1
 80080a0:	461f      	movge	r7, r3
 80080a2:	f8d4 a010 	ldr.w	sl, [r4, #16]
 80080a6:	f8d7 9010 	ldr.w	r9, [r7, #16]
 80080aa:	68a3      	ldr	r3, [r4, #8]
 80080ac:	6861      	ldr	r1, [r4, #4]
 80080ae:	eb0a 0609 	add.w	r6, sl, r9
 80080b2:	42b3      	cmp	r3, r6
 80080b4:	b085      	sub	sp, #20
 80080b6:	bfb8      	it	lt
 80080b8:	3101      	addlt	r1, #1
 80080ba:	f7ff fedd 	bl	8007e78 <_Balloc>
 80080be:	b930      	cbnz	r0, 80080ce <__multiply+0x42>
 80080c0:	4602      	mov	r2, r0
 80080c2:	f44f 71b1 	mov.w	r1, #354	@ 0x162
 80080c6:	4b43      	ldr	r3, [pc, #268]	@ (80081d4 <__multiply+0x148>)
 80080c8:	4843      	ldr	r0, [pc, #268]	@ (80081d8 <__multiply+0x14c>)
 80080ca:	f000 fc05 	bl	80088d8 <__assert_func>
 80080ce:	f100 0514 	add.w	r5, r0, #20
 80080d2:	462b      	mov	r3, r5
 80080d4:	2200      	movs	r2, #0
 80080d6:	eb05 0886 	add.w	r8, r5, r6, lsl #2
 80080da:	4543      	cmp	r3, r8
 80080dc:	d321      	bcc.n	8008122 <__multiply+0x96>
 80080de:	f107 0114 	add.w	r1, r7, #20
 80080e2:	f104 0214 	add.w	r2, r4, #20
 80080e6:	eb02 028a 	add.w	r2, r2, sl, lsl #2
 80080ea:	eb01 0389 	add.w	r3, r1, r9, lsl #2
 80080ee:	9302      	str	r3, [sp, #8]
 80080f0:	1b13      	subs	r3, r2, r4
 80080f2:	3b15      	subs	r3, #21
 80080f4:	f023 0303 	bic.w	r3, r3, #3
 80080f8:	3304      	adds	r3, #4
 80080fa:	f104 0715 	add.w	r7, r4, #21
 80080fe:	42ba      	cmp	r2, r7
 8008100:	bf38      	it	cc
 8008102:	2304      	movcc	r3, #4
 8008104:	9301      	str	r3, [sp, #4]
 8008106:	9b02      	ldr	r3, [sp, #8]
 8008108:	9103      	str	r1, [sp, #12]
 800810a:	428b      	cmp	r3, r1
 800810c:	d80c      	bhi.n	8008128 <__multiply+0x9c>
 800810e:	2e00      	cmp	r6, #0
 8008110:	dd03      	ble.n	800811a <__multiply+0x8e>
 8008112:	f858 3d04 	ldr.w	r3, [r8, #-4]!
 8008116:	2b00      	cmp	r3, #0
 8008118:	d05a      	beq.n	80081d0 <__multiply+0x144>
 800811a:	6106      	str	r6, [r0, #16]
 800811c:	b005      	add	sp, #20
 800811e:	e8bd 8ff0 	ldmia.w	sp!, {r4, r5, r6, r7, r8, r9, sl, fp, pc}
 8008122:	f843 2b04 	str.w	r2, [r3], #4
 8008126:	e7d8      	b.n	80080da <__multiply+0x4e>
 8008128:	f8b1 a000 	ldrh.w	sl, [r1]
 800812c:	f1ba 0f00 	cmp.w	sl, #0
 8008130:	d023      	beq.n	800817a <__multiply+0xee>
 8008132:	46a9      	mov	r9, r5
 8008134:	f04f 0c00 	mov.w	ip, #0
 8008138:	f104 0e14 	add.w	lr, r4, #20
 800813c:	f85e 7b04 	ldr.w	r7, [lr], #4
 8008140:	f8d9 3000 	ldr.w	r3, [r9]
 8008144:	fa1f fb87 	uxth.w	fp, r7
 8008148:	b29b      	uxth	r3, r3
 800814a:	fb0a 330b 	mla	r3, sl, fp, r3
 800814e:	4463      	add	r3, ip
 8008150:	f8d9 c000 	ldr.w	ip, [r9]
 8008154:	0c3f      	lsrs	r7, r7, #16
 8008156:	ea4f 4c1c 	mov.w	ip, ip, lsr #16
 800815a:	fb0a c707 	mla	r7, sl, r7, ip
 800815e:	eb07 4713 	add.w	r7, r7, r3, lsr #16
 8008162:	b29b      	uxth	r3, r3
 8008164:	ea43 4307 	orr.w	r3, r3, r7, lsl #16
 8008168:	4572      	cmp	r2, lr
 800816a:	ea4f 4c17 	mov.w	ip, r7, lsr #16
 800816e:	f849 3b04 	str.w	r3, [r9], #4
 8008172:	d8e3      	bhi.n	800813c <__multiply+0xb0>
 8008174:	9b01      	ldr	r3, [sp, #4]
 8008176:	f845 c003 	str.w	ip, [r5, r3]
 800817a:	9b03      	ldr	r3, [sp, #12]
 800817c:	3104      	adds	r1, #4
 800817e:	f8b3 9002 	ldrh.w	r9, [r3, #2]
 8008182:	f1b9 0f00 	cmp.w	r9, #0
 8008186:	d021      	beq.n	80081cc <__multiply+0x140>
 8008188:	46ae      	mov	lr, r5
 800818a:	f04f 0a00 	mov.w	sl, #0
 800818e:	682b      	ldr	r3, [r5, #0]
 8008190:	f104 0c14 	add.w	ip, r4, #20
 8008194:	f8bc b000 	ldrh.w	fp, [ip]
 8008198:	f8be 7002 	ldrh.w	r7, [lr, #2]
 800819c:	b29b      	uxth	r3, r3
 800819e:	fb09 770b 	mla	r7, r9, fp, r7
 80081a2:	4457      	add	r7, sl
 80081a4:	ea43 4307 	orr.w	r3, r3, r7, lsl #16
 80081a8:	f84e 3b04 	str.w	r3, [lr], #4
 80081ac:	f85c 3b04 	ldr.w	r3, [ip], #4
 80081b0:	ea4f 4a13 	mov.w	sl, r3, lsr #16
 80081b4:	f8be 3000 	ldrh.w	r3, [lr]
 80081b8:	4562      	cmp	r2, ip
 80081ba:	fb09 330a 	mla	r3, r9, sl, r3
 80081be:	eb03 4317 	add.w	r3, r3, r7, lsr #16
 80081c2:	ea4f 4a13 	mov.w	sl, r3, lsr #16
 80081c6:	d8e5      	bhi.n	8008194 <__multiply+0x108>
 80081c8:	9f01      	ldr	r7, [sp, #4]
 80081ca:	51eb      	str	r3, [r5, r7]
 80081cc:	3504      	adds	r5, #4
 80081ce:	e79a      	b.n	8008106 <__multiply+0x7a>
 80081d0:	3e01      	subs	r6, #1
 80081d2:	e79c      	b.n	800810e <__multiply+0x82>
 80081d4:	08008cd2 	.word	0x08008cd2
 80081d8:	08008cf4 	.word	0x08008cf4

080081dc <__pow5mult>:
 80081dc:	e92d 43f8 	stmdb	sp!, {r3, r4, r5, r6, r7, r8, r9, lr}
 80081e0:	4615      	mov	r5, r2
 80081e2:	f012 0203 	ands.w	r2, r2, #3
 80081e6:	4607      	mov	r7, r0
 80081e8:	460e      	mov	r6, r1
 80081ea:	d007      	beq.n	80081fc <__pow5mult+0x20>
 80081ec:	4c25      	ldr	r4, [pc, #148]	@ (8008284 <__pow5mult+0xa8>)
 80081ee:	3a01      	subs	r2, #1
 80081f0:	2300      	movs	r3, #0
 80081f2:	f854 2022 	ldr.w	r2, [r4, r2, lsl #2]
 80081f6:	f7ff fea1 	bl	8007f3c <__multadd>
 80081fa:	4606      	mov	r6, r0
 80081fc:	10ad      	asrs	r5, r5, #2
 80081fe:	d03d      	beq.n	800827c <__pow5mult+0xa0>
 8008200:	69fc      	ldr	r4, [r7, #28]
 8008202:	b97c      	cbnz	r4, 8008224 <__pow5mult+0x48>
 8008204:	2010      	movs	r0, #16
 8008206:	f7fe f999 	bl	800653c <malloc>
 800820a:	4602      	mov	r2, r0
 800820c:	61f8      	str	r0, [r7, #28]
 800820e:	b928      	cbnz	r0, 800821c <__pow5mult+0x40>
 8008210:	f240 11b3 	movw	r1, #435	@ 0x1b3
 8008214:	4b1c      	ldr	r3, [pc, #112]	@ (8008288 <__pow5mult+0xac>)
 8008216:	481d      	ldr	r0, [pc, #116]	@ (800828c <__pow5mult+0xb0>)
 8008218:	f000 fb5e 	bl	80088d8 <__assert_func>
 800821c:	e9c0 4401 	strd	r4, r4, [r0, #4]
 8008220:	6004      	str	r4, [r0, #0]
 8008222:	60c4      	str	r4, [r0, #12]
 8008224:	f8d7 801c 	ldr.w	r8, [r7, #28]
 8008228:	f8d8 4008 	ldr.w	r4, [r8, #8]
 800822c:	b94c      	cbnz	r4, 8008242 <__pow5mult+0x66>
 800822e:	f240 2171 	movw	r1, #625	@ 0x271
 8008232:	4638      	mov	r0, r7
 8008234:	f7ff ff14 	bl	8008060 <__i2b>
 8008238:	2300      	movs	r3, #0
 800823a:	4604      	mov	r4, r0
 800823c:	f8c8 0008 	str.w	r0, [r8, #8]
 8008240:	6003      	str	r3, [r0, #0]
 8008242:	f04f 0900 	mov.w	r9, #0
 8008246:	07eb      	lsls	r3, r5, #31
 8008248:	d50a      	bpl.n	8008260 <__pow5mult+0x84>
 800824a:	4631      	mov	r1, r6
 800824c:	4622      	mov	r2, r4
 800824e:	4638      	mov	r0, r7
 8008250:	f7ff ff1c 	bl	800808c <__multiply>
 8008254:	4680      	mov	r8, r0
 8008256:	4631      	mov	r1, r6
 8008258:	4638      	mov	r0, r7
 800825a:	f7ff fe4d 	bl	8007ef8 <_Bfree>
 800825e:	4646      	mov	r6, r8
 8008260:	106d      	asrs	r5, r5, #1
 8008262:	d00b      	beq.n	800827c <__pow5mult+0xa0>
 8008264:	6820      	ldr	r0, [r4, #0]
 8008266:	b938      	cbnz	r0, 8008278 <__pow5mult+0x9c>
 8008268:	4622      	mov	r2, r4
 800826a:	4621      	mov	r1, r4
 800826c:	4638      	mov	r0, r7
 800826e:	f7ff ff0d 	bl	800808c <__multiply>
 8008272:	6020      	str	r0, [r4, #0]
 8008274:	f8c0 9000 	str.w	r9, [r0]
 8008278:	4604      	mov	r4, r0
 800827a:	e7e4      	b.n	8008246 <__pow5mult+0x6a>
 800827c:	4630      	mov	r0, r6
 800827e:	e8bd 83f8 	ldmia.w	sp!, {r3, r4, r5, r6, r7, r8, r9, pc}
 8008282:	bf00      	nop
 8008284:	08008d50 	.word	0x08008d50
 8008288:	08008c63 	.word	0x08008c63
 800828c:	08008cf4 	.word	0x08008cf4

08008290 <__lshift>:
 8008290:	e92d 47f0 	stmdb	sp!, {r4, r5, r6, r7, r8, r9, sl, lr}
 8008294:	460c      	mov	r4, r1
 8008296:	4607      	mov	r7, r0
 8008298:	4691      	mov	r9, r2
 800829a:	6923      	ldr	r3, [r4, #16]
 800829c:	6849      	ldr	r1, [r1, #4]
 800829e:	eb03 1862 	add.w	r8, r3, r2, asr #5
 80082a2:	68a3      	ldr	r3, [r4, #8]
 80082a4:	ea4f 1a62 	mov.w	sl, r2, asr #5
 80082a8:	f108 0601 	add.w	r6, r8, #1
 80082ac:	42b3      	cmp	r3, r6
 80082ae:	db0b      	blt.n	80082c8 <__lshift+0x38>
 80082b0:	4638      	mov	r0, r7
 80082b2:	f7ff fde1 	bl	8007e78 <_Balloc>
 80082b6:	4605      	mov	r5, r0
 80082b8:	b948      	cbnz	r0, 80082ce <__lshift+0x3e>
 80082ba:	4602      	mov	r2, r0
 80082bc:	f44f 71ef 	mov.w	r1, #478	@ 0x1de
 80082c0:	4b27      	ldr	r3, [pc, #156]	@ (8008360 <__lshift+0xd0>)
 80082c2:	4828      	ldr	r0, [pc, #160]	@ (8008364 <__lshift+0xd4>)
 80082c4:	f000 fb08 	bl	80088d8 <__assert_func>
 80082c8:	3101      	adds	r1, #1
 80082ca:	005b      	lsls	r3, r3, #1
 80082cc:	e7ee      	b.n	80082ac <__lshift+0x1c>
 80082ce:	2300      	movs	r3, #0
 80082d0:	f100 0114 	add.w	r1, r0, #20
 80082d4:	f100 0210 	add.w	r2, r0, #16
 80082d8:	4618      	mov	r0, r3
 80082da:	4553      	cmp	r3, sl
 80082dc:	db33      	blt.n	8008346 <__lshift+0xb6>
 80082de:	6920      	ldr	r0, [r4, #16]
 80082e0:	ea2a 7aea 	bic.w	sl, sl, sl, asr #31
 80082e4:	f104 0314 	add.w	r3, r4, #20
 80082e8:	f019 091f 	ands.w	r9, r9, #31
 80082ec:	eb01 018a 	add.w	r1, r1, sl, lsl #2
 80082f0:	eb03 0c80 	add.w	ip, r3, r0, lsl #2
 80082f4:	d02b      	beq.n	800834e <__lshift+0xbe>
 80082f6:	468a      	mov	sl, r1
 80082f8:	2200      	movs	r2, #0
 80082fa:	f1c9 0e20 	rsb	lr, r9, #32
 80082fe:	6818      	ldr	r0, [r3, #0]
 8008300:	fa00 f009 	lsl.w	r0, r0, r9
 8008304:	4310      	orrs	r0, r2
 8008306:	f84a 0b04 	str.w	r0, [sl], #4
 800830a:	f853 2b04 	ldr.w	r2, [r3], #4
 800830e:	459c      	cmp	ip, r3
 8008310:	fa22 f20e 	lsr.w	r2, r2, lr
 8008314:	d8f3      	bhi.n	80082fe <__lshift+0x6e>
 8008316:	ebac 0304 	sub.w	r3, ip, r4
 800831a:	3b15      	subs	r3, #21
 800831c:	f023 0303 	bic.w	r3, r3, #3
 8008320:	3304      	adds	r3, #4
 8008322:	f104 0015 	add.w	r0, r4, #21
 8008326:	4584      	cmp	ip, r0
 8008328:	bf38      	it	cc
 800832a:	2304      	movcc	r3, #4
 800832c:	50ca      	str	r2, [r1, r3]
 800832e:	b10a      	cbz	r2, 8008334 <__lshift+0xa4>
 8008330:	f108 0602 	add.w	r6, r8, #2
 8008334:	3e01      	subs	r6, #1
 8008336:	4638      	mov	r0, r7
 8008338:	4621      	mov	r1, r4
 800833a:	612e      	str	r6, [r5, #16]
 800833c:	f7ff fddc 	bl	8007ef8 <_Bfree>
 8008340:	4628      	mov	r0, r5
 8008342:	e8bd 87f0 	ldmia.w	sp!, {r4, r5, r6, r7, r8, r9, sl, pc}
 8008346:	f842 0f04 	str.w	r0, [r2, #4]!
 800834a:	3301      	adds	r3, #1
 800834c:	e7c5      	b.n	80082da <__lshift+0x4a>
 800834e:	3904      	subs	r1, #4
 8008350:	f853 2b04 	ldr.w	r2, [r3], #4
 8008354:	459c      	cmp	ip, r3
 8008356:	f841 2f04 	str.w	r2, [r1, #4]!
 800835a:	d8f9      	bhi.n	8008350 <__lshift+0xc0>
 800835c:	e7ea      	b.n	8008334 <__lshift+0xa4>
 800835e:	bf00      	nop
 8008360:	08008cd2 	.word	0x08008cd2
 8008364:	08008cf4 	.word	0x08008cf4

08008368 <__mcmp>:
 8008368:	4603      	mov	r3, r0
 800836a:	690a      	ldr	r2, [r1, #16]
 800836c:	6900      	ldr	r0, [r0, #16]
 800836e:	b530      	push	{r4, r5, lr}
 8008370:	1a80      	subs	r0, r0, r2
 8008372:	d10e      	bne.n	8008392 <__mcmp+0x2a>
 8008374:	3314      	adds	r3, #20
 8008376:	3114      	adds	r1, #20
 8008378:	eb03 0482 	add.w	r4, r3, r2, lsl #2
 800837c:	eb01 0182 	add.w	r1, r1, r2, lsl #2
 8008380:	f854 5d04 	ldr.w	r5, [r4, #-4]!
 8008384:	f851 2d04 	ldr.w	r2, [r1, #-4]!
 8008388:	4295      	cmp	r5, r2
 800838a:	d003      	beq.n	8008394 <__mcmp+0x2c>
 800838c:	d205      	bcs.n	800839a <__mcmp+0x32>
 800838e:	f04f 30ff 	mov.w	r0, #4294967295	@ 0xffffffff
 8008392:	bd30      	pop	{r4, r5, pc}
 8008394:	42a3      	cmp	r3, r4
 8008396:	d3f3      	bcc.n	8008380 <__mcmp+0x18>
 8008398:	e7fb      	b.n	8008392 <__mcmp+0x2a>
 800839a:	2001      	movs	r0, #1
 800839c:	e7f9      	b.n	8008392 <__mcmp+0x2a>
	...

080083a0 <__mdiff>:
 80083a0:	e92d 4ff7 	stmdb	sp!, {r0, r1, r2, r4, r5, r6, r7, r8, r9, sl, fp, lr}
 80083a4:	4689      	mov	r9, r1
 80083a6:	4606      	mov	r6, r0
 80083a8:	4611      	mov	r1, r2
 80083aa:	4648      	mov	r0, r9
 80083ac:	4614      	mov	r4, r2
 80083ae:	f7ff ffdb 	bl	8008368 <__mcmp>
 80083b2:	1e05      	subs	r5, r0, #0
 80083b4:	d112      	bne.n	80083dc <__mdiff+0x3c>
 80083b6:	4629      	mov	r1, r5
 80083b8:	4630      	mov	r0, r6
 80083ba:	f7ff fd5d 	bl	8007e78 <_Balloc>
 80083be:	4602      	mov	r2, r0
 80083c0:	b928      	cbnz	r0, 80083ce <__mdiff+0x2e>
 80083c2:	f240 2137 	movw	r1, #567	@ 0x237
 80083c6:	4b3e      	ldr	r3, [pc, #248]	@ (80084c0 <__mdiff+0x120>)
 80083c8:	483e      	ldr	r0, [pc, #248]	@ (80084c4 <__mdiff+0x124>)
 80083ca:	f000 fa85 	bl	80088d8 <__assert_func>
 80083ce:	2301      	movs	r3, #1
 80083d0:	e9c0 3504 	strd	r3, r5, [r0, #16]
 80083d4:	4610      	mov	r0, r2
 80083d6:	b003      	add	sp, #12
 80083d8:	e8bd 8ff0 	ldmia.w	sp!, {r4, r5, r6, r7, r8, r9, sl, fp, pc}
 80083dc:	bfbc      	itt	lt
 80083de:	464b      	movlt	r3, r9
 80083e0:	46a1      	movlt	r9, r4
 80083e2:	4630      	mov	r0, r6
 80083e4:	f8d9 1004 	ldr.w	r1, [r9, #4]
 80083e8:	bfba      	itte	lt
 80083ea:	461c      	movlt	r4, r3
 80083ec:	2501      	movlt	r5, #1
 80083ee:	2500      	movge	r5, #0
 80083f0:	f7ff fd42 	bl	8007e78 <_Balloc>
 80083f4:	4602      	mov	r2, r0
 80083f6:	b918      	cbnz	r0, 8008400 <__mdiff+0x60>
 80083f8:	f240 2145 	movw	r1, #581	@ 0x245
 80083fc:	4b30      	ldr	r3, [pc, #192]	@ (80084c0 <__mdiff+0x120>)
 80083fe:	e7e3      	b.n	80083c8 <__mdiff+0x28>
 8008400:	f100 0b14 	add.w	fp, r0, #20
 8008404:	f8d9 7010 	ldr.w	r7, [r9, #16]
 8008408:	f109 0310 	add.w	r3, r9, #16
 800840c:	60c5      	str	r5, [r0, #12]
 800840e:	f04f 0c00 	mov.w	ip, #0
 8008412:	f109 0514 	add.w	r5, r9, #20
 8008416:	46d9      	mov	r9, fp
 8008418:	6926      	ldr	r6, [r4, #16]
 800841a:	f104 0e14 	add.w	lr, r4, #20
 800841e:	eb05 0887 	add.w	r8, r5, r7, lsl #2
 8008422:	eb0e 0686 	add.w	r6, lr, r6, lsl #2
 8008426:	9301      	str	r3, [sp, #4]
 8008428:	9b01      	ldr	r3, [sp, #4]
 800842a:	f85e 0b04 	ldr.w	r0, [lr], #4
 800842e:	f853 af04 	ldr.w	sl, [r3, #4]!
 8008432:	b281      	uxth	r1, r0
 8008434:	9301      	str	r3, [sp, #4]
 8008436:	fa1f f38a 	uxth.w	r3, sl
 800843a:	1a5b      	subs	r3, r3, r1
 800843c:	0c00      	lsrs	r0, r0, #16
 800843e:	4463      	add	r3, ip
 8008440:	ebc0 401a 	rsb	r0, r0, sl, lsr #16
 8008444:	eb00 4023 	add.w	r0, r0, r3, asr #16
 8008448:	b29b      	uxth	r3, r3
 800844a:	ea43 4300 	orr.w	r3, r3, r0, lsl #16
 800844e:	4576      	cmp	r6, lr
 8008450:	ea4f 4c20 	mov.w	ip, r0, asr #16
 8008454:	f849 3b04 	str.w	r3, [r9], #4
 8008458:	d8e6      	bhi.n	8008428 <__mdiff+0x88>
 800845a:	1b33      	subs	r3, r6, r4
 800845c:	3b15      	subs	r3, #21
 800845e:	f023 0303 	bic.w	r3, r3, #3
 8008462:	3415      	adds	r4, #21
 8008464:	3304      	adds	r3, #4
 8008466:	42a6      	cmp	r6, r4
 8008468:	bf38      	it	cc
 800846a:	2304      	movcc	r3, #4
 800846c:	441d      	add	r5, r3
 800846e:	445b      	add	r3, fp
 8008470:	461e      	mov	r6, r3
 8008472:	462c      	mov	r4, r5
 8008474:	4544      	cmp	r4, r8
 8008476:	d30e      	bcc.n	8008496 <__mdiff+0xf6>
 8008478:	f108 0103 	add.w	r1, r8, #3
 800847c:	1b49      	subs	r1, r1, r5
 800847e:	f021 0103 	bic.w	r1, r1, #3
 8008482:	3d03      	subs	r5, #3
 8008484:	45a8      	cmp	r8, r5
 8008486:	bf38      	it	cc
 8008488:	2100      	movcc	r1, #0
 800848a:	440b      	add	r3, r1
 800848c:	f853 1d04 	ldr.w	r1, [r3, #-4]!
 8008490:	b199      	cbz	r1, 80084ba <__mdiff+0x11a>
 8008492:	6117      	str	r7, [r2, #16]
 8008494:	e79e      	b.n	80083d4 <__mdiff+0x34>
 8008496:	46e6      	mov	lr, ip
 8008498:	f854 1b04 	ldr.w	r1, [r4], #4
 800849c:	fa1f fc81 	uxth.w	ip, r1
 80084a0:	44f4      	add	ip, lr
 80084a2:	0c08      	lsrs	r0, r1, #16
 80084a4:	4471      	add	r1, lr
 80084a6:	eb00 402c 	add.w	r0, r0, ip, asr #16
 80084aa:	b289      	uxth	r1, r1
 80084ac:	ea41 4100 	orr.w	r1, r1, r0, lsl #16
 80084b0:	ea4f 4c20 	mov.w	ip, r0, asr #16
 80084b4:	f846 1b04 	str.w	r1, [r6], #4
 80084b8:	e7dc      	b.n	8008474 <__mdiff+0xd4>
 80084ba:	3f01      	subs	r7, #1
 80084bc:	e7e6      	b.n	800848c <__mdiff+0xec>
 80084be:	bf00      	nop
 80084c0:	08008cd2 	.word	0x08008cd2
 80084c4:	08008cf4 	.word	0x08008cf4

080084c8 <__d2b>:
 80084c8:	e92d 4373 	stmdb	sp!, {r0, r1, r4, r5, r6, r8, r9, lr}
 80084cc:	2101      	movs	r1, #1
 80084ce:	4690      	mov	r8, r2
 80084d0:	4699      	mov	r9, r3
 80084d2:	9e08      	ldr	r6, [sp, #32]
 80084d4:	f7ff fcd0 	bl	8007e78 <_Balloc>
 80084d8:	4604      	mov	r4, r0
 80084da:	b930      	cbnz	r0, 80084ea <__d2b+0x22>
 80084dc:	4602      	mov	r2, r0
 80084de:	f240 310f 	movw	r1, #783	@ 0x30f
 80084e2:	4b23      	ldr	r3, [pc, #140]	@ (8008570 <__d2b+0xa8>)
 80084e4:	4823      	ldr	r0, [pc, #140]	@ (8008574 <__d2b+0xac>)
 80084e6:	f000 f9f7 	bl	80088d8 <__assert_func>
 80084ea:	f3c9 550a 	ubfx	r5, r9, #20, #11
 80084ee:	f3c9 0313 	ubfx	r3, r9, #0, #20
 80084f2:	b10d      	cbz	r5, 80084f8 <__d2b+0x30>
 80084f4:	f443 1380 	orr.w	r3, r3, #1048576	@ 0x100000
 80084f8:	9301      	str	r3, [sp, #4]
 80084fa:	f1b8 0300 	subs.w	r3, r8, #0
 80084fe:	d024      	beq.n	800854a <__d2b+0x82>
 8008500:	4668      	mov	r0, sp
 8008502:	9300      	str	r3, [sp, #0]
 8008504:	f7ff fd7f 	bl	8008006 <__lo0bits>
 8008508:	e9dd 1200 	ldrd	r1, r2, [sp]
 800850c:	b1d8      	cbz	r0, 8008546 <__d2b+0x7e>
 800850e:	f1c0 0320 	rsb	r3, r0, #32
 8008512:	fa02 f303 	lsl.w	r3, r2, r3
 8008516:	430b      	orrs	r3, r1
 8008518:	40c2      	lsrs	r2, r0
 800851a:	6163      	str	r3, [r4, #20]
 800851c:	9201      	str	r2, [sp, #4]
 800851e:	9b01      	ldr	r3, [sp, #4]
 8008520:	2b00      	cmp	r3, #0
 8008522:	bf0c      	ite	eq
 8008524:	2201      	moveq	r2, #1
 8008526:	2202      	movne	r2, #2
 8008528:	61a3      	str	r3, [r4, #24]
 800852a:	6122      	str	r2, [r4, #16]
 800852c:	b1ad      	cbz	r5, 800855a <__d2b+0x92>
 800852e:	f2a5 4533 	subw	r5, r5, #1075	@ 0x433
 8008532:	4405      	add	r5, r0
 8008534:	6035      	str	r5, [r6, #0]
 8008536:	f1c0 0035 	rsb	r0, r0, #53	@ 0x35
 800853a:	9b09      	ldr	r3, [sp, #36]	@ 0x24
 800853c:	6018      	str	r0, [r3, #0]
 800853e:	4620      	mov	r0, r4
 8008540:	b002      	add	sp, #8
 8008542:	e8bd 8370 	ldmia.w	sp!, {r4, r5, r6, r8, r9, pc}
 8008546:	6161      	str	r1, [r4, #20]
 8008548:	e7e9      	b.n	800851e <__d2b+0x56>
 800854a:	a801      	add	r0, sp, #4
 800854c:	f7ff fd5b 	bl	8008006 <__lo0bits>
 8008550:	9b01      	ldr	r3, [sp, #4]
 8008552:	2201      	movs	r2, #1
 8008554:	6163      	str	r3, [r4, #20]
 8008556:	3020      	adds	r0, #32
 8008558:	e7e7      	b.n	800852a <__d2b+0x62>
 800855a:	f2a0 4032 	subw	r0, r0, #1074	@ 0x432
 800855e:	eb04 0382 	add.w	r3, r4, r2, lsl #2
 8008562:	6030      	str	r0, [r6, #0]
 8008564:	6918      	ldr	r0, [r3, #16]
 8008566:	f7ff fd2f 	bl	8007fc8 <__hi0bits>
 800856a:	ebc0 1042 	rsb	r0, r0, r2, lsl #5
 800856e:	e7e4      	b.n	800853a <__d2b+0x72>
 8008570:	08008cd2 	.word	0x08008cd2
 8008574:	08008cf4 	.word	0x08008cf4

08008578 <__sread>:
 8008578:	b510      	push	{r4, lr}
 800857a:	460c      	mov	r4, r1
 800857c:	f9b1 100e 	ldrsh.w	r1, [r1, #14]
 8008580:	f000 f978 	bl	8008874 <_read_r>
 8008584:	2800      	cmp	r0, #0
 8008586:	bfab      	itete	ge
 8008588:	6d63      	ldrge	r3, [r4, #84]	@ 0x54
 800858a:	89a3      	ldrhlt	r3, [r4, #12]
 800858c:	181b      	addge	r3, r3, r0
 800858e:	f423 5380 	biclt.w	r3, r3, #4096	@ 0x1000
 8008592:	bfac      	ite	ge
 8008594:	6563      	strge	r3, [r4, #84]	@ 0x54
 8008596:	81a3      	strhlt	r3, [r4, #12]
 8008598:	bd10      	pop	{r4, pc}

0800859a <__swrite>:
 800859a:	e92d 41f0 	stmdb	sp!, {r4, r5, r6, r7, r8, lr}
 800859e:	461f      	mov	r7, r3
 80085a0:	898b      	ldrh	r3, [r1, #12]
 80085a2:	4605      	mov	r5, r0
 80085a4:	05db      	lsls	r3, r3, #23
 80085a6:	460c      	mov	r4, r1
 80085a8:	4616      	mov	r6, r2
 80085aa:	d505      	bpl.n	80085b8 <__swrite+0x1e>
 80085ac:	2302      	movs	r3, #2
 80085ae:	2200      	movs	r2, #0
 80085b0:	f9b1 100e 	ldrsh.w	r1, [r1, #14]
 80085b4:	f000 f94c 	bl	8008850 <_lseek_r>
 80085b8:	89a3      	ldrh	r3, [r4, #12]
 80085ba:	4632      	mov	r2, r6
 80085bc:	f423 5380 	bic.w	r3, r3, #4096	@ 0x1000
 80085c0:	81a3      	strh	r3, [r4, #12]
 80085c2:	4628      	mov	r0, r5
 80085c4:	463b      	mov	r3, r7
 80085c6:	f9b4 100e 	ldrsh.w	r1, [r4, #14]
 80085ca:	e8bd 41f0 	ldmia.w	sp!, {r4, r5, r6, r7, r8, lr}
 80085ce:	f000 b963 	b.w	8008898 <_write_r>

080085d2 <__sseek>:
 80085d2:	b510      	push	{r4, lr}
 80085d4:	460c      	mov	r4, r1
 80085d6:	f9b1 100e 	ldrsh.w	r1, [r1, #14]
 80085da:	f000 f939 	bl	8008850 <_lseek_r>
 80085de:	1c43      	adds	r3, r0, #1
 80085e0:	89a3      	ldrh	r3, [r4, #12]
 80085e2:	bf15      	itete	ne
 80085e4:	6560      	strne	r0, [r4, #84]	@ 0x54
 80085e6:	f423 5380 	biceq.w	r3, r3, #4096	@ 0x1000
 80085ea:	f443 5380 	orrne.w	r3, r3, #4096	@ 0x1000
 80085ee:	81a3      	strheq	r3, [r4, #12]
 80085f0:	bf18      	it	ne
 80085f2:	81a3      	strhne	r3, [r4, #12]
 80085f4:	bd10      	pop	{r4, pc}

080085f6 <__sclose>:
 80085f6:	f9b1 100e 	ldrsh.w	r1, [r1, #14]
 80085fa:	f000 b8f7 	b.w	80087ec <_close_r>

080085fe <__swbuf_r>:
 80085fe:	b5f8      	push	{r3, r4, r5, r6, r7, lr}
 8008600:	460e      	mov	r6, r1
 8008602:	4614      	mov	r4, r2
 8008604:	4605      	mov	r5, r0
 8008606:	b118      	cbz	r0, 8008610 <__swbuf_r+0x12>
 8008608:	6a03      	ldr	r3, [r0, #32]
 800860a:	b90b      	cbnz	r3, 8008610 <__swbuf_r+0x12>
 800860c:	f7fe fa72 	bl	8006af4 <__sinit>
 8008610:	69a3      	ldr	r3, [r4, #24]
 8008612:	60a3      	str	r3, [r4, #8]
 8008614:	89a3      	ldrh	r3, [r4, #12]
 8008616:	071a      	lsls	r2, r3, #28
 8008618:	d501      	bpl.n	800861e <__swbuf_r+0x20>
 800861a:	6923      	ldr	r3, [r4, #16]
 800861c:	b943      	cbnz	r3, 8008630 <__swbuf_r+0x32>
 800861e:	4621      	mov	r1, r4
 8008620:	4628      	mov	r0, r5
 8008622:	f000 f82b 	bl	800867c <__swsetup_r>
 8008626:	b118      	cbz	r0, 8008630 <__swbuf_r+0x32>
 8008628:	f04f 37ff 	mov.w	r7, #4294967295	@ 0xffffffff
 800862c:	4638      	mov	r0, r7
 800862e:	bdf8      	pop	{r3, r4, r5, r6, r7, pc}
 8008630:	6823      	ldr	r3, [r4, #0]
 8008632:	6922      	ldr	r2, [r4, #16]
 8008634:	b2f6      	uxtb	r6, r6
 8008636:	1a98      	subs	r0, r3, r2
 8008638:	6963      	ldr	r3, [r4, #20]
 800863a:	4637      	mov	r7, r6
 800863c:	4283      	cmp	r3, r0
 800863e:	dc05      	bgt.n	800864c <__swbuf_r+0x4e>
 8008640:	4621      	mov	r1, r4
 8008642:	4628      	mov	r0, r5
 8008644:	f7ff fbf0 	bl	8007e28 <_fflush_r>
 8008648:	2800      	cmp	r0, #0
 800864a:	d1ed      	bne.n	8008628 <__swbuf_r+0x2a>
 800864c:	68a3      	ldr	r3, [r4, #8]
 800864e:	3b01      	subs	r3, #1
 8008650:	60a3      	str	r3, [r4, #8]
 8008652:	6823      	ldr	r3, [r4, #0]
 8008654:	1c5a      	adds	r2, r3, #1
 8008656:	6022      	str	r2, [r4, #0]
 8008658:	701e      	strb	r6, [r3, #0]
 800865a:	6962      	ldr	r2, [r4, #20]
 800865c:	1c43      	adds	r3, r0, #1
 800865e:	429a      	cmp	r2, r3
 8008660:	d004      	beq.n	800866c <__swbuf_r+0x6e>
 8008662:	89a3      	ldrh	r3, [r4, #12]
 8008664:	07db      	lsls	r3, r3, #31
 8008666:	d5e1      	bpl.n	800862c <__swbuf_r+0x2e>
 8008668:	2e0a      	cmp	r6, #10
 800866a:	d1df      	bne.n	800862c <__swbuf_r+0x2e>
 800866c:	4621      	mov	r1, r4
 800866e:	4628      	mov	r0, r5
 8008670:	f7ff fbda 	bl	8007e28 <_fflush_r>
 8008674:	2800      	cmp	r0, #0
 8008676:	d0d9      	beq.n	800862c <__swbuf_r+0x2e>
 8008678:	e7d6      	b.n	8008628 <__swbuf_r+0x2a>
	...

0800867c <__swsetup_r>:
 800867c:	b538      	push	{r3, r4, r5, lr}
 800867e:	4b29      	ldr	r3, [pc, #164]	@ (8008724 <__swsetup_r+0xa8>)
 8008680:	4605      	mov	r5, r0
 8008682:	6818      	ldr	r0, [r3, #0]
 8008684:	460c      	mov	r4, r1
 8008686:	b118      	cbz	r0, 8008690 <__swsetup_r+0x14>
 8008688:	6a03      	ldr	r3, [r0, #32]
 800868a:	b90b      	cbnz	r3, 8008690 <__swsetup_r+0x14>
 800868c:	f7fe fa32 	bl	8006af4 <__sinit>
 8008690:	f9b4 300c 	ldrsh.w	r3, [r4, #12]
 8008694:	0719      	lsls	r1, r3, #28
 8008696:	d422      	bmi.n	80086de <__swsetup_r+0x62>
 8008698:	06da      	lsls	r2, r3, #27
 800869a:	d407      	bmi.n	80086ac <__swsetup_r+0x30>
 800869c:	2209      	movs	r2, #9
 800869e:	602a      	str	r2, [r5, #0]
 80086a0:	f043 0340 	orr.w	r3, r3, #64	@ 0x40
 80086a4:	f04f 30ff 	mov.w	r0, #4294967295	@ 0xffffffff
 80086a8:	81a3      	strh	r3, [r4, #12]
 80086aa:	e033      	b.n	8008714 <__swsetup_r+0x98>
 80086ac:	0758      	lsls	r0, r3, #29
 80086ae:	d512      	bpl.n	80086d6 <__swsetup_r+0x5a>
 80086b0:	6b61      	ldr	r1, [r4, #52]	@ 0x34
 80086b2:	b141      	cbz	r1, 80086c6 <__swsetup_r+0x4a>
 80086b4:	f104 0344 	add.w	r3, r4, #68	@ 0x44
 80086b8:	4299      	cmp	r1, r3
 80086ba:	d002      	beq.n	80086c2 <__swsetup_r+0x46>
 80086bc:	4628      	mov	r0, r5
 80086be:	f7ff f9ab 	bl	8007a18 <_free_r>
 80086c2:	2300      	movs	r3, #0
 80086c4:	6363      	str	r3, [r4, #52]	@ 0x34
 80086c6:	89a3      	ldrh	r3, [r4, #12]
 80086c8:	f023 0324 	bic.w	r3, r3, #36	@ 0x24
 80086cc:	81a3      	strh	r3, [r4, #12]
 80086ce:	2300      	movs	r3, #0
 80086d0:	6063      	str	r3, [r4, #4]
 80086d2:	6923      	ldr	r3, [r4, #16]
 80086d4:	6023      	str	r3, [r4, #0]
 80086d6:	89a3      	ldrh	r3, [r4, #12]
 80086d8:	f043 0308 	orr.w	r3, r3, #8
 80086dc:	81a3      	strh	r3, [r4, #12]
 80086de:	6923      	ldr	r3, [r4, #16]
 80086e0:	b94b      	cbnz	r3, 80086f6 <__swsetup_r+0x7a>
 80086e2:	89a3      	ldrh	r3, [r4, #12]
 80086e4:	f403 7320 	and.w	r3, r3, #640	@ 0x280
 80086e8:	f5b3 7f00 	cmp.w	r3, #512	@ 0x200
 80086ec:	d003      	beq.n	80086f6 <__swsetup_r+0x7a>
 80086ee:	4621      	mov	r1, r4
 80086f0:	4628      	mov	r0, r5
 80086f2:	f000 f83e 	bl	8008772 <__smakebuf_r>
 80086f6:	f9b4 300c 	ldrsh.w	r3, [r4, #12]
 80086fa:	f013 0201 	ands.w	r2, r3, #1
 80086fe:	d00a      	beq.n	8008716 <__swsetup_r+0x9a>
 8008700:	2200      	movs	r2, #0
 8008702:	60a2      	str	r2, [r4, #8]
 8008704:	6962      	ldr	r2, [r4, #20]
 8008706:	4252      	negs	r2, r2
 8008708:	61a2      	str	r2, [r4, #24]
 800870a:	6922      	ldr	r2, [r4, #16]
 800870c:	b942      	cbnz	r2, 8008720 <__swsetup_r+0xa4>
 800870e:	f013 0080 	ands.w	r0, r3, #128	@ 0x80
 8008712:	d1c5      	bne.n	80086a0 <__swsetup_r+0x24>
 8008714:	bd38      	pop	{r3, r4, r5, pc}
 8008716:	0799      	lsls	r1, r3, #30
 8008718:	bf58      	it	pl
 800871a:	6962      	ldrpl	r2, [r4, #20]
 800871c:	60a2      	str	r2, [r4, #8]
 800871e:	e7f4      	b.n	800870a <__swsetup_r+0x8e>
 8008720:	2000      	movs	r0, #0
 8008722:	e7f7      	b.n	8008714 <__swsetup_r+0x98>
 8008724:	2000004c 	.word	0x2000004c

08008728 <__swhatbuf_r>:
 8008728:	b570      	push	{r4, r5, r6, lr}
 800872a:	460c      	mov	r4, r1
 800872c:	f9b1 100e 	ldrsh.w	r1, [r1, #14]
 8008730:	4615      	mov	r5, r2
 8008732:	2900      	cmp	r1, #0
 8008734:	461e      	mov	r6, r3
 8008736:	b096      	sub	sp, #88	@ 0x58
 8008738:	da0c      	bge.n	8008754 <__swhatbuf_r+0x2c>
 800873a:	89a3      	ldrh	r3, [r4, #12]
 800873c:	2100      	movs	r1, #0
 800873e:	f013 0f80 	tst.w	r3, #128	@ 0x80
 8008742:	bf14      	ite	ne
 8008744:	2340      	movne	r3, #64	@ 0x40
 8008746:	f44f 6380 	moveq.w	r3, #1024	@ 0x400
 800874a:	2000      	movs	r0, #0
 800874c:	6031      	str	r1, [r6, #0]
 800874e:	602b      	str	r3, [r5, #0]
 8008750:	b016      	add	sp, #88	@ 0x58
 8008752:	bd70      	pop	{r4, r5, r6, pc}
 8008754:	466a      	mov	r2, sp
 8008756:	f000 f859 	bl	800880c <_fstat_r>
 800875a:	2800      	cmp	r0, #0
 800875c:	dbed      	blt.n	800873a <__swhatbuf_r+0x12>
 800875e:	9901      	ldr	r1, [sp, #4]
 8008760:	f401 4170 	and.w	r1, r1, #61440	@ 0xf000
 8008764:	f5a1 5300 	sub.w	r3, r1, #8192	@ 0x2000
 8008768:	4259      	negs	r1, r3
 800876a:	4159      	adcs	r1, r3
 800876c:	f44f 6380 	mov.w	r3, #1024	@ 0x400
 8008770:	e7eb      	b.n	800874a <__swhatbuf_r+0x22>

08008772 <__smakebuf_r>:
 8008772:	898b      	ldrh	r3, [r1, #12]
 8008774:	b5f7      	push	{r0, r1, r2, r4, r5, r6, r7, lr}
 8008776:	079d      	lsls	r5, r3, #30
 8008778:	4606      	mov	r6, r0
 800877a:	460c      	mov	r4, r1
 800877c:	d507      	bpl.n	800878e <__smakebuf_r+0x1c>
 800877e:	f104 0347 	add.w	r3, r4, #71	@ 0x47
 8008782:	6023      	str	r3, [r4, #0]
 8008784:	6123      	str	r3, [r4, #16]
 8008786:	2301      	movs	r3, #1
 8008788:	6163      	str	r3, [r4, #20]
 800878a:	b003      	add	sp, #12
 800878c:	bdf0      	pop	{r4, r5, r6, r7, pc}
 800878e:	466a      	mov	r2, sp
 8008790:	ab01      	add	r3, sp, #4
 8008792:	f7ff ffc9 	bl	8008728 <__swhatbuf_r>
 8008796:	9f00      	ldr	r7, [sp, #0]
 8008798:	4605      	mov	r5, r0
 800879a:	4639      	mov	r1, r7
 800879c:	4630      	mov	r0, r6
 800879e:	f7fd feff 	bl	80065a0 <_malloc_r>
 80087a2:	b948      	cbnz	r0, 80087b8 <__smakebuf_r+0x46>
 80087a4:	f9b4 300c 	ldrsh.w	r3, [r4, #12]
 80087a8:	059a      	lsls	r2, r3, #22
 80087aa:	d4ee      	bmi.n	800878a <__smakebuf_r+0x18>
 80087ac:	f023 0303 	bic.w	r3, r3, #3
 80087b0:	f043 0302 	orr.w	r3, r3, #2
 80087b4:	81a3      	strh	r3, [r4, #12]
 80087b6:	e7e2      	b.n	800877e <__smakebuf_r+0xc>
 80087b8:	89a3      	ldrh	r3, [r4, #12]
 80087ba:	e9c4 0704 	strd	r0, r7, [r4, #16]
 80087be:	f043 0380 	orr.w	r3, r3, #128	@ 0x80
 80087c2:	81a3      	strh	r3, [r4, #12]
 80087c4:	9b01      	ldr	r3, [sp, #4]
 80087c6:	6020      	str	r0, [r4, #0]
 80087c8:	b15b      	cbz	r3, 80087e2 <__smakebuf_r+0x70>
 80087ca:	4630      	mov	r0, r6
 80087cc:	f9b4 100e 	ldrsh.w	r1, [r4, #14]
 80087d0:	f000 f82e 	bl	8008830 <_isatty_r>
 80087d4:	b128      	cbz	r0, 80087e2 <__smakebuf_r+0x70>
 80087d6:	89a3      	ldrh	r3, [r4, #12]
 80087d8:	f023 0303 	bic.w	r3, r3, #3
 80087dc:	f043 0301 	orr.w	r3, r3, #1
 80087e0:	81a3      	strh	r3, [r4, #12]
 80087e2:	89a3      	ldrh	r3, [r4, #12]
 80087e4:	431d      	orrs	r5, r3
 80087e6:	81a5      	strh	r5, [r4, #12]
 80087e8:	e7cf      	b.n	800878a <__smakebuf_r+0x18>
	...

080087ec <_close_r>:
 80087ec:	b538      	push	{r3, r4, r5, lr}
 80087ee:	2300      	movs	r3, #0
 80087f0:	4d05      	ldr	r5, [pc, #20]	@ (8008808 <_close_r+0x1c>)
 80087f2:	4604      	mov	r4, r0
 80087f4:	4608      	mov	r0, r1
 80087f6:	602b      	str	r3, [r5, #0]
 80087f8:	f7fb f87b 	bl	80038f2 <_close>
 80087fc:	1c43      	adds	r3, r0, #1
 80087fe:	d102      	bne.n	8008806 <_close_r+0x1a>
 8008800:	682b      	ldr	r3, [r5, #0]
 8008802:	b103      	cbz	r3, 8008806 <_close_r+0x1a>
 8008804:	6023      	str	r3, [r4, #0]
 8008806:	bd38      	pop	{r3, r4, r5, pc}
 8008808:	200004d8 	.word	0x200004d8

0800880c <_fstat_r>:
 800880c:	b538      	push	{r3, r4, r5, lr}
 800880e:	2300      	movs	r3, #0
 8008810:	4d06      	ldr	r5, [pc, #24]	@ (800882c <_fstat_r+0x20>)
 8008812:	4604      	mov	r4, r0
 8008814:	4608      	mov	r0, r1
 8008816:	4611      	mov	r1, r2
 8008818:	602b      	str	r3, [r5, #0]
 800881a:	f7fb f875 	bl	8003908 <_fstat>
 800881e:	1c43      	adds	r3, r0, #1
 8008820:	d102      	bne.n	8008828 <_fstat_r+0x1c>
 8008822:	682b      	ldr	r3, [r5, #0]
 8008824:	b103      	cbz	r3, 8008828 <_fstat_r+0x1c>
 8008826:	6023      	str	r3, [r4, #0]
 8008828:	bd38      	pop	{r3, r4, r5, pc}
 800882a:	bf00      	nop
 800882c:	200004d8 	.word	0x200004d8

08008830 <_isatty_r>:
 8008830:	b538      	push	{r3, r4, r5, lr}
 8008832:	2300      	movs	r3, #0
 8008834:	4d05      	ldr	r5, [pc, #20]	@ (800884c <_isatty_r+0x1c>)
 8008836:	4604      	mov	r4, r0
 8008838:	4608      	mov	r0, r1
 800883a:	602b      	str	r3, [r5, #0]
 800883c:	f7fb f873 	bl	8003926 <_isatty>
 8008840:	1c43      	adds	r3, r0, #1
 8008842:	d102      	bne.n	800884a <_isatty_r+0x1a>
 8008844:	682b      	ldr	r3, [r5, #0]
 8008846:	b103      	cbz	r3, 800884a <_isatty_r+0x1a>
 8008848:	6023      	str	r3, [r4, #0]
 800884a:	bd38      	pop	{r3, r4, r5, pc}
 800884c:	200004d8 	.word	0x200004d8

08008850 <_lseek_r>:
 8008850:	b538      	push	{r3, r4, r5, lr}
 8008852:	4604      	mov	r4, r0
 8008854:	4608      	mov	r0, r1
 8008856:	4611      	mov	r1, r2
 8008858:	2200      	movs	r2, #0
 800885a:	4d05      	ldr	r5, [pc, #20]	@ (8008870 <_lseek_r+0x20>)
 800885c:	602a      	str	r2, [r5, #0]
 800885e:	461a      	mov	r2, r3
 8008860:	f7fb f86b 	bl	800393a <_lseek>
 8008864:	1c43      	adds	r3, r0, #1
 8008866:	d102      	bne.n	800886e <_lseek_r+0x1e>
 8008868:	682b      	ldr	r3, [r5, #0]
 800886a:	b103      	cbz	r3, 800886e <_lseek_r+0x1e>
 800886c:	6023      	str	r3, [r4, #0]
 800886e:	bd38      	pop	{r3, r4, r5, pc}
 8008870:	200004d8 	.word	0x200004d8

08008874 <_read_r>:
 8008874:	b538      	push	{r3, r4, r5, lr}
 8008876:	4604      	mov	r4, r0
 8008878:	4608      	mov	r0, r1
 800887a:	4611      	mov	r1, r2
 800887c:	2200      	movs	r2, #0
 800887e:	4d05      	ldr	r5, [pc, #20]	@ (8008894 <_read_r+0x20>)
 8008880:	602a      	str	r2, [r5, #0]
 8008882:	461a      	mov	r2, r3
 8008884:	f7fa fffc 	bl	8003880 <_read>
 8008888:	1c43      	adds	r3, r0, #1
 800888a:	d102      	bne.n	8008892 <_read_r+0x1e>
 800888c:	682b      	ldr	r3, [r5, #0]
 800888e:	b103      	cbz	r3, 8008892 <_read_r+0x1e>
 8008890:	6023      	str	r3, [r4, #0]
 8008892:	bd38      	pop	{r3, r4, r5, pc}
 8008894:	200004d8 	.word	0x200004d8

08008898 <_write_r>:
 8008898:	b538      	push	{r3, r4, r5, lr}
 800889a:	4604      	mov	r4, r0
 800889c:	4608      	mov	r0, r1
 800889e:	4611      	mov	r1, r2
 80088a0:	2200      	movs	r2, #0
 80088a2:	4d05      	ldr	r5, [pc, #20]	@ (80088b8 <_write_r+0x20>)
 80088a4:	602a      	str	r2, [r5, #0]
 80088a6:	461a      	mov	r2, r3
 80088a8:	f7fb f807 	bl	80038ba <_write>
 80088ac:	1c43      	adds	r3, r0, #1
 80088ae:	d102      	bne.n	80088b6 <_write_r+0x1e>
 80088b0:	682b      	ldr	r3, [r5, #0]
 80088b2:	b103      	cbz	r3, 80088b6 <_write_r+0x1e>
 80088b4:	6023      	str	r3, [r4, #0]
 80088b6:	bd38      	pop	{r3, r4, r5, pc}
 80088b8:	200004d8 	.word	0x200004d8

080088bc <memcpy>:
 80088bc:	440a      	add	r2, r1
 80088be:	4291      	cmp	r1, r2
 80088c0:	f100 33ff 	add.w	r3, r0, #4294967295	@ 0xffffffff
 80088c4:	d100      	bne.n	80088c8 <memcpy+0xc>
 80088c6:	4770      	bx	lr
 80088c8:	b510      	push	{r4, lr}
 80088ca:	f811 4b01 	ldrb.w	r4, [r1], #1
 80088ce:	4291      	cmp	r1, r2
 80088d0:	f803 4f01 	strb.w	r4, [r3, #1]!
 80088d4:	d1f9      	bne.n	80088ca <memcpy+0xe>
 80088d6:	bd10      	pop	{r4, pc}

080088d8 <__assert_func>:
 80088d8:	b51f      	push	{r0, r1, r2, r3, r4, lr}
 80088da:	4614      	mov	r4, r2
 80088dc:	461a      	mov	r2, r3
 80088de:	4b09      	ldr	r3, [pc, #36]	@ (8008904 <__assert_func+0x2c>)
 80088e0:	4605      	mov	r5, r0
 80088e2:	681b      	ldr	r3, [r3, #0]
 80088e4:	68d8      	ldr	r0, [r3, #12]
 80088e6:	b954      	cbnz	r4, 80088fe <__assert_func+0x26>
 80088e8:	4b07      	ldr	r3, [pc, #28]	@ (8008908 <__assert_func+0x30>)
 80088ea:	461c      	mov	r4, r3
 80088ec:	e9cd 3401 	strd	r3, r4, [sp, #4]
 80088f0:	9100      	str	r1, [sp, #0]
 80088f2:	462b      	mov	r3, r5
 80088f4:	4905      	ldr	r1, [pc, #20]	@ (800890c <__assert_func+0x34>)
 80088f6:	f000 f833 	bl	8008960 <fiprintf>
 80088fa:	f7fd fb3b 	bl	8005f74 <abort>
 80088fe:	4b04      	ldr	r3, [pc, #16]	@ (8008910 <__assert_func+0x38>)
 8008900:	e7f4      	b.n	80088ec <__assert_func+0x14>
 8008902:	bf00      	nop
 8008904:	2000004c 	.word	0x2000004c
 8008908:	08008f96 	.word	0x08008f96
 800890c:	08008f68 	.word	0x08008f68
 8008910:	08008f5b 	.word	0x08008f5b

08008914 <_calloc_r>:
 8008914:	b570      	push	{r4, r5, r6, lr}
 8008916:	fba1 5402 	umull	r5, r4, r1, r2
 800891a:	b93c      	cbnz	r4, 800892c <_calloc_r+0x18>
 800891c:	4629      	mov	r1, r5
 800891e:	f7fd fe3f 	bl	80065a0 <_malloc_r>
 8008922:	4606      	mov	r6, r0
 8008924:	b928      	cbnz	r0, 8008932 <_calloc_r+0x1e>
 8008926:	2600      	movs	r6, #0
 8008928:	4630      	mov	r0, r6
 800892a:	bd70      	pop	{r4, r5, r6, pc}
 800892c:	220c      	movs	r2, #12
 800892e:	6002      	str	r2, [r0, #0]
 8008930:	e7f9      	b.n	8008926 <_calloc_r+0x12>
 8008932:	462a      	mov	r2, r5
 8008934:	4621      	mov	r1, r4
 8008936:	f7fe f983 	bl	8006c40 <memset>
 800893a:	e7f5      	b.n	8008928 <_calloc_r+0x14>

0800893c <__ascii_mbtowc>:
 800893c:	b082      	sub	sp, #8
 800893e:	b901      	cbnz	r1, 8008942 <__ascii_mbtowc+0x6>
 8008940:	a901      	add	r1, sp, #4
 8008942:	b142      	cbz	r2, 8008956 <__ascii_mbtowc+0x1a>
 8008944:	b14b      	cbz	r3, 800895a <__ascii_mbtowc+0x1e>
 8008946:	7813      	ldrb	r3, [r2, #0]
 8008948:	600b      	str	r3, [r1, #0]
 800894a:	7812      	ldrb	r2, [r2, #0]
 800894c:	1e10      	subs	r0, r2, #0
 800894e:	bf18      	it	ne
 8008950:	2001      	movne	r0, #1
 8008952:	b002      	add	sp, #8
 8008954:	4770      	bx	lr
 8008956:	4610      	mov	r0, r2
 8008958:	e7fb      	b.n	8008952 <__ascii_mbtowc+0x16>
 800895a:	f06f 0001 	mvn.w	r0, #1
 800895e:	e7f8      	b.n	8008952 <__ascii_mbtowc+0x16>

08008960 <fiprintf>:
 8008960:	b40e      	push	{r1, r2, r3}
 8008962:	b503      	push	{r0, r1, lr}
 8008964:	4601      	mov	r1, r0
 8008966:	ab03      	add	r3, sp, #12
 8008968:	4805      	ldr	r0, [pc, #20]	@ (8008980 <fiprintf+0x20>)
 800896a:	f853 2b04 	ldr.w	r2, [r3], #4
 800896e:	6800      	ldr	r0, [r0, #0]
 8008970:	9301      	str	r3, [sp, #4]
 8008972:	f7ff f8c1 	bl	8007af8 <_vfiprintf_r>
 8008976:	b002      	add	sp, #8
 8008978:	f85d eb04 	ldr.w	lr, [sp], #4
 800897c:	b003      	add	sp, #12
 800897e:	4770      	bx	lr
 8008980:	2000004c 	.word	0x2000004c

08008984 <__ascii_wctomb>:
 8008984:	4603      	mov	r3, r0
 8008986:	4608      	mov	r0, r1
 8008988:	b141      	cbz	r1, 800899c <__ascii_wctomb+0x18>
 800898a:	2aff      	cmp	r2, #255	@ 0xff
 800898c:	d904      	bls.n	8008998 <__ascii_wctomb+0x14>
 800898e:	228a      	movs	r2, #138	@ 0x8a
 8008990:	f04f 30ff 	mov.w	r0, #4294967295	@ 0xffffffff
 8008994:	601a      	str	r2, [r3, #0]
 8008996:	4770      	bx	lr
 8008998:	2001      	movs	r0, #1
 800899a:	700a      	strb	r2, [r1, #0]
 800899c:	4770      	bx	lr
	...

080089a0 <_init>:
 80089a0:	b5f8      	push	{r3, r4, r5, r6, r7, lr}
 80089a2:	bf00      	nop
 80089a4:	bcf8      	pop	{r3, r4, r5, r6, r7}
 80089a6:	bc08      	pop	{r3}
 80089a8:	469e      	mov	lr, r3
 80089aa:	4770      	bx	lr

080089ac <_fini>:
 80089ac:	b5f8      	push	{r3, r4, r5, r6, r7, lr}
 80089ae:	bf00      	nop
 80089b0:	bcf8      	pop	{r3, r4, r5, r6, r7}
 80089b2:	bc08      	pop	{r3}
 80089b4:	469e      	mov	lr, r3
 80089b6:	4770      	bx	lr
